
pic30.cof:     file format coff-pic30

Disassembly of section .reset:

00000000 <.reset>:
   0:	00 02 04    	goto      0x200 <__reset>
   2:	00 00 00 
Disassembly of section .text:

00000200 <__reset>:
     200:	af 39 23    	mov.w     #0x339a, w15
     202:	0e f7 27    	mov.w     #0x7f70, w14
     204:	0e 01 88    	mov.w     w14, 0x20
     206:	00 00 00    	nop       
     208:	0c 00 07    	rcall     0x222
     20a:	20 3d 26    	mov.w     #0x63d2, w0
     20c:	01 00 20    	mov.w     #0x0, w1
     20e:	11 00 07    	rcall     0x232
     210:	00 00 20    	mov.w     #0x0, w0
     212:	00 00 e0    	cp0.w     w0
     214:	02 00 32    	bra       Z, 0x21a
     216:	00 00 02    	call      0x0 <__reset-0x200>
     218:	00 00 00 

0000021a <L11>:
     21a:	ce 4b 02    	call      0x4bce <_main>
     21c:	00 00 00 
     21e:	00 40 da    	.pword 0xda4000
     220:	00 00 fe    	reset     

00000222 <__psv_init>:
     222:	44 40 a9    	bclr.b    0x44, #0x2
     224:	00 6d 20    	mov.w     #0x6d0, w0
     226:	00 00 e0    	cp0.w     w0
     228:	03 00 32    	bra       Z, 0x230
     22a:	00 00 20    	mov.w     #0x0, w0
     22c:	a0 01 88    	mov.w     w0, 0x34
     22e:	44 40 a8    	bset.b    0x44, #0x2

00000230 <L12>:
     230:	00 00 06    	return    

00000232 <__data_init>:
     232:	91 01 88    	mov.w     w1, 0x32
     234:	80 00 78    	mov.w     w0, w1
     236:	00 00 eb    	clr.w     w0
     238:	15 00 37    	bra       0x264

0000023a <L11>:
     23a:	e2 80 40    	add.w     w1, #0x2, w1
     23c:	32 a0 b4    	addc.w    0x32
     23e:	91 01 ba    	tblrdl.w  [w1], w3
     240:	e2 80 40    	add.w     w1, #0x2, w1
     242:	32 a0 b4    	addc.w    0x32
     244:	91 02 ba    	tblrdl.w  [w1], w5
     246:	e2 80 40    	add.w     w1, #0x2, w1
     248:	32 a0 b4    	addc.w    0x32
     24a:	00 02 eb    	clr.w     w4
     24c:	47 2b de    	lsr.w     w5, #0x7, w6
     24e:	f5 07 b2    	and.w     #0x7f, w5
     250:	60 2c e1    	cp.b      w5, #0x0
     252:	04 00 3a    	bra       NZ, 0x25c <L21>

00000254 <L91>:
     254:	00 59 eb    	clr.b     [w2++]
     256:	83 01 e9    	dec.w     w3, w3
     258:	fd ff 3e    	bra       GTU, 0x254 <L91>
     25a:	04 00 37    	bra       0x264

0000025c <L21>:
     25c:	61 28 e1    	cp.w      w5, #0x1
     25e:	01 00 32    	bra       Z, 0x262
     260:	00 82 eb    	setm.w    w4

00000262 <L31>:
     262:	04 00 07    	rcall     0x26c <L12>

00000264 <L41>:
     264:	11 01 ba    	tblrdl.w  [w1], w2
     266:	02 00 e0    	cp0.w     w2
     268:	e8 ff 3a    	bra       NZ, 0x23a <L11>
     26a:	00 00 06    	return    

0000026c <L12>:
     26c:	31 59 ba    	tblrdl.b  [w1++], [w2++]
     26e:	83 01 e9    	dec.w     w3, w3
     270:	0c 00 32    	bra       Z, 0x28a <L22>
     272:	21 59 ba    	tblrdl.b  [w1--], [w2++]
     274:	83 01 e9    	dec.w     w3, w3
     276:	08 00 32    	bra       Z, 0x288 <L42>
     278:	04 00 e0    	cp0.w     w4
     27a:	03 00 3a    	bra       NZ, 0x282 <L13>

0000027c <L32>:
     27c:	e2 80 40    	add.w     w1, #0x2, w1
     27e:	32 a0 b4    	addc.w    0x32
     280:	f5 ff 37    	bra       0x26c <L12>

00000282 <L13>:
     282:	11 d9 ba    	tblrdh.b  [w1], [w2++]
     284:	83 01 e9    	dec.w     w3, w3
     286:	fa ff 3a    	bra       NZ, 0x27c <L32>

00000288 <L42>:
     288:	81 00 e8    	inc.w     w1, w1

0000028a <L22>:
     28a:	e1 80 40    	add.w     w1, #0x1, w1
     28c:	32 a0 b4    	addc.w    0x32
     28e:	00 00 06    	return    

00000290 <.handle>:
     290:	b4 49 04    	goto      0x49b4 <_FuncCHAT_SEND>
     292:	00 00 00 
     294:	22 4a 04    	goto      0x4a22 <_FuncCHAT_RECEIVE>
     296:	00 00 00 
     298:	7a 4b 04    	goto      0x4b7a <_FuncLCD_WRITE>
     29a:	00 00 00 
     29c:	cc 5d 04    	goto      0x5dcc <_FuncUWL_EE_TASK_PHY_READ_DISPATCHER>
     29e:	00 00 00 
     2a0:	2a 33 04    	goto      0x332a <_FuncUWL_EE_TASK_MAC_PROCESS_RX_BEACON>
     2a2:	00 00 00 
     2a4:	34 33 04    	goto      0x3334 <_FuncUWL_EE_TASK_MAC_PROCESS_RX_DATA>
     2a6:	00 00 00 
     2a8:	3e 33 04    	goto      0x333e <_FuncUWL_EE_TASK_MAC_PROCESS_RX_COMMAND>
     2aa:	00 00 00 
     2ac:	94 21 04    	goto      0x2194 <_FuncUWL_EE_TASK_MAC_TIMESLOT>
     2ae:	00 00 00 
     2b0:	9e 21 04    	goto      0x219e <_FuncUWL_EE_TASK_MAC_BEFORE_TIMESLOT>
     2b2:	00 00 00 
     2b4:	a8 21 04    	goto      0x21a8 <_FuncUWL_EE_TASK_MAC_BACKOFF_PERIOD>
     2b6:	00 00 00 
     2b8:	b2 21 04    	goto      0x21b2 <_FuncUWL_EE_TASK_MAC_GTS_SEND>
     2ba:	00 00 00 
     2bc:	52 4b 04    	goto      0x4b52 <_button_action>
     2be:	00 00 00 
     2c0:	4e 49 04    	goto      0x494e <_rx_data>
     2c2:	00 00 00 
     2c4:	d6 5d 04    	goto      0x5dd6 <_phy_read_dispatcher>
     2c6:	00 00 00 
     2c8:	2e 5e 04    	goto      0x5e2e <_phy_read_isr>
     2ca:	00 00 00 
     2cc:	98 38 04    	goto      0x3898 <_process_rx_beacon>
     2ce:	00 00 00 
     2d0:	7a 39 04    	goto      0x397a <_process_rx_data>
     2d2:	00 00 00 
     2d4:	68 34 04    	goto      0x3468 <_process_rx_command>
     2d6:	00 00 00 
     2d8:	0e 77 04    	goto      0x770e <_uwl_kal_external_timer_action>
     2da:	00 00 00 
     2dc:	86 27 04    	goto      0x2786 <_on_timeslot_start>
     2de:	00 00 00 
     2e0:	bc 21 04    	goto      0x21bc <_before_timeslot_start>
     2e2:	00 00 00 
     2e4:	00 23 04    	goto      0x2300 <_on_backoff_period_start>
     2e6:	00 00 00 
     2e8:	be 2f 04    	goto      0x2fbe <_on_gts_send>
     2ea:	00 00 00 
     2ec:	44 74 04    	goto      0x7444 <_console_serial_open>
     2ee:	00 00 00 
     2f0:	52 74 04    	goto      0x7452 <_console_serial_close>
     2f2:	00 00 00 
     2f4:	5a 74 04    	goto      0x745a <_console_serial_write>
     2f6:	00 00 00 
     2f8:	62 74 04    	goto      0x7462 <_console_serial_read>
     2fa:	00 00 00 

000002fc <__DefaultInterrupt>:
     2fc:	00 40 da    	.pword 0xda4000
     2fe:	00 00 fe    	reset     

00000300 <_write>:
     300:	0a 00 fa    	lnk       #0xa
     302:	80 01 78    	mov.w     w0, w3
     304:	e2 0f 50    	sub.w     w0, #0x2, [w15]
     306:	28 00 3e    	bra       GTU, 0x358 <.L2>
     308:	c0 8c 81    	mov.w     0x3198, w0
     30a:	e1 0f 50    	sub.w     w0, #0x1, [w15]
     30c:	08 00 32    	bra       Z, 0x31e <.L7>
     30e:	80 23 20    	mov.w     #0x238, w0
     310:	00 00 e0    	cp0.w     w0
     312:	05 00 32    	bra       Z, 0x31e <.L7>
     314:	04 23 20    	mov.w     #0x230, w4
     316:	25 23 20    	mov.w     #0x232, w5
     318:	46 23 20    	mov.w     #0x234, w6
     31a:	80 01 78    	mov.w     w0, w3
     31c:	04 00 37    	bra       0x326

0000031e <.L7>:
     31e:	04 22 20    	mov.w     #0x220, w4
     320:	25 22 20    	mov.w     #0x222, w5
     322:	46 22 20    	mov.w     #0x224, w6
     324:	83 22 20    	mov.w     #0x228, w3

00000326 <.L6>:
     326:	14 40 90    	mov.b     [w4+1], w0
     328:	00 04 e0    	cp0.b     w0
     32a:	04 00 35    	bra       LT, 0x334 <.L9>
     32c:	80 09 eb    	clr.w     [w3]
     32e:	14 40 90    	mov.b     [w4+1], w0
     330:	00 74 a0    	bset.b    w0, #0x7
     332:	10 42 98    	mov.b     w0, [w4+1]

00000334 <.L9>:
     334:	15 40 90    	mov.b     [w5+1], w0
     336:	00 28 a3    	btst.z    w0, #0x2
     338:	03 00 3a    	bra       NZ, 0x340
     33a:	15 40 90    	mov.b     [w5+1], w0
     33c:	00 24 a0    	bset.b    w0, #0x2
     33e:	90 42 98    	mov.b     w0, [w5+1]

00000340 <.L11>:
     340:	80 01 eb    	clr.w     w3
     342:	07 00 37    	bra       0x352 <.L13>

00000344 <.L18>:
     344:	15 40 90    	mov.b     [w5+1], w0
     346:	00 08 a3    	btst.z    w0, #0x0
     348:	fd ff 32    	bra       Z, 0x344 <.L18>
     34a:	63 c0 78    	mov.b     [w3+w1], w0
     34c:	00 00 fb    	se        w0, w0
     34e:	00 0b 78    	mov.w     w0, [w6]
     350:	83 01 e8    	inc.w     w3, w3

00000352 <.L13>:
     352:	82 8f 51    	sub.w     w3, w2, [w15]
     354:	f7 ff 3a    	bra       NZ, 0x344 <.L18>
     356:	08 00 37    	bra       0x368

00000358 <.L2>:
     358:	30 00 20    	mov.w     #0x3, w0
     35a:	b0 bf 9f    	mov.w     w0, [w15-10]
     35c:	c3 bf 9f    	mov.w     w3, [w15-8]
     35e:	d1 bf 9f    	mov.w     w1, [w15-6]
     360:	e2 bf 9f    	mov.w     w2, [w15-4]

00000362 <.bb>:
     362:	6a 80 57    	sub.w     w15, #0xa, w0
     364:	00 c0 da    	.pword 0xdac000

00000366 <.eb>:
     366:	6f b9 97    	mov.w     [w15-4], w2

00000368 <.L16>:
     368:	02 00 78    	mov.w     w2, w0
     36a:	00 80 fa    	ulnk      
     36c:	00 00 06    	return    

0000036e <___mulp32eds3>:
     36e:	02 0a b9    	mul.su    w1, w2, w4
     370:	00 1b b9    	mul.su    w3, w0, w6
     372:	02 00 b8    	mul.uu    w0, w2, w0
     374:	81 00 42    	add.w     w4, w1, w1
     376:	81 00 43    	add.w     w6, w1, w1
     378:	00 00 06    	return    

0000037a <___floatsisf>:
     37a:	88 9f be    	mov.d     w8, [w15++]
     37c:	8a 9f be    	mov.d     w10, [w15++]
     37e:	01 05 78    	mov.w     w1, w10
     380:	01 00 e0    	cp0.w     w1
     382:	04 00 35    	bra       LT, 0x38c
     384:	08 00 3c    	bra       GT, 0x396
     386:	00 00 e0    	cp0.w     w0
     388:	20 00 32    	bra       Z, 0x3ca
     38a:	05 00 37    	bra       0x396

0000038c <negative>:
     38c:	60 00 10    	subr.w    w0, #0x0, w0
     38e:	e0 80 18    	subbr.w   w1, #0x0, w1
     390:	02 00 3b    	bra       NN, 0x396
     392:	01 f0 2c    	mov.w     #0xcf00, w1
     394:	1a 00 37    	bra       0x3ca

00000396 <notspecial>:
     396:	00 04 be    	mov.d     w0, w8
     398:	60 11 b8    	mul.uu    w2, #0x0, w2
     39a:	6b 09 20    	mov.w     #0x96, w11
     39c:	09 82 cf    	ff1l      w9, w4
     39e:	02 00 39    	bra       NC, 0x3a4
     3a0:	08 82 cf    	ff1l      w8, w4
     3a2:	04 41 b0    	add.b     #0x10, w4

000003a4 <fixshift>:
     3a4:	69 42 52    	sub.b     w4, #0x9, w4
     3a6:	0e 00 32    	bra       Z, 0x3c4
     3a8:	08 00 3b    	bra       NN, 0x3ba

000003aa <shiftright>:
     3aa:	82 81 71    	ior.w     w3, w2, w3
     3ac:	61 01 64    	and.w     w8, #0x1, w2
     3ae:	89 04 d1    	lsr.w     w9, w9
     3b0:	08 84 d3    	rrc.w     w8, w8
     3b2:	8b 05 e8    	inc.w     w11, w11
     3b4:	04 42 e8    	inc.b     w4, w4
     3b6:	f9 ff 3a    	bra       NZ, 0x3aa
     3b8:	05 00 37    	bra       0x3c4

000003ba <shiftleft>:
     3ba:	08 04 44    	add.w     w8, w8, w8
     3bc:	89 84 4c    	addc.w    w9, w9, w9
     3be:	8b 05 e9    	dec.w     w11, w11
     3c0:	04 42 e9    	dec.b     w4, w4
     3c2:	fb ff 3a    	bra       NZ, 0x3ba

000003c4 <round>:
     3c4:	08 01 07    	rcall     0x5d6 <__fpack>
     3c6:	0a f0 a7    	btsc.w    w10, #0xf
     3c8:	01 f0 a0    	bset.w    w1, #0xf

000003ca <return0>:
     3ca:	4f 05 be    	mov.d     [--w15], w10
     3cc:	4f 04 be    	mov.d     [--w15], w8
     3ce:	00 00 06    	return    

000003d0 <___divsf3>:
     3d0:	88 9f be    	mov.d     w8, [w15++]
     3d2:	8a 9f be    	mov.d     w10, [w15++]
     3d4:	8c 1f 78    	mov.w     w12, [w15++]
     3d6:	25 01 07    	rcall     0x622 <__funpack2>
     3d8:	2c 01 33    	bra       N, 0x632 <__fPropagateNaN>
     3da:	03 86 6c    	xor.w     w9, w3, w12
     3dc:	64 50 e1    	cp.w      w10, #0x4
     3de:	2e 00 32    	bra       Z, 0x43c <aisinfinite>
     3e0:	64 20 e1    	cp.w      w4, #0x4
     3e2:	33 00 32    	bra       Z, 0x44a
     3e4:	61 50 e1    	cp.w      w10, #0x1
     3e6:	2f 00 32    	bra       Z, 0x446
     3e8:	61 20 e1    	cp.w      w4, #0x1
     3ea:	31 00 32    	bra       Z, 0x44e

000003ec <finitenonzero>:
     3ec:	85 85 55    	sub.w     w11, w5, w11
     3ee:	eb 07 b0    	add.w     #0x7e, w11
     3f0:	09 00 20    	mov.w     #0x0, w9
     3f2:	08 04 20    	mov.w     #0x40, w8
     3f4:	05 00 37    	bra       0x400

000003f6 <divnext>:
     3f6:	08 04 44    	add.w     w8, w8, w8
     3f8:	89 84 4c    	addc.w    w9, w9, w9
     3fa:	0a 00 31    	bra       C, 0x410

000003fc <divloop>:
     3fc:	06 03 43    	add.w     w6, w6, w6
     3fe:	87 83 4b    	addc.w    w7, w7, w7

00000400 <diventry>:
     400:	00 01 53    	sub.w     w6, w0, w2
     402:	81 81 5b    	subb.w    w7, w1, w3
     404:	f8 ff 33    	bra       N, 0x3f6 <divnext>
     406:	02 03 be    	mov.d     w2, w6
     408:	08 00 a0    	bset.w    w8, #0x0
     40a:	08 04 44    	add.w     w8, w8, w8
     40c:	89 84 4c    	addc.w    w9, w9, w9
     40e:	f6 ff 39    	bra       NC, 0x3fc <divloop>

00000410 <divdone>:
     410:	c6 39 dd    	sl.w      w7, #0x6, w3
     412:	83 01 73    	ior.w     w6, w3, w3
     414:	01 00 32    	bra       Z, 0x418
     416:	13 00 20    	mov.w     #0x1, w3

00000418 <stickyok>:
     418:	89 04 d1    	lsr.w     w9, w9
     41a:	08 84 d3    	rrc.w     w8, w8
     41c:	09 98 a3    	btst.z    w9, #0x9
     41e:	05 00 32    	bra       Z, 0x42a
     420:	08 00 a7    	btsc.w    w8, #0x0
     422:	03 00 a0    	bset.w    w3, #0x0
     424:	89 04 d1    	lsr.w     w9, w9
     426:	08 84 d3    	rrc.w     w8, w8
     428:	8b 05 e8    	inc.w     w11, w11

0000042a <guardused>:
     42a:	89 04 d1    	lsr.w     w9, w9
     42c:	08 84 d3    	rrc.w     w8, w8
     42e:	00 01 eb    	clr.w     w2
     430:	02 81 d2    	rlc.w     w2, w2
     432:	d1 00 07    	rcall     0x5d6 <__fpack>

00000434 <return0>:
     434:	01 f0 a1    	bclr.w    w1, #0xf
     436:	0c f0 a7    	btsc.w    w12, #0xf
     438:	01 f0 a0    	bset.w    w1, #0xf
     43a:	04 01 37    	bra       0x644 <__fbopExit>

0000043c <aisinfinite>:
     43c:	64 20 e1    	cp.w      w4, #0x4
     43e:	06 01 32    	bra       Z, 0x64c <__fbopReturnNaN>

00000440 <return8>:
     440:	08 01 be    	mov.d     w8, w2

00000442 <return2>:
     442:	02 00 be    	mov.d     w2, w0
     444:	f7 ff 37    	bra       0x434

00000446 <aiszero>:
     446:	61 20 e1    	cp.w      w4, #0x1
     448:	01 01 32    	bra       Z, 0x64c <__fbopReturnNaN>

0000044a <returnZero>:
     44a:	60 00 b8    	mul.uu    w0, #0x0, w0
     44c:	f3 ff 37    	bra       0x434

0000044e <returnInf>:
     44e:	00 00 20    	mov.w     #0x0, w0
     450:	01 f8 27    	mov.w     #0x7f80, w1
     452:	f0 ff 37    	bra       0x434

00000454 <___udivsi3>:
     454:	60 22 b8    	mul.uu    w4, #0x0, w4
     456:	06 02 20    	mov.w     #0x20, w6

00000458 <nextbit>:
     458:	00 00 d0    	sl.w      w0, w0
     45a:	81 80 d2    	rlc.w     w1, w1
     45c:	04 82 d2    	rlc.w     w4, w4
     45e:	85 82 d2    	rlc.w     w5, w5
     460:	00 00 a0    	bset.w    w0, #0x0
     462:	02 02 52    	sub.w     w4, w2, w4
     464:	83 82 5a    	subb.w    w5, w3, w5
     466:	03 00 31    	bra       C, 0x46e
     468:	02 02 42    	add.w     w4, w2, w4
     46a:	83 82 4a    	addc.w    w5, w3, w5
     46c:	00 00 a1    	bclr.w    w0, #0x0

0000046e <iterate>:
     46e:	06 03 e9    	dec.w     w6, w6
     470:	f3 ff 3a    	bra       NZ, 0x458
     472:	00 00 06    	return    

00000474 <___eqsf2>:
     474:	14 00 20    	mov.w     #0x1, w4
     476:	ed 00 37    	bra       0x652 <__fcompare>

00000478 <___gesf2>:
     478:	f4 ff 2f    	mov.w     #0xffff, w4
     47a:	eb 00 37    	bra       0x652 <__fcompare>

0000047c <___mulsf3>:
     47c:	88 9f be    	mov.d     w8, [w15++]
     47e:	8a 9f be    	mov.d     w10, [w15++]
     480:	8c 1f 78    	mov.w     w12, [w15++]
     482:	cf 00 07    	rcall     0x622 <__funpack2>
     484:	d6 00 33    	bra       N, 0x632 <__fPropagateNaN>
     486:	03 86 6c    	xor.w     w9, w3, w12
     488:	64 50 e1    	cp.w      w10, #0x4
     48a:	24 00 32    	bra       Z, 0x4d4 <aisinfinite>
     48c:	64 20 e1    	cp.w      w4, #0x4
     48e:	27 00 32    	bra       Z, 0x4de <bisinfinite>
     490:	61 50 e1    	cp.w      w10, #0x1
     492:	22 00 32    	bra       Z, 0x4d8 <return8>
     494:	61 20 e1    	cp.w      w4, #0x1
     496:	21 00 32    	bra       Z, 0x4da <return2>
     498:	8b 85 42    	add.w     w5, w11, w11
     49a:	eb 07 b1    	sub.w     #0x7e, w11
     49c:	01 34 b8    	mul.uu    w6, w1, w8
     49e:	00 3a b8    	mul.uu    w7, w0, w4
     4a0:	08 04 42    	add.w     w4, w8, w8
     4a2:	89 84 4a    	addc.w    w5, w9, w9
     4a4:	01 3a b8    	mul.uu    w7, w1, w4
     4a6:	00 30 b8    	mul.uu    w6, w0, w0
     4a8:	88 80 40    	add.w     w1, w8, w1
     4aa:	09 01 4a    	addc.w    w4, w9, w2
     4ac:	04 00 33    	bra       N, 0x4b6 <formsticky>
     4ae:	00 00 40    	add.w     w0, w0, w0
     4b0:	81 80 48    	addc.w    w1, w1, w1
     4b2:	02 01 49    	addc.w    w2, w2, w2
     4b4:	8b 05 e9    	dec.w     w11, w11

000004b6 <formsticky>:
     4b6:	c9 09 dd    	sl.w      w1, #0x9, w3
     4b8:	83 01 70    	ior.w     w0, w3, w3
     4ba:	01 00 32    	bra       Z, 0x4be <formRandSig>
     4bc:	13 00 20    	mov.w     #0x1, w3

000004be <formRandSig>:
     4be:	c8 14 de    	lsr.w     w2, #0x8, w9
     4c0:	48 14 dd    	sl.w      w2, #0x8, w8
     4c2:	47 09 de    	lsr.w     w1, #0x7, w2
     4c4:	12 00 b2    	and.w     #0x1, w2
     4c6:	c8 08 de    	lsr.w     w1, #0x8, w1
     4c8:	08 84 70    	ior.w     w1, w8, w8
     4ca:	85 00 07    	rcall     0x5d6 <__fpack>

000004cc <return0>:
     4cc:	01 f0 a1    	bclr.w    w1, #0xf
     4ce:	0c f0 a7    	btsc.w    w12, #0xf
     4d0:	01 f0 a0    	bset.w    w1, #0xf
     4d2:	b8 00 37    	bra       0x644 <__fbopExit>

000004d4 <aisinfinite>:
     4d4:	61 20 e1    	cp.w      w4, #0x1
     4d6:	ba 00 32    	bra       Z, 0x64c <__fbopReturnNaN>

000004d8 <return8>:
     4d8:	08 01 be    	mov.d     w8, w2

000004da <return2>:
     4da:	02 00 be    	mov.d     w2, w0
     4dc:	f7 ff 37    	bra       0x4cc <return0>

000004de <bisinfinite>:
     4de:	61 50 e1    	cp.w      w10, #0x1
     4e0:	fc ff 3a    	bra       NZ, 0x4da <return2>
     4e2:	b4 00 37    	bra       0x64c <__fbopReturnNaN>

000004e4 <___fixunssfsi>:
     4e4:	00 01 be    	mov.d     w0, w2
     4e6:	d0 00 07    	rcall     0x688 <__funpack>
     4e8:	04 70 a7    	btsc.w    w4, #0x7
     4ea:	03 f0 a1    	bclr.w    w3, #0xf
     4ec:	03 f8 a3    	btst.z    w3, #0xf
     4ee:	13 00 3a    	bra       NZ, 0x516 <returnzero>
     4f0:	65 09 b1    	sub.w     #0x96, w5
     4f2:	10 00 32    	bra       Z, 0x514
     4f4:	09 00 35    	bra       LT, 0x508
     4f6:	69 28 e1    	cp.w      w5, #0x9
     4f8:	02 00 35    	bra       LT, 0x4fe <shiftleft>
     4fa:	01 00 28    	mov.w     #0x8000, w1
     4fc:	00 00 05    	retlw.w   #0x0, w0

000004fe <shiftleft>:
     4fe:	00 00 40    	add.w     w0, w0, w0
     500:	81 80 48    	addc.w    w1, w1, w1
     502:	85 02 e9    	dec.w     w5, w5
     504:	fc ff 3a    	bra       NZ, 0x4fe <shiftleft>
     506:	00 00 06    	return    

00000508 <shiftright>:
     508:	f8 8f 42    	add.w     w5, #0x18, [w15]
     50a:	05 00 35    	bra       LT, 0x516 <returnzero>

0000050c <shiftrightloop>:
     50c:	81 00 d1    	lsr.w     w1, w1
     50e:	00 80 d3    	rrc.w     w0, w0
     510:	85 02 e8    	inc.w     w5, w5
     512:	fc ff 3a    	bra       NZ, 0x50c

00000514 <exit>:
     514:	00 00 06    	return    

00000516 <returnzero>:
     516:	80 00 eb    	clr.w     w1
     518:	00 00 05    	retlw.w   #0x0, w0

0000051a <___subsf3>:
     51a:	03 f0 a2    	btg.w     w3, #0xf

0000051c <___addsf3>:
     51c:	88 9f be    	mov.d     w8, [w15++]
     51e:	8a 9f be    	mov.d     w10, [w15++]
     520:	8c 1f 78    	mov.w     w12, [w15++]
     522:	7f 00 07    	rcall     0x622 <__funpack2>
     524:	86 00 33    	bra       N, 0x632 <__fPropagateNaN>
     526:	64 50 e1    	cp.w      w10, #0x4
     528:	4f 00 32    	bra       Z, 0x5c8 <aisinfinite>

0000052a <checkspecialb>:
     52a:	64 20 e1    	cp.w      w4, #0x4
     52c:	52 00 32    	bra       Z, 0x5d2 <return2>
     52e:	03 82 6c    	xor.w     w9, w3, w4
     530:	07 00 3b    	bra       NN, 0x540
     532:	09 05 d0    	sl.w      w9, w10
     534:	03 06 d0    	sl.w      w3, w12
     536:	82 0f 54    	sub.w     w8, w2, [w15]
     538:	0c 06 5d    	subb.w    w10, w12, w12
     53a:	02 00 39    	bra       NC, 0x540
     53c:	02 00 32    	bra       Z, 0x542
     53e:	89 01 78    	mov.w     w9, w3

00000540 <getsign>:
     540:	03 06 78    	mov.w     w3, w12

00000542 <gotsign>:
     542:	85 82 55    	sub.w     w11, w5, w5
     544:	04 00 3d    	bra       GE, 0x54e
     546:	00 03 fd    	exch      w0, w6
     548:	81 03 fd    	exch      w1, w7
     54a:	85 02 ea    	neg.w     w5, w5
     54c:	8b 85 42    	add.w     w5, w11, w11

0000054e <expcanonical>:
     54e:	84 0f 72    	ior.w     w4, w4, [w15]
     550:	02 00 3b    	bra       NN, 0x556
     552:	60 00 10    	subr.w    w0, #0x0, w0
     554:	e0 80 18    	subbr.w   w1, #0x0, w1

00000556 <nonegate>:
     556:	60 11 b8    	mul.uu    w2, #0x0, w2
     558:	00 05 eb    	clr.w     w10
     55a:	7a 28 e1    	cp.w      w5, #0x1a
     55c:	0a 00 39    	bra       NC, 0x572
     55e:	06 00 78    	mov.w     w6, w0
     560:	c7 5d dd    	sl.w      w11, #0x7, w11
     562:	f7 07 b2    	and.w     #0x7f, w7
     564:	87 80 75    	ior.w     w11, w7, w1
     566:	2d 00 37    	bra       0x5c2 <signoff>

00000568 <align>:
     568:	82 81 71    	ior.w     w3, w2, w3
     56a:	0a 01 78    	mov.w     w10, w2
     56c:	61 05 60    	and.w     w0, #0x1, w10
     56e:	81 80 d1    	asr.w     w1, w1
     570:	00 80 d3    	rrc.w     w0, w0

00000572 <aligniter>:
     572:	85 02 e9    	dec.w     w5, w5
     574:	f9 ff 3b    	bra       NN, 0x568

00000576 <aligned>:
     576:	06 04 40    	add.w     w0, w6, w8
     578:	87 84 48    	addc.w    w1, w7, w9
     57a:	02 00 3b    	bra       NN, 0x580 <normalizesum>
     57c:	60 04 14    	subr.w    w8, #0x0, w8
     57e:	e0 84 1c    	subbr.w   w9, #0x0, w9

00000580 <normalizesum>:
     580:	09 88 a3    	btst.z    w9, #0x8
     582:	07 00 32    	bra       Z, 0x592 <checknormal>
     584:	8a 81 71    	ior.w     w3, w10, w3
     586:	82 81 71    	ior.w     w3, w2, w3
     588:	61 01 64    	and.w     w8, #0x1, w2
     58a:	89 04 d1    	lsr.w     w9, w9
     58c:	08 84 d3    	rrc.w     w8, w8
     58e:	8b 05 e8    	inc.w     w11, w11
     590:	17 00 37    	bra       0x5c0 <round>

00000592 <checknormal>:
     592:	09 78 a3    	btst.z    w9, #0x7
     594:	13 00 3a    	bra       NZ, 0x5bc <discardguard>

00000596 <underflow>:
     596:	0b 00 e0    	cp0.w     w11
     598:	13 00 34    	bra       LE, 0x5c0 <round>
     59a:	8b 05 e9    	dec.w     w11, w11
     59c:	08 04 44    	add.w     w8, w8, w8
     59e:	89 84 4c    	addc.w    w9, w9, w9
     5a0:	0a 44 74    	ior.b     w8, w10, w8
     5a2:	09 78 a3    	btst.z    w9, #0x7
     5a4:	0d 00 3a    	bra       NZ, 0x5c0 <round>

000005a6 <normalizeloop>:
     5a6:	0b 00 e0    	cp0.w     w11
     5a8:	07 00 34    	bra       LE, 0x5b8 <normalizeexit>
     5aa:	8b 05 e9    	dec.w     w11, w11
     5ac:	08 04 44    	add.w     w8, w8, w8
     5ae:	89 84 4c    	addc.w    w9, w9, w9
     5b0:	01 00 3a    	bra       NZ, 0x5b4 <normalizetest>
     5b2:	0b 00 20    	mov.w     #0x0, w11

000005b4 <normalizetest>:
     5b4:	09 78 a3    	btst.z    w9, #0x7
     5b6:	f7 ff 32    	bra       Z, 0x5a6 <normalizeloop>

000005b8 <normalizeexit>:
     5b8:	00 01 eb    	clr.w     w2
     5ba:	02 00 37    	bra       0x5c0 <round>

000005bc <discardguard>:
     5bc:	82 81 71    	ior.w     w3, w2, w3
     5be:	0a 01 78    	mov.w     w10, w2

000005c0 <round>:
     5c0:	0a 00 07    	rcall     0x5d6 <__fpack>

000005c2 <signoff>:
     5c2:	0c f0 a7    	btsc.w    w12, #0xf
     5c4:	01 f0 a0    	bset.w    w1, #0xf
     5c6:	3e 00 37    	bra       0x644 <__fbopExit>

000005c8 <aisinfinite>:
     5c8:	64 20 e1    	cp.w      w4, #0x4
     5ca:	02 00 3a    	bra       NZ, 0x5d0 <return8>
     5cc:	83 8f 6c    	xor.w     w9, w3, [w15]
     5ce:	3e 00 33    	bra       N, 0x64c <__fbopReturnNaN>

000005d0 <return8>:
     5d0:	08 01 be    	mov.d     w8, w2

000005d2 <return2>:
     5d2:	02 00 be    	mov.d     w2, w0
     5d4:	37 00 37    	bra       0x644 <__fbopExit>

000005d6 <__fpack>:
     5d6:	81 00 20    	mov.w     #0x8, w1
     5d8:	61 80 55    	sub.w     w11, #0x1, w0
     5da:	0b 00 3d    	bra       GE, 0x5f2 <notsubnormal>
     5dc:	0b 00 20    	mov.w     #0x0, w11
     5de:	61 fe 2f    	mov.w     #0xffe6, w1
     5e0:	01 00 e1    	cp.w      w0, w1
     5e2:	1d 00 34    	bra       LE, 0x61e <zerosig>

000005e4 <subnormal>:
     5e4:	82 81 71    	ior.w     w3, w2, w3
     5e6:	61 01 64    	and.w     w8, #0x1, w2
     5e8:	89 04 d1    	lsr.w     w9, w9
     5ea:	08 84 d3    	rrc.w     w8, w8
     5ec:	00 00 e8    	inc.w     w0, w0
     5ee:	fa ff 3a    	bra       NZ, 0x5e4 <subnormal>
     5f0:	71 00 20    	mov.w     #0x7, w1

000005f2 <notsubnormal>:
     5f2:	61 00 64    	and.w     w8, #0x1, w0
     5f4:	03 00 70    	ior.w     w0, w3, w0
     5f6:	02 00 60    	and.w     w0, w2, w0
     5f8:	09 00 32    	bra       Z, 0x60c <packupandgo>
     5fa:	61 04 44    	add.w     w8, #0x1, w8
     5fc:	e0 84 4c    	addc.w    w9, #0x0, w9
     5fe:	09 88 a5    	btst.z    w9, w1
     600:	05 00 32    	bra       Z, 0x60c <packupandgo>
     602:	8b 05 e8    	inc.w     w11, w11
     604:	68 08 e1    	cp.w      w1, #0x8
     606:	02 00 3a    	bra       NZ, 0x60c <packupandgo>
     608:	89 04 d1    	lsr.w     w9, w9
     60a:	08 84 d3    	rrc.w     w8, w8

0000060c <packupandgo>:
     60c:	f2 0f 20    	mov.w     #0xff, w2
     60e:	02 58 e1    	cp.w      w11, w2
     610:	05 00 3d    	bra       GE, 0x61c <overflow>
     612:	c7 5d dd    	sl.w      w11, #0x7, w11
     614:	f9 07 b2    	and.w     #0x7f, w9
     616:	89 80 75    	ior.w     w11, w9, w1
     618:	08 00 78    	mov.w     w8, w0
     61a:	00 00 06    	return    

0000061c <overflow>:
     61c:	0b f8 27    	mov.w     #0x7f80, w11

0000061e <zerosig>:
     61e:	8b 00 78    	mov.w     w11, w1
     620:	00 00 05    	retlw.w   #0x0, w0

00000622 <__funpack2>:
     622:	00 04 be    	mov.d     w0, w8
     624:	31 00 07    	rcall     0x688 <__funpack>
     626:	00 03 be    	mov.d     w0, w6
     628:	04 05 be    	mov.d     w4, w10
     62a:	02 00 be    	mov.d     w2, w0
     62c:	2d 00 07    	rcall     0x688 <__funpack>
     62e:	84 4f 75    	ior.b     w10, w4, [w15]
     630:	00 00 06    	return    

00000632 <__fPropagateNaN>:
     632:	02 00 be    	mov.d     w2, w0
     634:	64 50 e1    	cp.w      w10, #0x4
     636:	05 00 36    	bra       LEU, 0x642 <return0>
     638:	64 20 e1    	cp.w      w4, #0x4
     63a:	02 00 36    	bra       LEU, 0x640 <return8>
     63c:	09 68 a3    	btst.z    w9, #0x6
     63e:	01 00 3a    	bra       NZ, 0x642 <return0>

00000640 <return8>:
     640:	08 00 be    	mov.d     w8, w0

00000642 <return0>:
     642:	01 60 a0    	bset.w    w1, #0x6

00000644 <__fbopExit>:
     644:	4f 06 78    	mov.w     [--w15], w12
     646:	4f 05 be    	mov.d     [--w15], w10
     648:	4f 04 be    	mov.d     [--w15], w8
     64a:	00 00 06    	return    

0000064c <__fbopReturnNaN>:
     64c:	f0 ff 2f    	mov.w     #0xffff, w0
     64e:	f1 ff 27    	mov.w     #0x7fff, w1
     650:	f9 ff 37    	bra       0x644 <__fbopExit>

00000652 <__fcompare>:
     652:	88 9f be    	mov.d     w8, [w15++]
     654:	8a 9f be    	mov.d     w10, [w15++]
     656:	84 1f 78    	mov.w     w4, [w15++]
     658:	e4 ff 07    	rcall     0x622 <__funpack2>
     65a:	4f 00 78    	mov.w     [--w15], w0
     65c:	11 00 33    	bra       N, 0x680 <exit>
     65e:	f0 ff 2f    	mov.w     #0xffff, w0
     660:	83 8f 6c    	xor.w     w9, w3, [w15]
     662:	06 00 3b    	bra       NN, 0x670 <comparemag>
     664:	04 05 65    	and.w     w10, w4, w10
     666:	0a 00 a7    	btsc.w    w10, #0x0
     668:	08 00 37    	bra       0x67a <returnEqual>
     66a:	09 f0 a6    	btss.w    w9, #0xf
     66c:	10 00 20    	mov.w     #0x1, w0
     66e:	08 00 37    	bra       0x680 <exit>

00000670 <comparemag>:
     670:	82 0f 54    	sub.w     w8, w2, [w15]
     672:	83 8f 5c    	subb.w    w9, w3, [w15]
     674:	03 00 39    	bra       NC, 0x67c <adjust>
     676:	10 00 20    	mov.w     #0x1, w0
     678:	01 00 3e    	bra       GTU, 0x67c <adjust>

0000067a <returnEqual>:
     67a:	00 00 20    	mov.w     #0x0, w0

0000067c <adjust>:
     67c:	09 f0 a7    	btsc.w    w9, #0xf
     67e:	00 00 ea    	neg.w     w0, w0

00000680 <exit>:
     680:	4f 05 be    	mov.d     [--w15], w10
     682:	4f 04 be    	mov.d     [--w15], w8
     684:	00 00 e0    	cp0.w     w0
     686:	00 00 06    	return    

00000688 <__funpack>:
     688:	c7 0a de    	lsr.w     w1, #0x7, w5
     68a:	f1 07 b2    	and.w     #0x7f, w1
     68c:	f5 0f b2    	and.w     #0xff, w5
     68e:	08 00 32    	bra       Z, 0x6a0 <zeroorsub>
     690:	e1 cf 42    	add.b     w5, #0x1, [w15]
     692:	02 00 32    	bra       Z, 0x698 <nanorinf>

00000694 <finitereturn>:
     694:	01 70 a0    	bset.w    w1, #0x7
     696:	24 00 05    	retlw.w   #0x2, w4

00000698 <nanorinf>:
     698:	81 0f 70    	ior.w     w0, w1, [w15]
     69a:	01 00 32    	bra       Z, 0x69e <infinite>
     69c:	04 08 05    	retlw.w   #0x80, w4

0000069e <infinite>:
     69e:	44 00 05    	retlw.w   #0x4, w4

000006a0 <zeroorsub>:
     6a0:	81 0f 70    	ior.w     w0, w1, [w15]
     6a2:	02 00 3a    	bra       NZ, 0x6a8 <subnormal>
     6a4:	14 00 05    	retlw.w   #0x1, w4

000006a6 <normalize>:
     6a6:	85 02 e9    	dec.w     w5, w5

000006a8 <subnormal>:
     6a8:	00 00 40    	add.w     w0, w0, w0
     6aa:	81 c0 48    	addc.b    w1, w1, w1
     6ac:	fc ff 3b    	bra       NN, 0x6a6 <normalize>
     6ae:	01 70 a0    	bset.w    w1, #0x7
     6b0:	24 00 05    	retlw.w   #0x2, w4

000006b2 <___muldf3>:
     6b2:	28 00 fa    	lnk       #0x28
     6b4:	88 9f be    	mov.d     w8, [w15++]
     6b6:	8a 9f be    	mov.d     w10, [w15++]
     6b8:	8c 9f be    	mov.d     w12, [w15++]
     6ba:	03 86 6b    	xor.w     w7, w3, w12
     6bc:	17 03 07    	rcall     0xcec <__dunpack2>
     6be:	00 28 a3    	btst.z    w0, #0x2
     6c0:	64 00 3a    	bra       NZ, 0x78a <aisinfinite>
     6c2:	01 28 a3    	btst.z    w1, #0x2
     6c4:	67 00 3a    	bra       NZ, 0x794 <bisinfinite>
     6c6:	00 08 a3    	btst.z    w0, #0x0
     6c8:	62 00 3a    	bra       NZ, 0x78e <returna>
     6ca:	01 08 a3    	btst.z    w1, #0x0
     6cc:	65 00 3a    	bra       NZ, 0x798 <returnb>
     6ce:	1e 00 90    	mov.w     [w14+2], w0
     6d0:	be 08 90    	mov.w     [w14+22], w1
     6d2:	81 06 40    	add.w     w0, w1, w13
     6d4:	ed 3f b1    	sub.w     #0x3fe, w13
     6d6:	f4 80 57    	sub.w     w15, #0x14, w1
     6d8:	ee 01 90    	mov.w     [w14+12], w3
     6da:	11 1a b8    	mul.uu    w3, [w1], w4
     6dc:	8e 09 90    	mov.w     [w14+16], w3
     6de:	31 1b b8    	mul.uu    w3, [w1++], w6
     6e0:	9e 09 90    	mov.w     [w14+18], w3
     6e2:	31 1c b8    	mul.uu    w3, [w1++], w8
     6e4:	51 1d b8    	mul.uu    w3, [++w1], w10
     6e6:	f4 85 57    	sub.w     w15, #0x14, w11
     6e8:	46 00 07    	rcall     0x776 <muladd7>
     6ea:	fe 01 90    	mov.w     [w14+14], w3
     6ec:	3a 00 07    	rcall     0x762 <muladd5>
     6ee:	8b 85 e8    	inc2.w    w11, w11
     6f0:	3e 00 07    	rcall     0x76e <muladd6>
     6f2:	8e 09 90    	mov.w     [w14+16], w3
     6f4:	40 00 07    	rcall     0x776 <muladd7>
     6f6:	ee 01 90    	mov.w     [w14+12], w3
     6f8:	34 00 07    	rcall     0x762 <muladd5>
     6fa:	8b 85 e8    	inc2.w    w11, w11
     6fc:	38 00 07    	rcall     0x76e <muladd6>
     6fe:	8e 09 90    	mov.w     [w14+16], w3
     700:	40 00 07    	rcall     0x782 <muladd8>
     702:	9e 09 90    	mov.w     [w14+18], w3
     704:	1b 18 b8    	mul.uu    w3, [w11], w0
     706:	89 04 40    	add.w     w0, w9, w9
     708:	0a 85 48    	addc.w    w1, w10, w10
     70a:	fe 01 90    	mov.w     [w14+14], w3
     70c:	34 00 07    	rcall     0x776 <muladd7>
     70e:	8b 85 e8    	inc2.w    w11, w11
     710:	38 00 07    	rcall     0x782 <muladd8>
     712:	ee 01 90    	mov.w     [w14+12], w3
     714:	30 00 07    	rcall     0x776 <muladd7>
     716:	8e 09 90    	mov.w     [w14+16], w3
     718:	1b 18 b8    	mul.uu    w3, [w11], w0
     71a:	89 04 40    	add.w     w0, w9, w9
     71c:	0a 85 48    	addc.w    w1, w10, w10
     71e:	0a 98 a3    	btst.z    w10, #0x9
     720:	08 00 3a    	bra       NZ, 0x732 <formsticky>
     722:	04 02 42    	add.w     w4, w4, w4
     724:	85 82 4a    	addc.w    w5, w5, w5
     726:	06 03 4b    	addc.w    w6, w6, w6
     728:	87 83 4b    	addc.w    w7, w7, w7
     72a:	08 04 4c    	addc.w    w8, w8, w8
     72c:	89 84 4c    	addc.w    w9, w9, w9
     72e:	0a 05 4d    	addc.w    w10, w10, w10
     730:	8d 06 e9    	dec.w     w13, w13

00000732 <formsticky>:
     732:	84 82 72    	ior.w     w5, w4, w5
     734:	85 02 73    	ior.w     w6, w5, w5
     736:	4c 3a dd    	sl.w      w7, #0xc, w4
     738:	85 02 72    	ior.w     w4, w5, w5
     73a:	01 00 32    	bra       Z, 0x73e <formRandSig>
     73c:	15 00 20    	mov.w     #0x1, w5

0000073e <formRandSig>:
     73e:	44 3a de    	lsr.w     w7, #0x4, w4
     740:	14 00 b2    	and.w     #0x1, w4
     742:	45 38 de    	lsr.w     w7, #0x5, w0
     744:	cb 45 dd    	sl.w      w8, #0xb, w11
     746:	0b 00 70    	ior.w     w0, w11, w0
     748:	c5 40 de    	lsr.w     w8, #0x5, w1
     74a:	cb 4d dd    	sl.w      w9, #0xb, w11
     74c:	8b 80 70    	ior.w     w1, w11, w1
     74e:	45 49 de    	lsr.w     w9, #0x5, w2
     750:	cb 55 dd    	sl.w      w10, #0xb, w11
     752:	0b 01 71    	ior.w     w2, w11, w2
     754:	c5 51 de    	lsr.w     w10, #0x5, w3
     756:	0d 03 78    	mov.w     w13, w6
     758:	e2 02 07    	rcall     0xd1e <__dpack>

0000075a <signoff>:
     75a:	03 f0 a1    	bclr.w    w3, #0xf
     75c:	0c f0 a7    	btsc.w    w12, #0xf
     75e:	03 f0 a0    	bset.w    w3, #0xf
     760:	d9 02 37    	bra       0xd14 <__dunpack2exit>

00000762 <muladd5>:
     762:	1b 18 b8    	mul.uu    w3, [w11], w0
     764:	85 02 40    	add.w     w0, w5, w5
     766:	06 83 48    	addc.w    w1, w6, w6
     768:	e0 83 4b    	addc.w    w7, #0x0, w7

0000076a <carry8>:
     76a:	60 04 4c    	addc.w    w8, #0x0, w8
     76c:	07 00 37    	bra       0x77c <carry9>

0000076e <muladd6>:
     76e:	1b 18 b8    	mul.uu    w3, [w11], w0
     770:	06 03 40    	add.w     w0, w6, w6
     772:	87 83 48    	addc.w    w1, w7, w7
     774:	fa ff 37    	bra       0x76a <carry8>

00000776 <muladd7>:
     776:	1b 18 b8    	mul.uu    w3, [w11], w0
     778:	87 03 40    	add.w     w0, w7, w7
     77a:	08 84 48    	addc.w    w1, w8, w8

0000077c <carry9>:
     77c:	e0 84 4c    	addc.w    w9, #0x0, w9

0000077e <carrya>:
     77e:	60 05 4d    	addc.w    w10, #0x0, w10
     780:	00 00 06    	return    

00000782 <muladd8>:
     782:	1b 18 b8    	mul.uu    w3, [w11], w0
     784:	08 04 40    	add.w     w0, w8, w8
     786:	89 84 48    	addc.w    w1, w9, w9
     788:	fa ff 37    	bra       0x77e <carrya>

0000078a <aisinfinite>:
     78a:	01 08 a3    	btst.z    w1, #0x0
     78c:	c0 02 3a    	bra       NZ, 0xd0e <__dreturnNaN>

0000078e <returna>:
     78e:	58 00 be    	mov.d     [++w8], w0
     790:	58 01 be    	mov.d     [++w8], w2
     792:	e3 ff 37    	bra       0x75a <signoff>

00000794 <bisinfinite>:
     794:	00 08 a3    	btst.z    w0, #0x0
     796:	bb 02 3a    	bra       NZ, 0xd0e <__dreturnNaN>

00000798 <returnb>:
     798:	09 04 78    	mov.w     w9, w8
     79a:	f9 ff 37    	bra       0x78e <returna>

0000079c <___extendsfdf2>:
     79c:	81 03 78    	mov.w     w1, w7
     79e:	74 ff 07    	rcall     0x688 <__funpack>
     7a0:	00 01 be    	mov.d     w0, w2
     7a2:	60 00 b8    	mul.uu    w0, #0x0, w0
     7a4:	04 78 a3    	btst.z    w4, #0x7
     7a6:	13 00 3a    	bra       NZ, 0x7ce <xIsNaN>
     7a8:	62 20 e1    	cp.w      w4, #0x2
     7aa:	15 00 3e    	bra       GTU, 0x7d6 <xIsInf>
     7ac:	0d 00 39    	bra       NC, 0x7c8 <signoff>
     7ae:	83 01 d1    	lsr.w     w3, w3
     7b0:	02 81 d3    	rrc.w     w2, w2
     7b2:	81 80 d3    	rrc.w     w1, w1
     7b4:	83 01 d1    	lsr.w     w3, w3
     7b6:	02 81 d3    	rrc.w     w2, w2
     7b8:	81 80 d3    	rrc.w     w1, w1
     7ba:	83 01 d1    	lsr.w     w3, w3
     7bc:	02 81 d3    	rrc.w     w2, w2
     7be:	81 80 d3    	rrc.w     w1, w1
     7c0:	05 38 b0    	add.w     #0x380, w5
     7c2:	c4 2a dd    	sl.w      w5, #0x4, w5
     7c4:	f3 00 b2    	and.w     #0xf, w3
     7c6:	83 81 72    	ior.w     w5, w3, w3

000007c8 <signoff>:
     7c8:	07 f0 a7    	btsc.w    w7, #0xf
     7ca:	03 f0 a0    	bset.w    w3, #0xf

000007cc <exit>:
     7cc:	00 00 06    	return    

000007ce <xIsNaN>:
     7ce:	f3 ff 27    	mov.w     #0x7fff, w3
     7d0:	f2 ff 2f    	mov.w     #0xffff, w2
     7d2:	61 10 b9    	mul.su    w2, #0x1, w0
     7d4:	fb ff 37    	bra       0x7cc <exit>

000007d6 <xIsInf>:
     7d6:	03 ff 27    	mov.w     #0x7ff0, w3
     7d8:	f7 ff 37    	bra       0x7c8 <signoff>

000007da <___eqdf2>:
     7da:	8f 1f d1    	lsr.w     w15, [w15++]
     7dc:	cc 02 07    	rcall     0xd76 <__dcompare>
     7de:	8f 87 e9    	dec2.w    w15, w15
     7e0:	00 00 e0    	cp0.w     w0
     7e2:	00 00 06    	return    

000007e4 <___nedf2>:
     7e4:	80 1f eb    	clr.w     [w15++]
     7e6:	c7 02 07    	rcall     0xd76 <__dcompare>
     7e8:	8f 87 e9    	dec2.w    w15, w15
     7ea:	00 00 e0    	cp0.w     w0
     7ec:	00 00 06    	return    

000007ee <___truncdfsf2>:
     7ee:	14 00 fa    	lnk       #0x14
     7f0:	88 9f be    	mov.d     w8, [w15++]
     7f2:	8a 9f be    	mov.d     w10, [w15++]
     7f4:	8c 9f be    	mov.d     w12, [w15++]
     7f6:	00 05 be    	mov.d     w0, w10
     7f8:	02 06 be    	mov.d     w2, w12
     7fa:	68 00 47    	add.w     w14, #0x8, w0
     7fc:	0c 90 be    	mov.d     w12, [w0--]
     7fe:	0a 90 be    	mov.d     w10, [w0--]
     800:	e3 02 07    	rcall     0xdc8 <__dunpack>
     802:	64 00 e1    	cp.w      w0, #0x4
     804:	1a 00 32    	bra       Z, 0x83a <xIsInf>
     806:	16 00 3e    	bra       GTU, 0x834 <xIsNaN>
     808:	61 00 e1    	cp.w      w0, #0x1
     80a:	1a 00 32    	bra       Z, 0x840 <xIsZero>
     80c:	6e 04 90    	mov.w     [w14+12], w8
     80e:	fe 04 90    	mov.w     [w14+14], w9
     810:	0e 0b 90    	mov.w     [w14+16], w6
     812:	9e 0b 90    	mov.w     [w14+18], w7
     814:	60 11 b8    	mul.uu    w2, #0x0, w2
     816:	9e 05 90    	mov.w     [w14+2], w11
     818:	0b 38 b1    	sub.w     #0x380, w11
     81a:	d5 01 20    	mov.w     #0x1d, w5

0000081c <align>:
     81c:	82 81 71    	ior.w     w3, w2, w3
     81e:	61 01 64    	and.w     w8, #0x1, w2
     820:	87 03 d1    	lsr.w     w7, w7
     822:	06 83 d3    	rrc.w     w6, w6
     824:	89 84 d3    	rrc.w     w9, w9
     826:	08 84 d3    	rrc.w     w8, w8
     828:	85 02 e9    	dec.w     w5, w5
     82a:	f8 ff 3a    	bra       NZ, 0x81c <align>
     82c:	d4 fe 07    	rcall     0x5d6 <__fpack>

0000082e <signoff>:
     82e:	0d f0 a7    	btsc.w    w13, #0xf
     830:	01 f0 a0    	bset.w    w1, #0xf

00000832 <exit>:
     832:	70 02 37    	bra       0xd14 <__dunpack2exit>

00000834 <xIsNaN>:
     834:	f1 ff 27    	mov.w     #0x7fff, w1
     836:	f0 ff 2f    	mov.w     #0xffff, w0
     838:	6d 02 37    	bra       0xd14 <__dunpack2exit>

0000083a <xIsInf>:
     83a:	01 f8 27    	mov.w     #0x7f80, w1
     83c:	00 00 20    	mov.w     #0x0, w0
     83e:	f7 ff 37    	bra       0x82e <signoff>

00000840 <xIsZero>:
     840:	60 00 b8    	mul.uu    w0, #0x0, w0
     842:	f5 ff 37    	bra       0x82e <signoff>

00000844 <_frexpf>:
     844:	e8 02 07    	rcall     0xe16 <__frexpf>
     846:	05 09 78    	mov.w     w5, [w2]
     848:	00 00 06    	return    

0000084a <___gedf2>:
     84a:	80 9f eb    	setm.w    [w15++]
     84c:	94 02 07    	rcall     0xd76 <__dcompare>
     84e:	8f 87 e9    	dec2.w    w15, w15
     850:	00 00 e0    	cp0.w     w0
     852:	00 00 06    	return    

00000854 <___adddf3>:
     854:	28 00 fa    	lnk       #0x28
     856:	88 9f be    	mov.d     w8, [w15++]
     858:	8a 9f be    	mov.d     w10, [w15++]
     85a:	8c 9f be    	mov.d     w12, [w15++]
     85c:	07 06 78    	mov.w     w7, w12
     85e:	87 86 69    	xor.w     w3, w7, w13
     860:	0c 00 3b    	bra       NN, 0x87a <gotsign>
     862:	03 04 78    	mov.w     w3, w8
     864:	87 04 78    	mov.w     w7, w9
     866:	08 f0 a1    	bclr.w    w8, #0xf
     868:	09 f0 a1    	bclr.w    w9, #0xf
     86a:	84 0f 50    	sub.w     w0, w4, [w15]
     86c:	85 8f 58    	subb.w    w1, w5, [w15]
     86e:	86 0f 59    	subb.w    w2, w6, [w15]
     870:	89 0f 5c    	subb.w    w8, w9, [w15]
     872:	03 00 33    	bra       N, 0x87a <gotsign>
     874:	0c f0 a2    	btg.w     w12, #0xf
     876:	01 00 3a    	bra       NZ, 0x87a <gotsign>
     878:	0c f0 a1    	bclr.w    w12, #0xf

0000087a <gotsign>:
     87a:	38 02 07    	rcall     0xcec <__dunpack2>
     87c:	64 00 e1    	cp.w      w0, #0x4
     87e:	5f 00 32    	bra       Z, 0x93e <aisinfinite>
     880:	78 01 47    	add.w     w14, #0x18, w2
     882:	64 08 e1    	cp.w      w1, #0x4
     884:	61 00 32    	bra       Z, 0x948 <returnab>
     886:	6c 01 47    	add.w     w14, #0xc, w2
     888:	74 85 57    	sub.w     w15, #0x14, w10
     88a:	32 00 be    	mov.d     [w2++], w0
     88c:	12 01 be    	mov.d     [w2], w2
     88e:	3a 04 be    	mov.d     [w10++], w8
     890:	1a 05 be    	mov.d     [w10], w10
     892:	1e 03 90    	mov.w     [w14+2], w6
     894:	be 0a 90    	mov.w     [w14+22], w5
     896:	85 03 53    	sub.w     w6, w5, w7
     898:	06 00 3d    	bra       GE, 0x8a6 <expcanonical>
     89a:	00 04 fd    	exch      w0, w8
     89c:	81 04 fd    	exch      w1, w9
     89e:	02 05 fd    	exch      w2, w10
     8a0:	83 05 fd    	exch      w3, w11
     8a2:	87 03 ea    	neg.w     w7, w7
     8a4:	05 03 78    	mov.w     w5, w6

000008a6 <expcanonical>:
     8a6:	0d f8 a3    	btst.z    w13, #0xf
     8a8:	04 00 32    	bra       Z, 0x8b2 <bcanonical>
     8aa:	60 04 14    	subr.w    w8, #0x0, w8
     8ac:	e0 84 1c    	subbr.w   w9, #0x0, w9
     8ae:	60 05 1d    	subbr.w   w10, #0x0, w10
     8b0:	e0 85 1d    	subbr.w   w11, #0x0, w11

000008b2 <bcanonical>:
     8b2:	60 22 b8    	mul.uu    w4, #0x0, w4
     8b4:	7d 03 20    	mov.w     #0x37, w13
     8b6:	0d 38 e1    	cp.w      w7, w13
     8b8:	80 06 eb    	clr.w     w13
     8ba:	0b 00 39    	bra       NC, 0x8d2 <aligniter>
     8bc:	44 33 dd    	sl.w      w6, #0x4, w6
     8be:	f3 00 b2    	and.w     #0xf, w3
     8c0:	83 01 73    	ior.w     w6, w3, w3
     8c2:	39 00 37    	bra       0x936 <signoff>

000008c4 <align>:
     8c4:	84 82 72    	ior.w     w5, w4, w5
     8c6:	0d 02 78    	mov.w     w13, w4
     8c8:	e1 06 64    	and.w     w8, #0x1, w13
     8ca:	8b 85 d1    	asr.w     w11, w11
     8cc:	0a 85 d3    	rrc.w     w10, w10
     8ce:	89 84 d3    	rrc.w     w9, w9
     8d0:	08 84 d3    	rrc.w     w8, w8

000008d2 <aligniter>:
     8d2:	87 03 e9    	dec.w     w7, w7
     8d4:	f7 ff 3b    	bra       NN, 0x8c4 <align>

000008d6 <aligned>:
     8d6:	08 00 40    	add.w     w0, w8, w0
     8d8:	89 80 48    	addc.w    w1, w9, w1
     8da:	0a 01 49    	addc.w    w2, w10, w2
     8dc:	8b 81 49    	addc.w    w3, w11, w3
     8de:	04 00 3b    	bra       NN, 0x8e8 <normalizesum>
     8e0:	60 00 10    	subr.w    w0, #0x0, w0
     8e2:	e0 80 18    	subbr.w   w1, #0x0, w1
     8e4:	60 01 19    	subbr.w   w2, #0x0, w2
     8e6:	e0 81 19    	subbr.w   w3, #0x0, w3

000008e8 <normalizesum>:
     8e8:	03 58 a3    	btst.z    w3, #0x5
     8ea:	09 00 32    	bra       Z, 0x8fe <checknormal>
     8ec:	8d 82 72    	ior.w     w5, w13, w5
     8ee:	84 82 72    	ior.w     w5, w4, w5
     8f0:	61 02 60    	and.w     w0, #0x1, w4
     8f2:	83 01 d1    	lsr.w     w3, w3
     8f4:	02 81 d3    	rrc.w     w2, w2
     8f6:	81 80 d3    	rrc.w     w1, w1
     8f8:	00 80 d3    	rrc.w     w0, w0
     8fa:	06 03 e8    	inc.w     w6, w6
     8fc:	1b 00 37    	bra       0x934 <round>

000008fe <checknormal>:
     8fe:	03 48 a3    	btst.z    w3, #0x4
     900:	17 00 3a    	bra       NZ, 0x930 <discardguard>

00000902 <underflow>:
     902:	06 00 e0    	cp0.w     w6
     904:	17 00 34    	bra       LE, 0x934 <round>
     906:	06 03 e9    	dec.w     w6, w6
     908:	0d 00 a3    	btst.c    w13, #0x0
     90a:	00 00 48    	addc.w    w0, w0, w0
     90c:	81 80 48    	addc.w    w1, w1, w1
     90e:	02 01 49    	addc.w    w2, w2, w2
     910:	83 81 49    	addc.w    w3, w3, w3
     912:	03 48 a3    	btst.z    w3, #0x4
     914:	0f 00 3a    	bra       NZ, 0x934 <round>

00000916 <normalizeloop>:
     916:	06 00 e0    	cp0.w     w6
     918:	09 00 34    	bra       LE, 0x92c <normalizeexit>
     91a:	06 03 e9    	dec.w     w6, w6
     91c:	00 00 40    	add.w     w0, w0, w0
     91e:	81 80 48    	addc.w    w1, w1, w1
     920:	02 01 49    	addc.w    w2, w2, w2
     922:	83 81 49    	addc.w    w3, w3, w3
     924:	01 00 3a    	bra       NZ, 0x928 <normalizeexpok>
     926:	00 03 eb    	clr.w     w6

00000928 <normalizeexpok>:
     928:	03 48 a3    	btst.z    w3, #0x4
     92a:	f5 ff 32    	bra       Z, 0x916 <normalizeloop>

0000092c <normalizeexit>:
     92c:	60 22 b8    	mul.uu    w4, #0x0, w4
     92e:	02 00 37    	bra       0x934 <round>

00000930 <discardguard>:
     930:	84 82 72    	ior.w     w5, w4, w5
     932:	61 82 66    	and.w     w13, #0x1, w4

00000934 <round>:
     934:	f4 01 07    	rcall     0xd1e <__dpack>

00000936 <signoff>:
     936:	03 f0 a1    	bclr.w    w3, #0xf
     938:	0c f0 a7    	btsc.w    w12, #0xf
     93a:	03 f0 a0    	bset.w    w3, #0xf
     93c:	eb 01 37    	bra       0xd14 <__dunpack2exit>

0000093e <aisinfinite>:
     93e:	64 01 47    	add.w     w14, #0x4, w2
     940:	64 08 e1    	cp.w      w1, #0x4
     942:	02 00 3a    	bra       NZ, 0x948 <returnab>
     944:	0d f8 a3    	btst.z    w13, #0xf
     946:	e3 01 3a    	bra       NZ, 0xd0e <__dreturnNaN>

00000948 <returnab>:
     948:	32 00 be    	mov.d     [w2++], w0
     94a:	12 01 be    	mov.d     [w2], w2
     94c:	e3 01 37    	bra       0xd14 <__dunpack2exit>

0000094e <___fixunsdfdi>:
     94e:	14 00 fa    	lnk       #0x14
     950:	88 9f be    	mov.d     w8, [w15++]
     952:	8a 9f be    	mov.d     w10, [w15++]
     954:	8c 9f be    	mov.d     w12, [w15++]
     956:	00 04 be    	mov.d     w0, w8
     958:	02 05 be    	mov.d     w2, w10
     95a:	68 00 47    	add.w     w14, #0x8, w0
     95c:	0a 90 be    	mov.d     w10, [w0--]
     95e:	08 90 be    	mov.d     w8, [w0--]
     960:	33 02 07    	rcall     0xdc8 <__dunpack>
     962:	00 70 a7    	btsc.w    w0, #0x7
     964:	0b f0 a1    	bclr.w    w11, #0xf
     966:	0b f8 a3    	btst.z    w11, #0xf
     968:	20 00 3a    	bra       NZ, 0x9aa <underflow>
     96a:	9e 09 90    	mov.w     [w14+18], w3
     96c:	0e 09 90    	mov.w     [w14+16], w2
     96e:	fe 00 90    	mov.w     [w14+14], w1
     970:	6e 00 90    	mov.w     [w14+12], w0
     972:	9e 02 90    	mov.w     [w14+2], w5
     974:	34 43 20    	mov.w     #0x433, w4
     976:	84 82 52    	sub.w     w5, w4, w5
     978:	cd 01 32    	bra       Z, 0xd14 <__dunpack2exit>
     97a:	0a 00 3c    	bra       GT, 0x990 <shiftleft>
     97c:	b4 fc 2f    	mov.w     #0xffcb, w4
     97e:	04 28 e1    	cp.w      w5, w4
     980:	14 00 34    	bra       LE, 0x9aa <underflow>

00000982 <shiftrightloop>:
     982:	83 01 d1    	lsr.w     w3, w3
     984:	02 81 d3    	rrc.w     w2, w2
     986:	81 80 d3    	rrc.w     w1, w1
     988:	00 80 d3    	rrc.w     w0, w0
     98a:	85 02 e8    	inc.w     w5, w5
     98c:	fa ff 3a    	bra       NZ, 0x982 <shiftrightloop>
     98e:	c2 01 37    	bra       0xd14 <__dunpack2exit>

00000990 <shiftleft>:
     990:	b4 00 20    	mov.w     #0xb, w4
     992:	04 28 e1    	cp.w      w5, w4
     994:	07 00 3c    	bra       GT, 0x9a4 <overflow>

00000996 <shiftleftloop>:
     996:	00 00 40    	add.w     w0, w0, w0
     998:	81 80 48    	addc.w    w1, w1, w1
     99a:	02 01 49    	addc.w    w2, w2, w2
     99c:	83 81 49    	addc.w    w3, w3, w3
     99e:	85 02 e9    	dec.w     w5, w5
     9a0:	fa ff 3a    	bra       NZ, 0x996 <shiftleftloop>
     9a2:	b8 01 37    	bra       0xd14 <__dunpack2exit>

000009a4 <overflow>:
     9a4:	03 00 28    	mov.w     #0x8000, w3
     9a6:	02 00 20    	mov.w     #0x0, w2
     9a8:	01 00 37    	bra       0x9ac <returnz>

000009aa <underflow>:
     9aa:	60 11 b8    	mul.uu    w2, #0x0, w2

000009ac <returnz>:
     9ac:	60 00 b8    	mul.uu    w0, #0x0, w0
     9ae:	b2 01 37    	bra       0xd14 <__dunpack2exit>

000009b0 <___divdf3>:
     9b0:	28 00 fa    	lnk       #0x28
     9b2:	88 9f be    	mov.d     w8, [w15++]
     9b4:	8a 9f be    	mov.d     w10, [w15++]
     9b6:	8c 9f be    	mov.d     w12, [w15++]
     9b8:	03 86 6b    	xor.w     w7, w3, w12
     9ba:	98 01 07    	rcall     0xcec <__dunpack2>
     9bc:	64 00 e1    	cp.w      w0, #0x4
     9be:	44 00 32    	bra       Z, 0xa48 <aisinfinite>
     9c0:	64 08 e1    	cp.w      w1, #0x4
     9c2:	4a 00 32    	bra       Z, 0xa58 <returnZero>
     9c4:	61 00 e1    	cp.w      w0, #0x1
     9c6:	46 00 32    	bra       Z, 0xa54 <aiszero>
     9c8:	61 08 e1    	cp.w      w1, #0x1
     9ca:	49 00 32    	bra       Z, 0xa5e <returnInf>

000009cc <finitenonzero>:
     9cc:	ec 06 47    	add.w     w14, #0xc, w13
     9ce:	60 00 b8    	mul.uu    w0, #0x0, w0
     9d0:	3d 02 be    	mov.d     [w13++], w4
     9d2:	3d 03 be    	mov.d     [w13++], w6
     9d4:	f4 86 57    	sub.w     w15, #0x14, w13
     9d6:	60 11 b8    	mul.uu    w2, #0x0, w2
     9d8:	3d 04 be    	mov.d     [w13++], w8
     9da:	3d 05 be    	mov.d     [w13++], w10
     9dc:	7d 03 20    	mov.w     #0x37, w13
     9de:	0b 00 37    	bra       0x9f6 <diventry>

000009e0 <divnext>:
     9e0:	00 00 a0    	bset.w    w0, #0x0
     9e2:	8d 06 e9    	dec.w     w13, w13
     9e4:	13 00 32    	bra       Z, 0xa0c <divdone>

000009e6 <divloop>:
     9e6:	04 02 42    	add.w     w4, w4, w4
     9e8:	85 82 4a    	addc.w    w5, w5, w5
     9ea:	06 03 4b    	addc.w    w6, w6, w6
     9ec:	87 83 4b    	addc.w    w7, w7, w7
     9ee:	00 00 40    	add.w     w0, w0, w0
     9f0:	81 80 48    	addc.w    w1, w1, w1
     9f2:	02 01 49    	addc.w    w2, w2, w2
     9f4:	83 81 49    	addc.w    w3, w3, w3

000009f6 <diventry>:
     9f6:	08 02 52    	sub.w     w4, w8, w4
     9f8:	89 82 5a    	subb.w    w5, w9, w5
     9fa:	0a 03 5b    	subb.w    w6, w10, w6
     9fc:	8b 83 5b    	subb.w    w7, w11, w7
     9fe:	f0 ff 3b    	bra       NN, 0x9e0 <divnext>
     a00:	08 02 42    	add.w     w4, w8, w4
     a02:	89 82 4a    	addc.w    w5, w9, w5
     a04:	0a 03 4b    	addc.w    w6, w10, w6
     a06:	8b 83 4b    	addc.w    w7, w11, w7
     a08:	8d 06 e9    	dec.w     w13, w13
     a0a:	ed ff 3a    	bra       NZ, 0x9e6 <divloop>

00000a0c <divdone>:
     a0c:	84 82 72    	ior.w     w5, w4, w5
     a0e:	86 82 72    	ior.w     w5, w6, w5
     a10:	f7 07 b2    	and.w     #0x7f, w7
     a12:	87 82 72    	ior.w     w5, w7, w5
     a14:	01 00 32    	bra       Z, 0xa18 <stickyformed>
     a16:	15 00 20    	mov.w     #0x1, w5

00000a18 <stickyformed>:
     a18:	1e 04 90    	mov.w     [w14+2], w8
     a1a:	3e 0b 90    	mov.w     [w14+22], w6
     a1c:	06 03 54    	sub.w     w8, w6, w6
     a1e:	e6 3f b0    	add.w     #0x3fe, w6
     a20:	03 68 a3    	btst.z    w3, #0x6
     a22:	07 00 32    	bra       Z, 0xa32 <guardused>
     a24:	00 00 a7    	btsc.w    w0, #0x0
     a26:	05 00 a0    	bset.w    w5, #0x0
     a28:	83 01 d1    	lsr.w     w3, w3
     a2a:	02 81 d3    	rrc.w     w2, w2
     a2c:	81 80 d3    	rrc.w     w1, w1
     a2e:	00 80 d3    	rrc.w     w0, w0
     a30:	06 03 e8    	inc.w     w6, w6

00000a32 <guardused>:
     a32:	83 01 d1    	lsr.w     w3, w3
     a34:	02 81 d3    	rrc.w     w2, w2
     a36:	81 80 d3    	rrc.w     w1, w1
     a38:	00 80 d3    	rrc.w     w0, w0
     a3a:	00 02 eb    	clr.w     w4
     a3c:	04 82 d2    	rlc.w     w4, w4
     a3e:	6f 01 07    	rcall     0xd1e <__dpack>

00000a40 <signoff>:
     a40:	03 f0 a1    	bclr.w    w3, #0xf
     a42:	0c f0 a7    	btsc.w    w12, #0xf
     a44:	03 f0 a0    	bset.w    w3, #0xf
     a46:	66 01 37    	bra       0xd14 <__dunpack2exit>

00000a48 <aisinfinite>:
     a48:	64 02 47    	add.w     w14, #0x4, w4
     a4a:	64 08 e1    	cp.w      w1, #0x4
     a4c:	60 01 32    	bra       Z, 0xd0e <__dreturnNaN>
     a4e:	34 00 be    	mov.d     [w4++], w0
     a50:	34 01 be    	mov.d     [w4++], w2
     a52:	f6 ff 37    	bra       0xa40 <signoff>

00000a54 <aiszero>:
     a54:	61 08 e1    	cp.w      w1, #0x1
     a56:	5b 01 32    	bra       Z, 0xd0e <__dreturnNaN>

00000a58 <returnZero>:
     a58:	60 11 b8    	mul.uu    w2, #0x0, w2

00000a5a <returnZeroLo>:
     a5a:	60 00 b8    	mul.uu    w0, #0x0, w0
     a5c:	f1 ff 37    	bra       0xa40 <signoff>

00000a5e <returnInf>:
     a5e:	03 ff 27    	mov.w     #0x7ff0, w3
     a60:	02 00 20    	mov.w     #0x0, w2
     a62:	fb ff 37    	bra       0xa5a <returnZeroLo>

00000a64 <___floatdidf>:
     a64:	88 9f be    	mov.d     w8, [w15++]
     a66:	83 04 78    	mov.w     w3, w9
     a68:	03 00 e0    	cp0.w     w3
     a6a:	2c 00 35    	bra       LT, 0xac4 <negative>
     a6c:	03 00 3c    	bra       GT, 0xa74 <notspecial>
     a6e:	00 82 70    	ior.w     w1, w0, w4
     a70:	04 02 71    	ior.w     w2, w4, w4
     a72:	26 00 32    	bra       Z, 0xac0 <return0>

00000a74 <notspecial>:
     a74:	36 43 20    	mov.w     #0x433, w6
     a76:	c5 00 20    	mov.w     #0xc, w5
     a78:	83 83 cf    	ff1l      w3, w7
     a7a:	0a 00 39    	bra       NC, 0xa90 <fixshift>
     a7c:	05 41 b1    	sub.b     #0x10, w5
     a7e:	82 83 cf    	ff1l      w2, w7
     a80:	07 00 39    	bra       NC, 0xa90 <fixshift>
     a82:	05 41 b1    	sub.b     #0x10, w5
     a84:	81 83 cf    	ff1l      w1, w7
     a86:	04 00 39    	bra       NC, 0xa90 <fixshift>
     a88:	05 41 b1    	sub.b     #0x10, w5
     a8a:	80 83 cf    	ff1l      w0, w7
     a8c:	01 00 39    	bra       NC, 0xa90 <fixshift>
     a8e:	05 41 b1    	sub.b     #0x10, w5

00000a90 <fixshift>:
     a90:	85 c3 53    	sub.b     w7, w5, w7
     a92:	60 22 b8    	mul.uu    w4, #0x0, w4
     a94:	12 00 32    	bra       Z, 0xaba <round>
     a96:	0a 00 3b    	bra       NN, 0xaac <shiftleft>

00000a98 <shiftright>:
     a98:	84 82 72    	ior.w     w5, w4, w5
     a9a:	61 02 60    	and.w     w0, #0x1, w4
     a9c:	83 01 d1    	lsr.w     w3, w3
     a9e:	02 81 d3    	rrc.w     w2, w2
     aa0:	81 80 d3    	rrc.w     w1, w1
     aa2:	00 80 d3    	rrc.w     w0, w0
     aa4:	06 03 e8    	inc.w     w6, w6
     aa6:	87 43 e8    	inc.b     w7, w7
     aa8:	f7 ff 3a    	bra       NZ, 0xa98 <shiftright>
     aaa:	07 00 37    	bra       0xaba <round>

00000aac <shiftleft>:
     aac:	00 00 40    	add.w     w0, w0, w0
     aae:	81 80 48    	addc.w    w1, w1, w1
     ab0:	02 01 49    	addc.w    w2, w2, w2
     ab2:	83 81 49    	addc.w    w3, w3, w3
     ab4:	06 03 e9    	dec.w     w6, w6
     ab6:	87 43 e9    	dec.b     w7, w7
     ab8:	f9 ff 3a    	bra       NZ, 0xaac <shiftleft>

00000aba <round>:
     aba:	31 01 07    	rcall     0xd1e <__dpack>
     abc:	09 f0 a7    	btsc.w    w9, #0xf
     abe:	03 f0 a0    	bset.w    w3, #0xf

00000ac0 <return0>:
     ac0:	4f 04 be    	mov.d     [--w15], w8
     ac2:	00 00 06    	return    

00000ac4 <negative>:
     ac4:	60 00 10    	subr.w    w0, #0x0, w0
     ac6:	e0 80 18    	subbr.w   w1, #0x0, w1
     ac8:	60 01 19    	subbr.w   w2, #0x0, w2
     aca:	e0 81 19    	subbr.w   w3, #0x0, w3
     acc:	d3 ff 3b    	bra       NN, 0xa74 <notspecial>
     ace:	03 3e 2c    	mov.w     #0xc3e0, w3
     ad0:	f7 ff 37    	bra       0xac0 <return0>

00000ad2 <___subdf3>:
     ad2:	07 f0 a2    	btg.w     w7, #0xf
     ad4:	bf fe 37    	bra       0x854 <___adddf3>

00000ad6 <___PplusBdi>:
     ad6:	88 1f 78    	mov.w     w8, [w15++]
     ad8:	00 04 78    	mov.w     w0, w8
     ada:	50 01 be    	mov.d     [++w0], w2
     adc:	40 00 be    	mov.d     [--w0], w0
     ade:	04 00 40    	add.w     w0, w4, w0
     ae0:	85 80 48    	addc.w    w1, w5, w1
     ae2:	06 01 49    	addc.w    w2, w6, w2
     ae4:	87 81 49    	addc.w    w3, w7, w3
     ae6:	00 9c be    	mov.d     w0, [w8++]
     ae8:	02 94 be    	mov.d     w2, [w8--]
     aea:	04 00 e1    	cp.w      w0, w4
     aec:	05 88 e1    	cpb.w     w1, w5
     aee:	06 90 e1    	cpb.w     w2, w6
     af0:	07 98 e1    	cpb.w     w3, w7
     af2:	02 00 31    	bra       C, 0xaf8 <.L4>
     af4:	68 00 44    	add.w     w8, #0x8, w0
     af6:	10 08 e8    	inc.w     [w0], [w0]

00000af8 <.L4>:
     af8:	4f 04 78    	mov.w     [--w15], w8
     afa:	00 00 06    	return    

00000afc <___udivmoddi3>:
     afc:	f4 87 47    	add.w     w15, #0x14, w15
     afe:	88 9f be    	mov.d     w8, [w15++]
     b00:	8a 9f be    	mov.d     w10, [w15++]
     b02:	8c 9f be    	mov.d     w12, [w15++]
     b04:	8e 1f 78    	mov.w     w14, [w15++]
     b06:	02 05 be    	mov.d     w2, w10
     b08:	00 04 be    	mov.d     w0, w8
     b0a:	d4 b7 9f    	mov.w     w4, [w15-22]
     b0c:	e5 b7 9f    	mov.w     w5, [w15-20]
     b0e:	f6 b7 9f    	mov.w     w6, [w15-18]
     b10:	87 bf 9f    	mov.w     w7, [w15-16]
     b12:	00 00 eb    	clr.w     w0
     b14:	c0 b7 9f    	mov.w     w0, [w15-24]
     b16:	b0 b7 9f    	mov.w     w0, [w15-26]
     b18:	a0 b7 9f    	mov.w     w0, [w15-28]
     b1a:	90 b7 9f    	mov.w     w0, [w15-30]
     b1c:	80 b7 9f    	mov.w     w0, [w15-32]
     b1e:	0d 04 20    	mov.w     #0x40, w13

00000b20 <.L6>:
     b20:	bf b0 97    	mov.w     [w15-26], w1
     b22:	4f b0 97    	mov.w     [w15-24], w0
     b24:	00 01 40    	add.w     w0, w0, w2
     b26:	00 00 e0    	cp0.w     w0
     b28:	0f 00 3d    	bra       GE, 0xb48 <.L7>
     b2a:	4f 08 de    	lsr.w     w1, #0xf, w0
     b2c:	00 00 71    	ior.w     w2, w0, w0
     b2e:	c0 b7 9f    	mov.w     w0, [w15-24]
     b30:	9e 00 07    	rcall     0xc6e <.LPA5>
     b32:	01 00 3d    	bra       GE, 0xb36 <.L10>
     b34:	12 00 20    	mov.w     #0x1, w2

00000b36 <.L10>:
     b36:	a1 00 07    	rcall     0xc7a <.LPA2>
     b38:	01 00 3d    	bra       GE, 0xb3c <.L11>
     b3a:	12 00 20    	mov.w     #0x1, w2

00000b3c <.L11>:
     b3c:	a6 00 07    	rcall     0xc8a <.LPA0>
     b3e:	b1 00 07    	rcall     0xca2 <.LPA6>
     b40:	b6 00 07    	rcall     0xcae <.LPA7>
     b42:	0f 00 40    	add.w     w0, w15, w0
     b44:	c8 ff 07    	rcall     0xad6 <___PplusBdi>
     b46:	22 00 37    	bra       0xb8c <.L14>

00000b48 <.L7>:
     b48:	4f 08 de    	lsr.w     w1, #0xf, w0
     b4a:	00 06 71    	ior.w     w2, w0, w12
     b4c:	cc b7 9f    	mov.w     w12, [w15-24]
     b4e:	8f 00 07    	rcall     0xc6e <.LPA5>
     b50:	01 00 3d    	bra       GE, 0xb54 <.L16>
     b52:	12 00 20    	mov.w     #0x1, w2

00000b54 <.L16>:
     b54:	92 00 07    	rcall     0xc7a <.LPA2>
     b56:	01 00 3d    	bra       GE, 0xb5a <.L17>
     b58:	12 00 20    	mov.w     #0x1, w2

00000b5a <.L17>:
     b5a:	97 00 07    	rcall     0xc8a <.LPA0>
     b5c:	a2 00 07    	rcall     0xca2 <.LPA6>
     b5e:	0f b2 97    	mov.w     [w15-32], w4
     b60:	9f b2 97    	mov.w     [w15-30], w5
     b62:	2f b3 97    	mov.w     [w15-28], w6
     b64:	bf b3 97    	mov.w     [w15-26], w7
     b66:	a9 00 07    	rcall     0xcba <.LPA9>
     b68:	00 00 52    	sub.w     w4, w0, w0
     b6a:	81 80 5a    	subb.w    w5, w1, w1
     b6c:	02 01 5b    	subb.w    w6, w2, w2
     b6e:	83 81 5b    	subb.w    w7, w3, w3
     b70:	80 b7 9f    	mov.w     w0, [w15-32]
     b72:	91 b7 9f    	mov.w     w1, [w15-30]
     b74:	a2 b7 9f    	mov.w     w2, [w15-28]
     b76:	b3 b7 9f    	mov.w     w3, [w15-26]
     b78:	00 07 eb    	clr.w     w14
     b7a:	9f 00 07    	rcall     0xcba <.LPA9>
     b7c:	00 20 e1    	cp.w      w4, w0
     b7e:	01 a8 e1    	cpb.w     w5, w1
     b80:	02 b0 e1    	cpb.w     w6, w2
     b82:	03 b8 e1    	cpb.w     w7, w3
     b84:	01 00 31    	bra       C, 0xb88 <.L20>
     b86:	1e 00 20    	mov.w     #0x1, w14

00000b88 <.L20>:
     b88:	0e 00 56    	sub.w     w12, w14, w0
     b8a:	c0 b7 9f    	mov.w     w0, [w15-24]

00000b8c <.L14>:
     b8c:	4f b2 97    	mov.w     [w15-24], w4
     b8e:	04 00 e0    	cp0.w     w4
     b90:	07 00 35    	bra       LT, 0xba0 <.L21>
     b92:	10 00 20    	mov.w     #0x1, w0
     b94:	01 00 20    	mov.w     #0x0, w1
     b96:	60 11 b8    	mul.uu    w2, #0x0, w2
     b98:	08 04 70    	ior.w     w0, w8, w8
     b9a:	89 84 70    	ior.w     w1, w9, w9
     b9c:	0a 05 71    	ior.w     w2, w10, w10
     b9e:	8b 85 71    	ior.w     w3, w11, w11

00000ba0 <.L21>:
     ba0:	8d 06 e9    	dec.w     w13, w13
     ba2:	be ff 3a    	bra       NZ, 0xb20 <.L6>
     ba4:	04 00 e0    	cp0.w     w4
     ba6:	03 00 3d    	bra       GE, 0xbae <.L24>
     ba8:	82 00 07    	rcall     0xcae <.LPA7>
     baa:	0f 00 40    	add.w     w0, w15, w0
     bac:	94 ff 07    	rcall     0xad6 <___PplusBdi>

00000bae <.L24>:
     bae:	4f a8 97    	mov.w     [w15-40], w0
     bb0:	00 00 e0    	cp0.w     w0
     bb2:	04 00 3a    	bra       NZ, 0xbbc <.L26>
     bb4:	0f b4 97    	mov.w     [w15-32], w8
     bb6:	9f b4 97    	mov.w     [w15-30], w9
     bb8:	2f b5 97    	mov.w     [w15-28], w10
     bba:	bf b5 97    	mov.w     [w15-26], w11

00000bbc <.L26>:
     bbc:	94 00 07    	rcall     0xce6 <.LPA11>
     bbe:	4f 07 78    	mov.w     [--w15], w14
     bc0:	4f 06 be    	mov.d     [--w15], w12
     bc2:	4f 05 be    	mov.d     [--w15], w10
     bc4:	4f 04 be    	mov.d     [--w15], w8
     bc6:	4f 01 b1    	sub.w     #0x14, w15
     bc8:	00 00 06    	return    

00000bca <___udivdi3>:
     bca:	88 1f 78    	mov.w     w8, [w15++]
     bcc:	18 00 20    	mov.w     #0x1, w8
     bce:	88 1f 78    	mov.w     w8, [w15++]
     bd0:	95 ff 07    	rcall     0xafc <___udivmoddi3>
     bd2:	8f 87 e9    	dec2.w    w15, w15
     bd4:	4f 04 78    	mov.w     [--w15], w8
     bd6:	00 00 06    	return    

00000bd8 <___umoddi3>:
     bd8:	80 1f eb    	clr.w     [w15++]
     bda:	90 ff 07    	rcall     0xafc <___udivmoddi3>
     bdc:	8f 87 e9    	dec2.w    w15, w15
     bde:	00 00 06    	return    

00000be0 <___divdi3>:
     be0:	88 9f be    	mov.d     w8, [w15++]
     be2:	8a 9f be    	mov.d     w10, [w15++]
     be4:	8c 1f 78    	mov.w     w12, [w15++]
     be6:	6e 00 07    	rcall     0xcc4 <.LPA3>
     be8:	07 00 3d    	bra       GE, 0xbf8 <.L36>
     bea:	73 00 07    	rcall     0xcd2 <.LPA1>
     bec:	e0 0f 5b    	subb.w    w6, #0x0, [w15]
     bee:	e0 8f 5b    	subb.w    w7, #0x0, [w15]
     bf0:	07 00 3d    	bra       GE, 0xc00 <.L40>
     bf2:	32 00 07    	rcall     0xc58 <.LPA10>
     bf4:	00 06 eb    	clr.w     w12
     bf6:	04 00 37    	bra       0xc00 <.L40>

00000bf8 <.L36>:
     bf8:	34 00 07    	rcall     0xc62 <.LPA8>
     bfa:	02 00 3d    	bra       GE, 0xc00 <.L40>
     bfc:	2a 00 07    	rcall     0xc52 <.LPA4>
     bfe:	1c 00 20    	mov.w     #0x1, w12

00000c00 <.L40>:
     c00:	72 00 07    	rcall     0xce6 <.LPA11>
     c02:	e3 ff 07    	rcall     0xbca <___udivdi3>
     c04:	02 03 be    	mov.d     w2, w6
     c06:	00 02 be    	mov.d     w0, w4
     c08:	0c 00 e0    	cp0.w     w12
     c0a:	01 00 32    	bra       Z, 0xc0e <.L43>
     c0c:	22 00 07    	rcall     0xc52 <.LPA4>

00000c0e <.L43>:
     c0e:	04 00 be    	mov.d     w4, w0
     c10:	06 01 be    	mov.d     w6, w2
     c12:	4f 06 78    	mov.w     [--w15], w12
     c14:	4f 05 be    	mov.d     [--w15], w10
     c16:	4f 04 be    	mov.d     [--w15], w8
     c18:	00 00 06    	return    

00000c1a <___moddi3>:
     c1a:	88 9f be    	mov.d     w8, [w15++]
     c1c:	8a 9f be    	mov.d     w10, [w15++]
     c1e:	8c 1f 78    	mov.w     w12, [w15++]
     c20:	51 00 07    	rcall     0xcc4 <.LPA3>
     c22:	05 00 3d    	bra       GE, 0xc2e <.L47>
     c24:	56 00 07    	rcall     0xcd2 <.LPA1>
     c26:	e0 0f 5b    	subb.w    w6, #0x0, [w15]
     c28:	e0 8f 5b    	subb.w    w7, #0x0, [w15]
     c2a:	06 00 3d    	bra       GE, 0xc38 <.L51>
     c2c:	04 00 37    	bra       0xc36 <.L57>

00000c2e <.L47>:
     c2e:	19 00 07    	rcall     0xc62 <.LPA8>
     c30:	03 00 3d    	bra       GE, 0xc38 <.L51>
     c32:	60 00 b8    	mul.uu    w0, #0x0, w0
     c34:	60 11 b8    	mul.uu    w2, #0x0, w2

00000c36 <.L57>:
     c36:	10 00 07    	rcall     0xc58 <.LPA10>

00000c38 <.L51>:
     c38:	56 00 07    	rcall     0xce6 <.LPA11>
     c3a:	ce ff 07    	rcall     0xbd8 <___umoddi3>
     c3c:	02 03 be    	mov.d     w2, w6
     c3e:	00 02 be    	mov.d     w0, w4
     c40:	0c 00 e0    	cp0.w     w12
     c42:	01 00 32    	bra       Z, 0xc46 <.L54>
     c44:	06 00 07    	rcall     0xc52 <.LPA4>

00000c46 <.L54>:
     c46:	04 00 be    	mov.d     w4, w0
     c48:	06 01 be    	mov.d     w6, w2
     c4a:	4f 06 78    	mov.w     [--w15], w12
     c4c:	4f 05 be    	mov.d     [--w15], w10
     c4e:	4f 04 be    	mov.d     [--w15], w8
     c50:	00 00 06    	return    

00000c52 <.LPA4>:
     c52:	60 00 b8    	mul.uu    w0, #0x0, w0
     c54:	60 11 b8    	mul.uu    w2, #0x0, w2
     c56:	00 00 37    	bra       0xc58 <.LPA10>

00000c58 <.LPA10>:
     c58:	04 02 50    	sub.w     w0, w4, w4
     c5a:	85 82 58    	subb.w    w1, w5, w5
     c5c:	06 03 59    	subb.w    w2, w6, w6
     c5e:	87 83 59    	subb.w    w3, w7, w7
     c60:	00 00 06    	return    

00000c62 <.LPA8>:
     c62:	00 06 eb    	clr.w     w12
     c64:	e0 0f 52    	sub.w     w4, #0x0, [w15]
     c66:	e0 8f 5a    	subb.w    w5, #0x0, [w15]
     c68:	e0 0f 5b    	subb.w    w6, #0x0, [w15]
     c6a:	e0 8f 5b    	subb.w    w7, #0x0, [w15]
     c6c:	00 00 06    	return    

00000c6e <.LPA5>:
     c6e:	01 80 40    	add.w     w1, w1, w0
     c70:	90 b7 9f    	mov.w     w0, [w15-30]
     c72:	00 01 eb    	clr.w     w2
     c74:	8f b0 97    	mov.w     [w15-32], w1
     c76:	01 00 e0    	cp0.w     w1
     c78:	00 00 06    	return    

00000c7a <.LPA2>:
     c7a:	02 00 70    	ior.w     w0, w2, w0
     c7c:	90 b7 9f    	mov.w     w0, [w15-30]
     c7e:	01 80 40    	add.w     w1, w1, w0
     c80:	80 b7 9f    	mov.w     w0, [w15-32]
     c82:	00 01 eb    	clr.w     w2
     c84:	ff a8 97    	mov.w     [w15-34], w1
     c86:	01 00 e0    	cp0.w     w1
     c88:	00 00 06    	return    

00000c8a <.LPA0>:
     c8a:	02 00 70    	ior.w     w0, w2, w0
     c8c:	80 b7 9f    	mov.w     w0, [w15-32]
     c8e:	01 80 40    	add.w     w1, w1, w0
     c90:	6f aa 97    	mov.w     [w15-36], w4
     c92:	cf 20 de    	lsr.w     w4, #0xf, w1
     c94:	01 00 70    	ior.w     w0, w1, w0
     c96:	f0 af 9f    	mov.w     w0, [w15-34]
     c98:	04 02 42    	add.w     w4, w4, w4
     c9a:	25 00 07    	rcall     0xce6 <.LPA11>
     c9c:	4f 18 de    	lsr.w     w3, #0xf, w0
     c9e:	00 02 72    	ior.w     w4, w0, w4
     ca0:	00 00 06    	return    

00000ca2 <.LPA6>:
     ca2:	e4 af 9f    	mov.w     w4, [w15-36]
     ca4:	08 04 44    	add.w     w8, w8, w8
     ca6:	89 84 4c    	addc.w    w9, w9, w9
     ca8:	0a 05 4d    	addc.w    w10, w10, w10
     caa:	8b 85 4d    	addc.w    w11, w11, w11
     cac:	00 00 06    	return    

00000cae <.LPA7>:
     cae:	3f b2 97    	mov.w     [w15-26], w4
     cb0:	cf b2 97    	mov.w     [w15-24], w5
     cb2:	5f b3 97    	mov.w     [w15-22], w6
     cb4:	ef b3 97    	mov.w     [w15-20], w7
     cb6:	00 fe 2f    	mov.w     #0xffe0, w0
     cb8:	00 00 06    	return    

00000cba <.LPA9>:
     cba:	3f b0 97    	mov.w     [w15-26], w0
     cbc:	cf b0 97    	mov.w     [w15-24], w1
     cbe:	5f b1 97    	mov.w     [w15-22], w2
     cc0:	ef b1 97    	mov.w     [w15-20], w3
     cc2:	00 00 06    	return    

00000cc4 <.LPA3>:
     cc4:	02 05 be    	mov.d     w2, w10
     cc6:	00 04 be    	mov.d     w0, w8
     cc8:	e0 0f 50    	sub.w     w0, #0x0, [w15]
     cca:	e0 8f 58    	subb.w    w1, #0x0, [w15]
     ccc:	e0 0f 59    	subb.w    w2, #0x0, [w15]
     cce:	e0 8f 59    	subb.w    w3, #0x0, [w15]
     cd0:	00 00 06    	return    

00000cd2 <.LPA1>:
     cd2:	60 00 b8    	mul.uu    w0, #0x0, w0
     cd4:	60 11 b8    	mul.uu    w2, #0x0, w2
     cd6:	08 04 50    	sub.w     w0, w8, w8
     cd8:	89 84 58    	subb.w    w1, w9, w9
     cda:	0a 05 59    	subb.w    w2, w10, w10
     cdc:	8b 85 59    	subb.w    w3, w11, w11
     cde:	1c 00 20    	mov.w     #0x1, w12
     ce0:	e0 0f 52    	sub.w     w4, #0x0, [w15]
     ce2:	e0 8f 5a    	subb.w    w5, #0x0, [w15]
     ce4:	00 00 06    	return    

00000ce6 <.LPA11>:
     ce6:	08 00 be    	mov.d     w8, w0
     ce8:	0a 01 be    	mov.d     w10, w2
     cea:	00 00 06    	return    

00000cec <__dunpack2>:
     cec:	68 04 47    	add.w     w14, #0x8, w8
     cee:	02 94 be    	mov.d     w2, [w8--]
     cf0:	00 94 be    	mov.d     w0, [w8--]
     cf2:	fc 04 47    	add.w     w14, #0x1c, w9
     cf4:	86 94 be    	mov.d     w6, [w9--]
     cf6:	84 94 be    	mov.d     w4, [w9--]
     cf8:	09 00 78    	mov.w     w9, w0
     cfa:	66 00 07    	rcall     0xdc8 <__dunpack>
     cfc:	08 00 78    	mov.w     w8, w0
     cfe:	64 00 07    	rcall     0xdc8 <__dunpack>
     d00:	99 00 78    	mov.w     [w9], w1
     d02:	81 4f 70    	ior.b     w0, w1, [w15]
     d04:	0b 00 3b    	bra       NN, 0xd1c <exit>

00000d06 <aorbIsNaN>:
     d06:	08 00 be    	mov.d     w8, w0
     d08:	93 00 07    	rcall     0xe30 <__dPropagateNaN>
     d0a:	4f 00 b1    	sub.w     #0x4, w15
     d0c:	03 00 37    	bra       0xd14 <__dunpack2exit>

00000d0e <__dreturnNaN>:
     d0e:	f3 ff 27    	mov.w     #0x7fff, w3
     d10:	f2 ff 2f    	mov.w     #0xffff, w2
     d12:	61 10 b9    	mul.su    w2, #0x1, w0

00000d14 <__dunpack2exit>:
     d14:	4f 06 be    	mov.d     [--w15], w12
     d16:	4f 05 be    	mov.d     [--w15], w10
     d18:	4f 04 be    	mov.d     [--w15], w8
     d1a:	00 80 fa    	ulnk      

00000d1c <exit>:
     d1c:	00 00 06    	return    

00000d1e <__dpack>:
     d1e:	18 00 20    	mov.w     #0x1, w8
     d20:	57 00 20    	mov.w     #0x5, w7
     d22:	08 04 53    	sub.w     w6, w8, w8
     d24:	0d 00 3d    	bra       GE, 0xd40 <notsubnormal>
     d26:	06 00 20    	mov.w     #0x0, w6
     d28:	97 fc 2f    	mov.w     #0xffc9, w7
     d2a:	07 40 e1    	cp.w      w8, w7
     d2c:	1e 00 34    	bra       LE, 0xd6a <zerosig>

00000d2e <subnormal>:
     d2e:	84 82 72    	ior.w     w5, w4, w5
     d30:	61 02 60    	and.w     w0, #0x1, w4
     d32:	83 01 d1    	lsr.w     w3, w3
     d34:	02 81 d3    	rrc.w     w2, w2
     d36:	81 80 d3    	rrc.w     w1, w1
     d38:	00 80 d3    	rrc.w     w0, w0
     d3a:	08 04 e8    	inc.w     w8, w8
     d3c:	f8 ff 3a    	bra       NZ, 0xd2e <subnormal>
     d3e:	47 00 20    	mov.w     #0x4, w7

00000d40 <notsubnormal>:
     d40:	61 04 60    	and.w     w0, #0x1, w8
     d42:	05 04 74    	ior.w     w8, w5, w8
     d44:	04 04 64    	and.w     w8, w4, w8
     d46:	0d 00 32    	bra       Z, 0xd62 <packupandgo>
     d48:	61 00 40    	add.w     w0, #0x1, w0
     d4a:	e0 80 48    	addc.w    w1, #0x0, w1
     d4c:	60 01 49    	addc.w    w2, #0x0, w2
     d4e:	e0 81 49    	addc.w    w3, #0x0, w3
     d50:	03 b8 a5    	btst.z    w3, w7
     d52:	07 00 32    	bra       Z, 0xd62 <packupandgo>
     d54:	06 03 e8    	inc.w     w6, w6
     d56:	65 38 e1    	cp.w      w7, #0x5
     d58:	04 00 3a    	bra       NZ, 0xd62 <packupandgo>
     d5a:	83 01 d1    	lsr.w     w3, w3
     d5c:	02 81 d3    	rrc.w     w2, w2
     d5e:	81 80 d3    	rrc.w     w1, w1
     d60:	00 80 d3    	rrc.w     w0, w0

00000d62 <packupandgo>:
     d62:	f8 7f 20    	mov.w     #0x7ff, w8
     d64:	08 30 e1    	cp.w      w6, w8
     d66:	03 00 35    	bra       LT, 0xd6e <nooverflow>
     d68:	08 03 78    	mov.w     w8, w6

00000d6a <zerosig>:
     d6a:	60 00 b8    	mul.uu    w0, #0x0, w0
     d6c:	60 11 b8    	mul.uu    w2, #0x0, w2

00000d6e <nooverflow>:
     d6e:	44 33 dd    	sl.w      w6, #0x4, w6
     d70:	f3 00 b2    	and.w     #0xf, w3
     d72:	83 01 73    	ior.w     w6, w3, w3
     d74:	00 00 06    	return    

00000d76 <__dcompare>:
     d76:	88 9f be    	mov.d     w8, [w15++]
     d78:	8a 9f be    	mov.d     w10, [w15++]
     d7a:	8c 9f be    	mov.d     w12, [w15++]
     d7c:	04 04 be    	mov.d     w4, w8
     d7e:	06 05 be    	mov.d     w6, w10
     d80:	80 9f be    	mov.d     w0, [w15++]
     d82:	82 9f be    	mov.d     w2, [w15++]
     d84:	63 00 07    	rcall     0xe4c <__dtype>
     d86:	04 06 78    	mov.w     w4, w12
     d88:	08 00 be    	mov.d     w8, w0
     d8a:	0a 01 be    	mov.d     w10, w2
     d8c:	5f 00 07    	rcall     0xe4c <__dtype>
     d8e:	84 06 78    	mov.w     w4, w13
     d90:	4f 03 be    	mov.d     [--w15], w6
     d92:	4f 02 be    	mov.d     [--w15], w4
     d94:	8d 4f 76    	ior.b     w12, w13, [w15]
     d96:	7f b0 97    	mov.w     [w15-18], w0
     d98:	13 00 33    	bra       N, 0xdc0 <exit>
     d9a:	f0 ff 2f    	mov.w     #0xffff, w0
     d9c:	8b 8f 6b    	xor.w     w7, w11, [w15]
     d9e:	06 00 3b    	bra       NN, 0xdac <comparemag>
     da0:	0d 06 66    	and.w     w12, w13, w12
     da2:	0c 00 a7    	btsc.w    w12, #0x0
     da4:	0a 00 37    	bra       0xdba <returnEqual>
     da6:	07 f0 a6    	btss.w    w7, #0xf
     da8:	10 00 20    	mov.w     #0x1, w0
     daa:	0a 00 37    	bra       0xdc0 <exit>

00000dac <comparemag>:
     dac:	88 0f 52    	sub.w     w4, w8, [w15]
     dae:	89 8f 5a    	subb.w    w5, w9, [w15]
     db0:	8a 0f 5b    	subb.w    w6, w10, [w15]
     db2:	8b 8f 5b    	subb.w    w7, w11, [w15]
     db4:	03 00 39    	bra       NC, 0xdbc <adjust>
     db6:	10 00 20    	mov.w     #0x1, w0
     db8:	01 00 3e    	bra       GTU, 0xdbc <adjust>

00000dba <returnEqual>:
     dba:	00 00 20    	mov.w     #0x0, w0

00000dbc <adjust>:
     dbc:	07 f0 a7    	btsc.w    w7, #0xf
     dbe:	00 00 ea    	neg.w     w0, w0

00000dc0 <exit>:
     dc0:	4f 06 be    	mov.d     [--w15], w12
     dc2:	4f 05 be    	mov.d     [--w15], w10
     dc4:	4f 04 be    	mov.d     [--w15], w8
     dc6:	00 00 06    	return    

00000dc8 <__dunpack>:
     dc8:	80 00 78    	mov.w     w0, w1
     dca:	50 02 be    	mov.d     [++w0], w4
     dcc:	50 03 be    	mov.d     [++w0], w6
     dce:	44 39 de    	lsr.w     w7, #0x4, w2
     dd0:	f7 00 b2    	and.w     #0xf, w7
     dd2:	f3 7f 20    	mov.w     #0x7ff, w3
     dd4:	03 01 61    	and.w     w2, w3, w2
     dd6:	09 00 32    	bra       Z, 0xdea <zeroorsub>
     dd8:	02 18 e1    	cp.w      w3, w2
     dda:	16 00 3a    	bra       NZ, 0xe08 <finitereturn>
     ddc:	85 01 72    	ior.w     w4, w5, w3
     dde:	83 01 73    	ior.w     w6, w3, w3
     de0:	83 81 73    	ior.w     w7, w3, w3
     de2:	00 08 20    	mov.w     #0x80, w0
     de4:	15 00 3a    	bra       NZ, 0xe10 <exit>
     de6:	40 00 20    	mov.w     #0x4, w0
     de8:	13 00 37    	bra       0xe10 <exit>

00000dea <zeroorsub>:
     dea:	85 01 72    	ior.w     w4, w5, w3
     dec:	83 01 73    	ior.w     w6, w3, w3
     dee:	83 81 73    	ior.w     w7, w3, w3
     df0:	05 00 3a    	bra       NZ, 0xdfc <subnormal>
     df2:	04 a8 be    	mov.d     w4, [++w0]
     df4:	06 a8 be    	mov.d     w6, [++w0]
     df6:	10 00 20    	mov.w     #0x1, w0
     df8:	0b 00 37    	bra       0xe10 <exit>

00000dfa <normalize>:
     dfa:	02 01 e9    	dec.w     w2, w2

00000dfc <subnormal>:
     dfc:	04 02 42    	add.w     w4, w4, w4
     dfe:	85 82 4a    	addc.w    w5, w5, w5
     e00:	06 03 4b    	addc.w    w6, w6, w6
     e02:	87 83 4b    	addc.w    w7, w7, w7
     e04:	07 48 a3    	btst.z    w7, #0x4
     e06:	f9 ff 32    	bra       Z, 0xdfa <normalize>

00000e08 <finitereturn>:
     e08:	07 40 a0    	bset.w    w7, #0x4
     e0a:	04 a8 be    	mov.d     w4, [++w0]
     e0c:	06 a8 be    	mov.d     w6, [++w0]
     e0e:	20 00 20    	mov.w     #0x2, w0

00000e10 <exit>:
     e10:	80 00 98    	mov.w     w0, [w1+0]
     e12:	92 00 98    	mov.w     w2, [w1+2]
     e14:	00 00 06    	return    

00000e16 <__frexpf>:
     e16:	00 03 be    	mov.d     w0, w6
     e18:	37 fc 07    	rcall     0x688 <__funpack>
     e1a:	62 20 e1    	cp.w      w4, #0x2
     e1c:	02 00 32    	bra       Z, 0xe22 <finite>
     e1e:	06 00 be    	mov.d     w6, w0
     e20:	05 00 05    	retlw.w   #0x0, w5

00000e22 <finite>:
     e22:	e5 07 b1    	sub.w     #0x7e, w5
     e24:	f1 07 b2    	and.w     #0x7f, w1
     e26:	04 f0 23    	mov.w     #0x3f00, w4
     e28:	84 80 70    	ior.w     w1, w4, w1
     e2a:	07 f0 a7    	btsc.w    w7, #0xf
     e2c:	01 f0 a0    	bset.w    w1, #0xf
     e2e:	24 00 05    	retlw.w   #0x2, w4

00000e30 <__dPropagateNaN>:
     e30:	e4 82 40    	add.w     w1, #0x4, w5
     e32:	10 78 a3    	btst.z    [w0], #0x7
     e34:	07 00 32    	bra       Z, 0xe44 <returnb>
     e36:	64 02 40    	add.w     w0, #0x4, w4
     e38:	11 78 a3    	btst.z    [w1], #0x7
     e3a:	34 00 be    	mov.d     [w4++], w0
     e3c:	14 01 be    	mov.d     [w4], w2
     e3e:	04 00 32    	bra       Z, 0xe48 <returnab>
     e40:	03 30 a7    	btsc.w    w3, #0x3
     e42:	00 00 06    	return    

00000e44 <returnb>:
     e44:	35 00 be    	mov.d     [w5++], w0
     e46:	15 01 be    	mov.d     [w5], w2

00000e48 <returnab>:
     e48:	03 30 a0    	bset.w    w3, #0x3
     e4a:	00 00 06    	return    

00000e4c <__dtype>:
     e4c:	05 ff 27    	mov.w     #0x7ff0, w5
     e4e:	05 82 61    	and.w     w3, w5, w4
     e50:	07 00 32    	bra       Z, 0xe60 <zeroorsub>
     e52:	04 28 e1    	cp.w      w5, w4
     e54:	01 00 32    	bra       Z, 0xe58 <NaNorInf>

00000e56 <isFinite>:
     e56:	24 00 05    	retlw.w   #0x2, w4

00000e58 <NaNorInf>:
     e58:	06 00 07    	rcall     0xe66 <checkfrac>
     e5a:	01 00 3a    	bra       NZ, 0xe5e <isNaN>
     e5c:	44 00 05    	retlw.w   #0x4, w4

00000e5e <isNaN>:
     e5e:	04 08 05    	retlw.w   #0x80, w4

00000e60 <zeroorsub>:
     e60:	02 00 07    	rcall     0xe66 <checkfrac>
     e62:	f9 ff 3a    	bra       NZ, 0xe56 <isFinite>
     e64:	14 00 05    	retlw.w   #0x1, w4

00000e66 <checkfrac>:
     e66:	6f 82 61    	and.w     w3, #0xf, w4
     e68:	81 02 70    	ior.w     w0, w1, w5
     e6a:	85 02 71    	ior.w     w2, w5, w5
     e6c:	85 02 72    	ior.w     w4, w5, w5
     e6e:	00 00 06    	return    

00000e70 <_memset>:
     e70:	80 01 eb    	clr.w     w3
     e72:	02 00 37    	bra       0xe78 <.L2>

00000e74 <.L3>:
     e74:	81 71 78    	mov.b     w1, [w3+w0]
     e76:	83 01 e8    	inc.w     w3, w3

00000e78 <.L2>:
     e78:	82 8f 51    	sub.w     w3, w2, [w15]
     e7a:	fc ff 3a    	bra       NZ, 0xe74 <.L3>
     e7c:	00 00 06    	return    

00000e7e <_memcpy>:
     e7e:	80 01 eb    	clr.w     w3
     e80:	02 00 37    	bra       0xe86 <.L2>

00000e82 <.L3>:
     e82:	61 f0 79    	mov.b     [w1+w3], [w0+w3]
     e84:	83 01 e8    	inc.w     w3, w3

00000e86 <.L2>:
     e86:	82 8f 51    	sub.w     w3, w2, [w15]
     e88:	fc ff 3a    	bra       NZ, 0xe82 <.L3>
     e8a:	00 00 06    	return    

00000e8c <__sprintf_cdfFnopuxX>:
     e8c:	0c 00 fa    	lnk       #0xc
     e8e:	88 9f be    	mov.d     w8, [w15++]
     e90:	00 04 78    	mov.w     w0, w8
     e92:	cf b0 97    	mov.w     [w15-24], w1
     e94:	f0 ff 27    	mov.w     #0x7fff, w0
     e96:	d0 bf 9f    	mov.w     w0, [w15-6]
     e98:	80 04 eb    	clr.w     w9
     e9a:	99 bf 9f    	mov.w     w9, [w15-14]
     e9c:	88 bf 9f    	mov.w     w8, [w15-16]
     e9e:	a8 bf 9f    	mov.w     w8, [w15-12]
     ea0:	20 0c 20    	mov.w     #0xc2, w0
     ea2:	b0 bf 9f    	mov.w     w0, [w15-10]
     ea4:	78 81 57    	sub.w     w15, #0x18, w2
     ea6:	70 80 57    	sub.w     w15, #0x10, w0
     ea8:	85 00 07    	rcall     0xfb4 <__vfprintf_cdfFnopuxX>
     eaa:	0f b8 97    	mov.w     [w15-16], w0
     eac:	09 48 78    	mov.b     w9, [w0]
     eae:	0f b8 97    	mov.w     [w15-16], w0
     eb0:	08 04 50    	sub.w     w0, w8, w8
     eb2:	08 00 78    	mov.w     w8, w0
     eb4:	4f 04 be    	mov.d     [--w15], w8
     eb6:	00 80 fa    	ulnk      
     eb8:	00 00 06    	return    

00000eba <_strlen>:
     eba:	80 00 78    	mov.w     w0, w1

00000ebc <.L2>:
     ebc:	30 04 e0    	cp0.b     [w0++]
     ebe:	fe ff 3a    	bra       NZ, 0xebc <.L2>
     ec0:	01 00 50    	sub.w     w0, w1, w0
     ec2:	00 00 e9    	dec.w     w0, w0
     ec4:	00 00 06    	return    

00000ec6 <_srand>:
     ec6:	01 00 20    	mov.w     #0x0, w1
     ec8:	50 8c 89    	mov.w     w0, 0x318a
     eca:	61 8c 89    	mov.w     w1, 0x318c
     ecc:	11 c0 b3    	mov.b     #0x1, w1
     ece:	80 18 23    	mov.w     #0x3188, w0
     ed0:	01 48 78    	mov.b     w1, [w0]
     ed2:	00 00 06    	return    

00000ed4 <_rand>:
     ed4:	82 18 23    	mov.w     #0x3188, w2
     ed6:	12 04 e0    	cp0.b     [w2]
     ed8:	06 00 3a    	bra       NZ, 0xee6 <.L4>
     eda:	10 00 20    	mov.w     #0x1, w0
     edc:	01 00 20    	mov.w     #0x0, w1
     ede:	50 8c 89    	mov.w     w0, 0x318a
     ee0:	61 8c 89    	mov.w     w1, 0x318c
     ee2:	10 c0 b3    	mov.b     #0x1, w0
     ee4:	00 49 78    	mov.b     w0, [w2]

00000ee6 <.L4>:
     ee6:	d2 e6 24    	mov.w     #0x4e6d, w2
     ee8:	63 1c 24    	mov.w     #0x41c6, w3
     eea:	50 8c 81    	mov.w     0x318a, w0
     eec:	61 8c 81    	mov.w     0x318c, w1
     eee:	3f fa 07    	rcall     0x36e <___mulp32eds3>
     ef0:	00 01 be    	mov.d     w0, w2
     ef2:	90 03 23    	mov.w     #0x3039, w0
     ef4:	01 00 20    	mov.w     #0x0, w1
     ef6:	02 00 40    	add.w     w0, w2, w0
     ef8:	83 80 48    	addc.w    w1, w3, w1
     efa:	50 8c 89    	mov.w     w0, 0x318a
     efc:	61 8c 89    	mov.w     w1, 0x318c
     efe:	40 88 de    	asr.w     w1, #0x0, w0
     f00:	cf 80 de    	asr.w     w0, #0xf, w1
     f02:	00 f0 a1    	bclr.w    w0, #0xf
     f04:	00 00 06    	return    

00000f06 <_scale>:
     f06:	88 9f be    	mov.d     w8, [w15++]
     f08:	8a 1f 78    	mov.w     w10, [w15++]
     f0a:	80 40 78    	mov.b     w0, w1
     f0c:	00 04 e0    	cp0.b     w0
     f0e:	21 00 3d    	bra       GE, 0xf52 <.L2>
     f10:	80 40 ea    	neg.b     w0, w1
     f12:	d0 c6 b3    	mov.b     #0x6d, w0
     f14:	80 cf 50    	sub.b     w1, w0, [w15]
     f16:	09 00 34    	bra       LE, 0xf2a <.L4>
     f18:	81 04 fb    	se        w1, w9
     f1a:	42 06 20    	mov.w     #0x64, w2
     f1c:	11 00 09    	repeat    #0x11
     f1e:	82 04 d8    	div.sw    w9, w2
     f20:	00 01 78    	mov.w     w0, w2
     f22:	01 00 78    	mov.w     w1, w0
     f24:	43 11 dd    	sl.w      w2, #0x3, w2
     f26:	ca e2 22    	mov.w     #0x2e2c, w10
     f28:	1f 00 37    	bra       0xf68 <.L15>

00000f2a <.L4>:
     f2a:	01 00 fb    	se        w1, w0
     f2c:	c3 e2 22    	mov.w     #0x2e2c, w3
     f2e:	39 00 37    	bra       0xfa2 <.L17>

00000f30 <.L16>:
     f30:	a2 00 20    	mov.w     #0xa, w2
     f32:	11 00 09    	repeat    #0x11
     f34:	02 00 d8    	div.sw    w0, w2
     f36:	00 01 78    	mov.w     w0, w2
     f38:	01 00 78    	mov.w     w1, w0
     f3a:	43 11 dd    	sl.w      w2, #0x3, w2
     f3c:	03 01 41    	add.w     w2, w3, w2
     f3e:	43 00 dd    	sl.w      w0, #0x3, w0
     f40:	03 00 40    	add.w     w0, w3, w0
     f42:	30 02 be    	mov.d     [w0++], w4
     f44:	20 03 be    	mov.d     [w0--], w6
     f46:	42 20 90    	mov.w     [w2+72], w0
     f48:	d2 20 90    	mov.w     [w2+74], w1
     f4a:	f2 21 90    	mov.w     [w2+78], w3
     f4c:	62 21 90    	mov.w     [w2+76], w2

00000f4e <.L14>:
     f4e:	b1 fb 07    	rcall     0x6b2 <___muldf3>
     f50:	2e 00 37    	bra       0xfae <.L6>

00000f52 <.L2>:
     f52:	d0 c6 b3    	mov.b     #0x6d, w0
     f54:	80 cf 50    	sub.b     w1, w0, [w15]
     f56:	23 00 34    	bra       LE, 0xf9e <.L9>
     f58:	81 04 fb    	se        w1, w9
     f5a:	42 06 20    	mov.w     #0x64, w2
     f5c:	11 00 09    	repeat    #0x11
     f5e:	82 04 d8    	div.sw    w9, w2
     f60:	00 01 78    	mov.w     w0, w2
     f62:	01 00 78    	mov.w     w1, w0
     f64:	43 11 dd    	sl.w      w2, #0x3, w2
     f66:	ca ed 22    	mov.w     #0x2edc, w10

00000f68 <.L15>:
     f68:	0a 01 41    	add.w     w2, w10, w2
     f6a:	a8 00 20    	mov.w     #0xa, w8
     f6c:	11 00 09    	repeat    #0x11
     f6e:	08 00 d8    	div.sw    w0, w8
     f70:	43 00 dd    	sl.w      w0, #0x3, w0
     f72:	0a 00 40    	add.w     w0, w10, w0
     f74:	40 22 90    	mov.w     [w0+72], w4
     f76:	d0 22 90    	mov.w     [w0+74], w5
     f78:	60 23 90    	mov.w     [w0+76], w6
     f7a:	f0 23 90    	mov.w     [w0+78], w7
     f7c:	02 88 90    	mov.w     [w2+144], w0
     f7e:	92 88 90    	mov.w     [w2+146], w1
     f80:	b2 89 90    	mov.w     [w2+150], w3
     f82:	22 89 90    	mov.w     [w2+148], w2
     f84:	96 fb 07    	rcall     0x6b2 <___muldf3>
     f86:	80 1f 78    	mov.w     w0, [w15++]
     f88:	01 02 78    	mov.w     w1, w4
     f8a:	11 00 09    	repeat    #0x11
     f8c:	88 04 d8    	div.sw    w9, w8
     f8e:	01 02 fd    	exch      w1, w4
     f90:	4f 00 78    	mov.w     [--w15], w0
     f92:	04 02 fb    	se        w4, w4
     f94:	43 22 dd    	sl.w      w4, #0x3, w4
     f96:	0a 02 42    	add.w     w4, w10, w4
     f98:	54 03 be    	mov.d     [++w4], w6
     f9a:	44 02 be    	mov.d     [--w4], w4
     f9c:	d8 ff 37    	bra       0xf4e <.L14>

00000f9e <.L9>:
     f9e:	01 00 fb    	se        w1, w0
     fa0:	c3 ed 22    	mov.w     #0x2edc, w3

00000fa2 <.L17>:
     fa2:	ea cf 50    	sub.b     w1, #0xa, [w15]
     fa4:	c5 ff 3c    	bra       GT, 0xf30 <.L16>
     fa6:	43 00 dd    	sl.w      w0, #0x3, w0
     fa8:	03 00 40    	add.w     w0, w3, w0
     faa:	50 01 be    	mov.d     [++w0], w2
     fac:	40 00 be    	mov.d     [--w0], w0

00000fae <.L6>:
     fae:	4f 05 78    	mov.w     [--w15], w10
     fb0:	4f 04 be    	mov.d     [--w15], w8
     fb2:	00 00 06    	return    

00000fb4 <__vfprintf_cdfFnopuxX>:
     fb4:	8f 03 b0    	add.w     #0x38, w15
     fb6:	88 9f be    	mov.d     w8, [w15++]
     fb8:	8a 9f be    	mov.d     w10, [w15++]
     fba:	8c 9f be    	mov.d     w12, [w15++]
     fbc:	8e 1f 78    	mov.w     w14, [w15++]
     fbe:	e0 b7 9f    	mov.w     w0, [w15-20]
     fc0:	f1 b7 9f    	mov.w     w1, [w15-18]
     fc2:	82 bf 9f    	mov.w     w2, [w15-16]
     fc4:	00 00 eb    	clr.w     w0
     fc6:	a0 b7 9f    	mov.w     w0, [w15-28]
     fc8:	e6 04 37    	bra       0x1996 <.L356>

00000fca <.L20>:
     fca:	80 01 eb    	clr.w     w3
     fcc:	50 c2 b3    	mov.b     #0x25, w0
     fce:	80 cf 50    	sub.b     w1, w0, [w15]
     fd0:	09 00 32    	bra       Z, 0xfe4 <.L353>
     fd2:	01 00 fb    	se        w1, w0
     fd4:	ef b0 97    	mov.w     [w15-20], w1
     fd6:	ec 04 07    	rcall     0x19b0 <_fputc>
     fd8:	e1 0f 40    	add.w     w0, #0x1, [w15]
     fda:	dd 04 32    	bra       Z, 0x1996 <.L356>
     fdc:	af b0 97    	mov.w     [w15-28], w1
     fde:	81 00 e8    	inc.w     w1, w1
     fe0:	a1 b7 9f    	mov.w     w1, [w15-28]
     fe2:	d9 04 37    	bra       0x1996 <.L356>

00000fe4 <.L353>:
     fe4:	7f b1 97    	mov.w     [w15-18], w2
     fe6:	92 40 78    	mov.b     [w2], w1
     fe8:	d0 c2 b3    	mov.b     #0x2d, w0
     fea:	80 cf 50    	sub.b     w1, w0, [w15]
     fec:	0c 00 32    	bra       Z, 0x1006 <.L28>
     fee:	07 00 3c    	bra       GT, 0xffe <.L30>
     ff0:	6d 40 50    	sub.b     w0, #0xd, w0
     ff2:	80 cf 50    	sub.b     w1, w0, [w15]
     ff4:	0d 00 32    	bra       Z, 0x1010 <.L26>
     ff6:	6b 40 40    	add.b     w0, #0xb, w0
     ff8:	80 cf 50    	sub.b     w1, w0, [w15]
     ffa:	19 00 3a    	bra       NZ, 0x102e <.L25>
     ffc:	0e 00 37    	bra       0x101a <.L27>

00000ffe <.L30>:
     ffe:	00 c3 b3    	mov.b     #0x30, w0
    1000:	80 cf 50    	sub.b     w1, w0, [w15]
    1002:	15 00 3a    	bra       NZ, 0x102e <.L25>
    1004:	0f 00 37    	bra       0x1024 <.L29>

00001006 <.L28>:
    1006:	03 30 a0    	bset.w    w3, #0x3
    1008:	7f b2 97    	mov.w     [w15-18], w4
    100a:	04 02 e8    	inc.w     w4, w4
    100c:	f4 b7 9f    	mov.w     w4, [w15-18]
    100e:	ea ff 37    	bra       0xfe4 <.L353>

00001010 <.L26>:
    1010:	03 00 a0    	bset.w    w3, #0x0
    1012:	ff b2 97    	mov.w     [w15-18], w5
    1014:	85 02 e8    	inc.w     w5, w5
    1016:	f5 b7 9f    	mov.w     w5, [w15-18]
    1018:	e5 ff 37    	bra       0xfe4 <.L353>

0000101a <.L27>:
    101a:	03 10 a0    	bset.w    w3, #0x1
    101c:	7f b6 97    	mov.w     [w15-18], w12
    101e:	0c 06 e8    	inc.w     w12, w12
    1020:	fc b7 9f    	mov.w     w12, [w15-18]
    1022:	e0 ff 37    	bra       0xfe4 <.L353>

00001024 <.L29>:
    1024:	03 20 a0    	bset.w    w3, #0x2
    1026:	7f b0 97    	mov.w     [w15-18], w0
    1028:	00 00 e8    	inc.w     w0, w0
    102a:	f0 b7 9f    	mov.w     w0, [w15-18]
    102c:	db ff 37    	bra       0xfe4 <.L353>

0000102e <.L25>:
    102e:	03 18 a3    	btst.z    w3, #0x1
    1030:	01 00 32    	bra       Z, 0x1034 <.L31>
    1032:	03 00 a1    	bclr.w    w3, #0x0

00001034 <.L31>:
    1034:	03 38 a3    	btst.z    w3, #0x3
    1036:	01 00 32    	bra       Z, 0x103a <.L33>
    1038:	03 20 a1    	bclr.w    w3, #0x2

0000103a <.L33>:
    103a:	01 00 fb    	se        w1, w0
    103c:	02 fd 2f    	mov.w     #0xffd0, w2
    103e:	02 00 40    	add.w     w0, w2, w0
    1040:	e9 0f 50    	sub.w     w0, #0x9, [w15]
    1042:	10 00 3e    	bra       GTU, 0x1064 <.L35>
    1044:	80 00 eb    	clr.w     w1
    1046:	c1 b7 9f    	mov.w     w1, [w15-24]
    1048:	02 02 78    	mov.w     w2, w4

0000104a <.L37>:
    104a:	4f b1 97    	mov.w     [w15-24], w2
    104c:	6a 10 b9    	mul.su    w2, #0xa, w0
    104e:	ff b2 97    	mov.w     [w15-18], w5
    1050:	15 01 fb    	se        [w5], w2
    1052:	00 01 41    	add.w     w2, w0, w2
    1054:	04 01 41    	add.w     w2, w4, w2
    1056:	c2 b7 9f    	mov.w     w2, [w15-24]
    1058:	55 00 fb    	se        [++w5], w0
    105a:	f5 b7 9f    	mov.w     w5, [w15-18]
    105c:	04 00 40    	add.w     w0, w4, w0
    105e:	e9 0f 50    	sub.w     w0, #0x9, [w15]
    1060:	0d 00 3e    	bra       GTU, 0x107c <.L38>
    1062:	f3 ff 37    	bra       0x104a <.L37>

00001064 <.L35>:
    1064:	00 06 eb    	clr.w     w12
    1066:	cc b7 9f    	mov.w     w12, [w15-24]
    1068:	a0 c2 b3    	mov.b     #0x2a, w0
    106a:	80 cf 50    	sub.b     w1, w0, [w15]
    106c:	07 00 3a    	bra       NZ, 0x107c <.L38>
    106e:	0f b8 97    	mov.w     [w15-16], w0
    1070:	c0 00 78    	mov.w     [--w0], w1
    1072:	80 bf 9f    	mov.w     w0, [w15-16]
    1074:	c1 b7 9f    	mov.w     w1, [w15-24]
    1076:	7f b1 97    	mov.w     [w15-18], w2
    1078:	02 01 e8    	inc.w     w2, w2
    107a:	f2 b7 9f    	mov.w     w2, [w15-18]

0000107c <.L38>:
    107c:	e0 c2 b3    	mov.b     #0x2e, w0
    107e:	7f b2 97    	mov.w     [w15-18], w4
    1080:	94 4f 10    	subr.b    w0, [w4], [w15]
    1082:	21 00 3a    	bra       NZ, 0x10c6 <.L41>
    1084:	83 06 78    	mov.w     w3, w13
    1086:	0d e0 a0    	bset.w    w13, #0xe
    1088:	84 00 e8    	inc.w     w4, w1
    108a:	64 40 50    	sub.b     w0, #0x4, w0
    108c:	91 4f 10    	subr.b    w0, [w1], [w15]
    108e:	04 00 32    	bra       Z, 0x1098 <.L43>
    1090:	f1 b7 9f    	mov.w     w1, [w15-18]
    1092:	80 02 eb    	clr.w     w5
    1094:	b5 b7 9f    	mov.w     w5, [w15-26]
    1096:	10 00 37    	bra       0x10b8 <.L45>

00001098 <.L43>:
    1098:	0f be 97    	mov.w     [w15-16], w12
    109a:	4c 00 78    	mov.w     [--w12], w0
    109c:	8c bf 9f    	mov.w     w12, [w15-16]
    109e:	b0 b7 9f    	mov.w     w0, [w15-26]
    10a0:	ff b0 97    	mov.w     [w15-18], w1
    10a2:	81 80 e8    	inc2.w    w1, w1
    10a4:	f1 b7 9f    	mov.w     w1, [w15-18]
    10a6:	13 00 37    	bra       0x10ce <.L329>

000010a8 <.L47>:
    10a8:	3f b2 97    	mov.w     [w15-26], w4
    10aa:	6a 20 b9    	mul.su    w4, #0xa, w0
    10ac:	00 00 41    	add.w     w2, w0, w0
    10ae:	03 00 40    	add.w     w0, w3, w0
    10b0:	b0 b7 9f    	mov.w     w0, [w15-26]
    10b2:	ff b2 97    	mov.w     [w15-18], w5
    10b4:	85 02 e8    	inc.w     w5, w5
    10b6:	f5 b7 9f    	mov.w     w5, [w15-18]

000010b8 <.L45>:
    10b8:	7f b6 97    	mov.w     [w15-18], w12
    10ba:	1c 01 fb    	se        [w12], w2
    10bc:	03 fd 2f    	mov.w     #0xffd0, w3
    10be:	03 00 41    	add.w     w2, w3, w0
    10c0:	e9 0f 50    	sub.w     w0, #0x9, [w15]
    10c2:	f2 ff 36    	bra       LEU, 0x10a8 <.L47>
    10c4:	04 00 37    	bra       0x10ce <.L329>

000010c6 <.L41>:
    10c6:	83 06 78    	mov.w     w3, w13
    10c8:	0d c0 a0    	bset.w    w13, #0xc
    10ca:	00 00 eb    	clr.w     w0
    10cc:	b0 b7 9f    	mov.w     w0, [w15-26]

000010ce <.L329>:
    10ce:	7f b1 97    	mov.w     [w15-18], w2
    10d0:	b2 40 78    	mov.b     [w2++], w1
    10d2:	f2 b7 9f    	mov.w     w2, [w15-18]
    10d4:	c1 7f 9f    	mov.b     w1, [w15-68]
    10d6:	c0 c6 b3    	mov.b     #0x6c, w0
    10d8:	80 cf 50    	sub.b     w1, w0, [w15]
    10da:	27 00 32    	bra       Z, 0x112a <.L54>
    10dc:	14 00 3c    	bra       GT, 0x1106 <.L59>
    10de:	68 40 50    	sub.b     w0, #0x8, w0
    10e0:	80 cf 50    	sub.b     w1, w0, [w15]
    10e2:	9d 00 32    	bra       Z, 0x121e <.L52>
    10e4:	09 00 3c    	bra       GT, 0x10f8 <.L60>
    10e6:	6c 40 50    	sub.b     w0, #0xc, w0
    10e8:	80 cf 50    	sub.b     w1, w0, [w15]
    10ea:	29 00 32    	bra       Z, 0x113e <.L50>
    10ec:	6b 40 40    	add.b     w0, #0xb, w0
    10ee:	80 cf 50    	sub.b     w1, w0, [w15]
    10f0:	72 00 32    	bra       Z, 0x11d6 <.L51>
    10f2:	01 04 e0    	cp0.b     w1
    10f4:	56 04 32    	bra       Z, 0x19a2 <.L49>
    10f6:	8e 00 37    	bra       0x1214 <.L48>

000010f8 <.L60>:
    10f8:	60 c6 b3    	mov.b     #0x66, w0
    10fa:	80 cf 50    	sub.b     w1, w0, [w15]
    10fc:	1c 00 32    	bra       Z, 0x1136 <.L53>
    10fe:	63 40 40    	add.b     w0, #0x3, w0
    1100:	80 cf 50    	sub.b     w1, w0, [w15]
    1102:	88 00 3a    	bra       NZ, 0x1214 <.L48>
    1104:	8c 00 37    	bra       0x121e <.L52>

00001106 <.L59>:
    1106:	30 c7 b3    	mov.b     #0x73, w0
    1108:	80 cf 50    	sub.b     w1, w0, [w15]
    110a:	1c 00 32    	bra       Z, 0x1144 <.L56>
    110c:	07 00 3c    	bra       GT, 0x111c <.L61>
    110e:	64 40 50    	sub.b     w0, #0x4, w0
    1110:	80 cf 50    	sub.b     w1, w0, [w15]
    1112:	13 00 32    	bra       Z, 0x113a <.L55>
    1114:	00 40 e8    	inc.b     w0, w0
    1116:	80 cf 50    	sub.b     w1, w0, [w15]
    1118:	7d 00 3a    	bra       NZ, 0x1214 <.L48>
    111a:	11 00 37    	bra       0x113e <.L50>

0000111c <.L61>:
    111c:	50 c7 b3    	mov.b     #0x75, w0
    111e:	80 cf 50    	sub.b     w1, w0, [w15]
    1120:	7d 00 32    	bra       Z, 0x121c <.L57>
    1122:	63 40 40    	add.b     w0, #0x3, w0
    1124:	80 cf 50    	sub.b     w1, w0, [w15]
    1126:	76 00 3a    	bra       NZ, 0x1214 <.L48>
    1128:	0b 00 37    	bra       0x1140 <.L58>

0000112a <.L54>:
    112a:	00 00 28    	mov.w     #0x8000, w0
    112c:	0d 48 a3    	btst.z    w13, #0x4
    112e:	01 00 3a    	bra       NZ, 0x1132 <.L64>
    1130:	00 01 20    	mov.w     #0x10, w0

00001132 <.L64>:
    1132:	80 86 76    	ior.w     w13, w0, w13
    1134:	cc ff 37    	bra       0x10ce <.L329>

00001136 <.L53>:
    1136:	0d a0 a0    	bset.w    w13, #0xa
    1138:	72 00 37    	bra       0x121e <.L52>

0000113a <.L55>:
    113a:	0d 60 a0    	bset.w    w13, #0x6
    113c:	70 00 37    	bra       0x121e <.L52>

0000113e <.L50>:
    113e:	0d 50 a0    	bset.w    w13, #0x5

00001140 <.L58>:
    1140:	0d 70 a0    	bset.w    w13, #0x7
    1142:	6d 00 37    	bra       0x121e <.L52>

00001144 <.L56>:
    1144:	8f b9 97    	mov.w     [w15-16], w3
    1146:	43 00 78    	mov.w     [--w3], w0
    1148:	83 bf 9f    	mov.w     w3, [w15-16]
    114a:	00 04 78    	mov.w     w0, w8
    114c:	00 00 e0    	cp0.w     w0
    114e:	01 00 3a    	bra       NZ, 0x1152 <.L65>
    1150:	c8 11 23    	mov.w     #0x311c, w8

00001152 <.L65>:
    1152:	80 04 eb    	clr.w     w9
    1154:	01 00 37    	bra       0x1158 <.L67>

00001156 <.L68>:
    1156:	81 04 e8    	inc.w     w1, w9

00001158 <.L67>:
    1158:	89 00 78    	mov.w     w9, w1
    115a:	08 80 44    	add.w     w9, w8, w0
    115c:	10 04 e0    	cp0.b     [w0]
    115e:	fb ff 3a    	bra       NZ, 0x1156 <.L68>

00001160 <.L69>:
    1160:	3f b2 97    	mov.w     [w15-26], w4
    1162:	04 00 e0    	cp0.w     w4
    1164:	03 00 32    	bra       Z, 0x116c <.L70>
    1166:	89 0f 52    	sub.w     w4, w9, [w15]
    1168:	01 00 31    	bra       C, 0x116c <.L70>
    116a:	84 04 78    	mov.w     w4, w9

0000116c <.L70>:
    116c:	00 07 eb    	clr.w     w14
    116e:	cf b2 97    	mov.w     [w15-24], w5
    1170:	89 8f 52    	sub.w     w5, w9, [w15]
    1172:	01 00 36    	bra       LEU, 0x1176 <.L75>
    1174:	09 87 52    	sub.w     w5, w9, w14

00001176 <.L75>:
    1176:	43 68 de    	lsr.w     w13, #0x3, w0
    1178:	e1 06 60    	and.w     w0, #0x1, w13
    117a:	19 00 3a    	bra       NZ, 0x11ae <.L354>
    117c:	0d 06 78    	mov.w     w13, w12
    117e:	09 00 37    	bra       0x1192 <.L78>

00001180 <.L79>:
    1180:	ef b0 97    	mov.w     [w15-20], w1
    1182:	00 02 20    	mov.w     #0x20, w0
    1184:	15 04 07    	rcall     0x19b0 <_fputc>
    1186:	e1 0f 40    	add.w     w0, #0x1, [w15]
    1188:	03 00 32    	bra       Z, 0x1190 <.L80>
    118a:	2f b0 97    	mov.w     [w15-28], w0
    118c:	00 00 e8    	inc.w     w0, w0
    118e:	a0 b7 9f    	mov.w     w0, [w15-28]

00001190 <.L80>:
    1190:	0c 06 e8    	inc.w     w12, w12

00001192 <.L78>:
    1192:	8e 0f 56    	sub.w     w12, w14, [w15]
    1194:	f5 ff 3a    	bra       NZ, 0x1180 <.L79>
    1196:	00 87 eb    	setm.w    w14
    1198:	0a 00 37    	bra       0x11ae <.L354>

0000119a <.L83>:
    119a:	88 00 78    	mov.w     w8, w1
    119c:	31 00 fb    	se        [w1++], w0
    119e:	01 04 78    	mov.w     w1, w8
    11a0:	ef b0 97    	mov.w     [w15-20], w1
    11a2:	06 04 07    	rcall     0x19b0 <_fputc>
    11a4:	e1 0f 40    	add.w     w0, #0x1, [w15]
    11a6:	03 00 32    	bra       Z, 0x11ae <.L354>
    11a8:	af b0 97    	mov.w     [w15-28], w1
    11aa:	81 00 e8    	inc.w     w1, w1
    11ac:	a1 b7 9f    	mov.w     w1, [w15-28]

000011ae <.L354>:
    11ae:	09 00 e9    	dec.w     w9, w0
    11b0:	80 04 78    	mov.w     w0, w9
    11b2:	e1 0f 40    	add.w     w0, #0x1, [w15]
    11b4:	f2 ff 3a    	bra       NZ, 0x119a <.L83>
    11b6:	00 06 eb    	clr.w     w12
    11b8:	0d 00 e0    	cp0.w     w13
    11ba:	0a 00 3a    	bra       NZ, 0x11d0 <.L87>
    11bc:	ec 03 37    	bra       0x1996 <.L356>

000011be <.L88>:
    11be:	ef b0 97    	mov.w     [w15-20], w1
    11c0:	00 02 20    	mov.w     #0x20, w0
    11c2:	f6 03 07    	rcall     0x19b0 <_fputc>
    11c4:	e1 0f 40    	add.w     w0, #0x1, [w15]
    11c6:	03 00 32    	bra       Z, 0x11ce <.L89>
    11c8:	2f b1 97    	mov.w     [w15-28], w2
    11ca:	02 01 e8    	inc.w     w2, w2
    11cc:	a2 b7 9f    	mov.w     w2, [w15-28]

000011ce <.L89>:
    11ce:	0c 06 e8    	inc.w     w12, w12

000011d0 <.L87>:
    11d0:	8e 0f 56    	sub.w     w12, w14, [w15]
    11d2:	f5 ff 3a    	bra       NZ, 0x11be <.L88>
    11d4:	e0 03 37    	bra       0x1996 <.L356>

000011d6 <.L51>:
    11d6:	8f b9 97    	mov.w     [w15-16], w3
    11d8:	43 00 78    	mov.w     [--w3], w0
    11da:	83 bf 9f    	mov.w     w3, [w15-16]
    11dc:	cf 80 de    	asr.w     w0, #0xf, w1
    11de:	01 01 78    	mov.w     w1, w2
    11e0:	82 01 78    	mov.w     w2, w3
    11e2:	02 05 be    	mov.d     w2, w10
    11e4:	00 04 be    	mov.d     w0, w8
    11e6:	02 03 be    	mov.d     w2, w6
    11e8:	00 02 be    	mov.d     w0, w4
    11ea:	48 22 de    	lsr.w     w4, #0x8, w4
    11ec:	48 2e dd    	sl.w      w5, #0x8, w12
    11ee:	04 02 76    	ior.w     w12, w4, w4
    11f0:	c4 7f 9f    	mov.b     w4, [w15-68]
    11f2:	0d 48 a3    	btst.z    w13, #0x4
    11f4:	0a 00 32    	bra       Z, 0x120a <.L91>
    11f6:	04 04 e0    	cp0.b     w4
    11f8:	08 00 32    	bra       Z, 0x120a <.L91>
    11fa:	e1 4f 42    	add.b     w4, #0x1, [w15]
    11fc:	06 00 32    	bra       Z, 0x120a <.L91>
    11fe:	d1 fb 2f    	mov.w     #0xffbd, w1
    1200:	01 80 47    	add.w     w15, w1, w0
    1202:	04 48 78    	mov.b     w4, [w0]
    1204:	18 40 98    	mov.b     w8, [w0+1]
    1206:	29 00 20    	mov.w     #0x2, w9
    1208:	02 00 37    	bra       0x120e <.L95>

0000120a <.L91>:
    120a:	d0 7f 9f    	mov.b     w0, [w15-67]
    120c:	19 00 20    	mov.w     #0x1, w9

0000120e <.L95>:
    120e:	d2 fb 2f    	mov.w     #0xffbd, w2
    1210:	02 84 47    	add.w     w15, w2, w8
    1212:	a6 ff 37    	bra       0x1160 <.L69>

00001214 <.L48>:
    1214:	c3 fb 2f    	mov.w     #0xffbc, w3
    1216:	03 84 47    	add.w     w15, w3, w8
    1218:	19 00 20    	mov.w     #0x1, w9
    121a:	a2 ff 37    	bra       0x1160 <.L69>

0000121c <.L57>:
    121c:	0d 0c b3    	ior.w     #0xc0, w13

0000121e <.L52>:
    121e:	00 70 20    	mov.w     #0x700, w0
    1220:	00 82 66    	and.w     w13, w0, w4
    1222:	27 02 32    	bra       Z, 0x1672 <.L96>
    1224:	0d c8 a3    	btst.z    w13, #0xc
    1226:	02 00 32    	bra       Z, 0x122c <.L98>
    1228:	64 00 20    	mov.w     #0x6, w4
    122a:	b4 b7 9f    	mov.w     w4, [w15-26]

0000122c <.L98>:
    122c:	0d 48 a3    	btst.z    w13, #0x4
    122e:	05 00 32    	bra       Z, 0x123a <.L100>
    1230:	0f ba 97    	mov.w     [w15-16], w4
    1232:	44 01 be    	mov.d     [--w4], w2
    1234:	44 00 be    	mov.d     [--w4], w0
    1236:	84 bf 9f    	mov.w     w4, [w15-16]
    1238:	04 00 37    	bra       0x1242 <.L343>

0000123a <.L100>:
    123a:	8f ba 97    	mov.w     [w15-16], w5
    123c:	45 00 be    	mov.d     [--w5], w0
    123e:	85 bf 9f    	mov.w     w5, [w15-16]
    1240:	ad fa 07    	rcall     0x79c <___extendsfdf2>

00001242 <.L343>:
    1242:	e0 af 9f    	mov.w     w0, [w15-36]
    1244:	f1 af 9f    	mov.w     w1, [w15-34]
    1246:	82 b7 9f    	mov.w     w2, [w15-32]
    1248:	93 b7 9f    	mov.w     w3, [w15-30]
    124a:	60 22 b8    	mul.uu    w4, #0x0, w4
    124c:	60 33 b8    	mul.uu    w6, #0x0, w6
    124e:	6f a8 97    	mov.w     [w15-36], w0
    1250:	ff a8 97    	mov.w     [w15-34], w1
    1252:	0f b1 97    	mov.w     [w15-32], w2
    1254:	9f b1 97    	mov.w     [w15-30], w3
    1256:	c1 fa 07    	rcall     0x7da <___eqdf2>
    1258:	00 00 e0    	cp0.w     w0
    125a:	0a 00 3d    	bra       GE, 0x1270 <.L103>
    125c:	6f a8 97    	mov.w     [w15-36], w0
    125e:	ff a8 97    	mov.w     [w15-34], w1
    1260:	0f b1 97    	mov.w     [w15-32], w2
    1262:	9f b1 97    	mov.w     [w15-30], w3
    1264:	03 f0 a2    	btg.w     w3, #0xf
    1266:	e0 af 9f    	mov.w     w0, [w15-36]
    1268:	f1 af 9f    	mov.w     w1, [w15-34]
    126a:	82 b7 9f    	mov.w     w2, [w15-32]
    126c:	93 b7 9f    	mov.w     w3, [w15-30]
    126e:	3d 00 b3    	ior.w     #0x3, w13

00001270 <.L103>:
    1270:	00 00 eb    	clr.w     w0
    1272:	80 a7 9f    	mov.w     w0, [w15-64]
    1274:	60 22 b8    	mul.uu    w4, #0x0, w4
    1276:	60 33 b8    	mul.uu    w6, #0x0, w6
    1278:	6f a8 97    	mov.w     [w15-36], w0
    127a:	ff a8 97    	mov.w     [w15-34], w1
    127c:	0f b1 97    	mov.w     [w15-32], w2
    127e:	9f b1 97    	mov.w     [w15-30], w3
    1280:	b1 fa 07    	rcall     0x7e4 <___nedf2>
    1282:	00 00 e0    	cp0.w     w0
    1284:	34 00 32    	bra       Z, 0x12ee <.L106>
    1286:	6f a8 97    	mov.w     [w15-36], w0
    1288:	ff a8 97    	mov.w     [w15-34], w1
    128a:	0f b1 97    	mov.w     [w15-32], w2
    128c:	9f b1 97    	mov.w     [w15-30], w3
    128e:	af fa 07    	rcall     0x7ee <___truncdfsf2>
    1290:	03 fc 2f    	mov.w     #0xffc0, w3
    1292:	03 81 47    	add.w     w15, w3, w2
    1294:	d7 fa 07    	rcall     0x844 <_frexpf>
    1296:	0f a0 97    	mov.w     [w15-64], w0
    1298:	00 00 e9    	dec.w     w0, w0
    129a:	63 00 b9    	mul.su    w0, #0x3, w0
    129c:	a2 00 20    	mov.w     #0xa, w2
    129e:	11 00 09    	repeat    #0x11
    12a0:	02 00 d8    	div.sw    w0, w2
    12a2:	80 00 fd    	exch      w0, w1
    12a4:	81 a7 9f    	mov.w     w1, [w15-64]
    12a6:	01 00 e0    	cp0.w     w1
    12a8:	02 00 3d    	bra       GE, 0x12ae <.L109>
    12aa:	01 00 e9    	dec.w     w1, w0
    12ac:	80 a7 9f    	mov.w     w0, [w15-64]

000012ae <.L109>:
    12ae:	0f a4 97    	mov.w     [w15-64], w8
    12b0:	08 40 ea    	neg.b     w8, w0
    12b2:	29 fe 07    	rcall     0xf06 <_scale>
    12b4:	6f aa 97    	mov.w     [w15-36], w4
    12b6:	ff aa 97    	mov.w     [w15-34], w5
    12b8:	0f b3 97    	mov.w     [w15-32], w6
    12ba:	9f b3 97    	mov.w     [w15-30], w7
    12bc:	fa f9 07    	rcall     0x6b2 <___muldf3>
    12be:	a0 af 9f    	mov.w     w0, [w15-44]
    12c0:	b1 af 9f    	mov.w     w1, [w15-42]
    12c2:	c2 af 9f    	mov.w     w2, [w15-40]
    12c4:	d3 af 9f    	mov.w     w3, [w15-38]
    12c6:	60 22 b8    	mul.uu    w4, #0x0, w4
    12c8:	06 00 20    	mov.w     #0x0, w6
    12ca:	07 ff 23    	mov.w     #0x3ff0, w7
    12cc:	86 fa 07    	rcall     0x7da <___eqdf2>
    12ce:	00 00 e0    	cp0.w     w0
    12d0:	02 00 3d    	bra       GE, 0x12d6 <.L111>
    12d2:	08 00 e9    	dec.w     w8, w0
    12d4:	0b 00 37    	bra       0x12ec <.L344>

000012d6 <.L111>:
    12d6:	60 22 b8    	mul.uu    w4, #0x0, w4
    12d8:	06 00 20    	mov.w     #0x0, w6
    12da:	47 02 24    	mov.w     #0x4024, w7
    12dc:	2f a8 97    	mov.w     [w15-44], w0
    12de:	bf a8 97    	mov.w     [w15-42], w1
    12e0:	4f a9 97    	mov.w     [w15-40], w2
    12e2:	df a9 97    	mov.w     [w15-38], w3
    12e4:	b2 fa 07    	rcall     0x84a <___gedf2>
    12e6:	00 00 e0    	cp0.w     w0
    12e8:	02 00 35    	bra       LT, 0x12ee <.L106>
    12ea:	08 00 e8    	inc.w     w8, w0

000012ec <.L344>:
    12ec:	80 a7 9f    	mov.w     w0, [w15-64]

000012ee <.L106>:
    12ee:	3f b2 97    	mov.w     [w15-26], w4
    12f0:	f8 0f 52    	sub.w     w4, #0x18, [w15]
    12f2:	57 00 3c    	bra       GT, 0x13a2 <.L116>
    12f4:	d0 c6 b3    	mov.b     #0x6d, w0
    12f6:	80 4f 52    	sub.b     w4, w0, [w15]
    12f8:	29 00 36    	bra       LEU, 0x134c <.L118>
    12fa:	04 85 fb    	ze        w4, w10
    12fc:	42 06 20    	mov.w     #0x64, w2
    12fe:	11 00 09    	repeat    #0x11
    1300:	02 85 d8    	div.uw    w10, w2
    1302:	00 01 78    	mov.w     w0, w2
    1304:	01 04 78    	mov.w     w1, w8
    1306:	43 11 dd    	sl.w      w2, #0x3, w2
    1308:	cb e2 22    	mov.w     #0x2e2c, w11
    130a:	0b 01 41    	add.w     w2, w11, w2
    130c:	60 22 b8    	mul.uu    w4, #0x0, w4
    130e:	06 00 20    	mov.w     #0x0, w6
    1310:	07 fe 23    	mov.w     #0x3fe0, w7
    1312:	02 88 90    	mov.w     [w2+144], w0
    1314:	92 88 90    	mov.w     [w2+146], w1
    1316:	b2 89 90    	mov.w     [w2+150], w3
    1318:	22 89 90    	mov.w     [w2+148], w2
    131a:	cb f9 07    	rcall     0x6b2 <___muldf3>
    131c:	a9 00 20    	mov.w     #0xa, w9
    131e:	80 9f be    	mov.d     w0, [w15++]
    1320:	11 00 09    	repeat    #0x11
    1322:	09 84 d8    	div.uw    w8, w9
    1324:	00 04 78    	mov.w     w0, w8
    1326:	4f 00 be    	mov.d     [--w15], w0
    1328:	43 44 dd    	sl.w      w8, #0x3, w8
    132a:	0b 04 44    	add.w     w8, w11, w8
    132c:	48 22 90    	mov.w     [w8+72], w4
    132e:	d8 22 90    	mov.w     [w8+74], w5
    1330:	68 23 90    	mov.w     [w8+76], w6
    1332:	f8 23 90    	mov.w     [w8+78], w7
    1334:	be f9 07    	rcall     0x6b2 <___muldf3>
    1336:	80 1f 78    	mov.w     w0, [w15++]
    1338:	01 02 78    	mov.w     w1, w4
    133a:	11 00 09    	repeat    #0x11
    133c:	09 85 d8    	div.uw    w10, w9
    133e:	01 02 fd    	exch      w1, w4
    1340:	4f 00 78    	mov.w     [--w15], w0
    1342:	43 22 dd    	sl.w      w4, #0x3, w4
    1344:	0b 02 42    	add.w     w4, w11, w4
    1346:	54 03 be    	mov.d     [++w4], w6
    1348:	44 02 be    	mov.d     [--w4], w4
    134a:	1f 00 37    	bra       0x138a <.L345>

0000134c <.L118>:
    134c:	04 80 fb    	ze        w4, w0
    134e:	c9 e2 22    	mov.w     #0x2e2c, w9
    1350:	ea 4f 52    	sub.b     w4, #0xa, [w15]
    1352:	14 00 36    	bra       LEU, 0x137c <.L121>
    1354:	a2 00 20    	mov.w     #0xa, w2
    1356:	11 00 09    	repeat    #0x11
    1358:	02 80 d8    	div.uw    w0, w2
    135a:	00 01 78    	mov.w     w0, w2
    135c:	01 04 78    	mov.w     w1, w8
    135e:	43 11 dd    	sl.w      w2, #0x3, w2
    1360:	09 01 41    	add.w     w2, w9, w2
    1362:	60 22 b8    	mul.uu    w4, #0x0, w4
    1364:	06 00 20    	mov.w     #0x0, w6
    1366:	07 fe 23    	mov.w     #0x3fe0, w7
    1368:	42 20 90    	mov.w     [w2+72], w0
    136a:	d2 20 90    	mov.w     [w2+74], w1
    136c:	f2 21 90    	mov.w     [w2+78], w3
    136e:	62 21 90    	mov.w     [w2+76], w2
    1370:	a0 f9 07    	rcall     0x6b2 <___muldf3>
    1372:	43 44 dd    	sl.w      w8, #0x3, w8
    1374:	09 04 44    	add.w     w8, w9, w8
    1376:	38 02 be    	mov.d     [w8++], w4
    1378:	28 03 be    	mov.d     [w8--], w6
    137a:	07 00 37    	bra       0x138a <.L345>

0000137c <.L121>:
    137c:	43 00 dd    	sl.w      w0, #0x3, w0
    137e:	09 00 40    	add.w     w0, w9, w0
    1380:	60 22 b8    	mul.uu    w4, #0x0, w4
    1382:	06 00 20    	mov.w     #0x0, w6
    1384:	07 fe 23    	mov.w     #0x3fe0, w7
    1386:	50 01 be    	mov.d     [++w0], w2
    1388:	40 00 be    	mov.d     [--w0], w0

0000138a <.L345>:
    138a:	93 f9 07    	rcall     0x6b2 <___muldf3>
    138c:	00 02 be    	mov.d     w0, w4
    138e:	02 03 be    	mov.d     w2, w6
    1390:	6f a8 97    	mov.w     [w15-36], w0
    1392:	ff a8 97    	mov.w     [w15-34], w1
    1394:	0f b1 97    	mov.w     [w15-32], w2
    1396:	9f b1 97    	mov.w     [w15-30], w3
    1398:	5d fa 07    	rcall     0x854 <___adddf3>
    139a:	e0 af 9f    	mov.w     w0, [w15-36]
    139c:	f1 af 9f    	mov.w     w1, [w15-34]
    139e:	82 b7 9f    	mov.w     w2, [w15-32]
    13a0:	93 b7 9f    	mov.w     w3, [w15-30]

000013a2 <.L116>:
    13a2:	0f a4 97    	mov.w     [w15-64], w8
    13a4:	e9 0f 54    	sub.w     w8, #0x9, [w15]
    13a6:	15 00 3c    	bra       GT, 0x13d2 <.L123>
    13a8:	60 22 b8    	mul.uu    w4, #0x0, w4
    13aa:	60 33 b8    	mul.uu    w6, #0x0, w6
    13ac:	6f a8 97    	mov.w     [w15-36], w0
    13ae:	ff a8 97    	mov.w     [w15-34], w1
    13b0:	0f b1 97    	mov.w     [w15-32], w2
    13b2:	9f b1 97    	mov.w     [w15-30], w3
    13b4:	17 fa 07    	rcall     0x7e4 <___nedf2>
    13b6:	00 00 e0    	cp0.w     w0
    13b8:	32 00 32    	bra       Z, 0x141e <.L125>
    13ba:	6f a8 97    	mov.w     [w15-36], w0
    13bc:	ff a8 97    	mov.w     [w15-34], w1
    13be:	0f b1 97    	mov.w     [w15-32], w2
    13c0:	9f b1 97    	mov.w     [w15-30], w3
    13c2:	c5 fa 07    	rcall     0x94e <___fixunsdfdi>
    13c4:	e0 0f 50    	sub.w     w0, #0x0, [w15]
    13c6:	e0 8f 58    	subb.w    w1, #0x0, [w15]
    13c8:	e0 0f 59    	subb.w    w2, #0x0, [w15]
    13ca:	e0 8f 59    	subb.w    w3, #0x0, [w15]
    13cc:	28 00 3a    	bra       NZ, 0x141e <.L125>
    13ce:	e1 0f 54    	sub.w     w8, #0x1, [w15]
    13d0:	26 00 34    	bra       LE, 0x141e <.L125>

000013d2 <.L123>:
    13d2:	04 00 20    	mov.w     #0x0, w4
    13d4:	05 00 2e    	mov.w     #0xe000, w5
    13d6:	b6 e0 22    	mov.w     #0x2e0b, w6
    13d8:	17 01 24    	mov.w     #0x4011, w7
    13da:	2f a8 97    	mov.w     [w15-44], w0
    13dc:	bf a8 97    	mov.w     [w15-42], w1
    13de:	4f a9 97    	mov.w     [w15-40], w2
    13e0:	df a9 97    	mov.w     [w15-38], w3
    13e2:	fb f9 07    	rcall     0x7da <___eqdf2>
    13e4:	00 00 e0    	cp0.w     w0
    13e6:	02 00 3d    	bra       GE, 0x13ec <.L129>
    13e8:	73 00 54    	sub.w     w8, #0x13, w0
    13ea:	01 00 37    	bra       0x13ee <.L346>

000013ec <.L129>:
    13ec:	72 00 54    	sub.w     w8, #0x12, w0

000013ee <.L346>:
    13ee:	80 a7 9f    	mov.w     w0, [w15-64]
    13f0:	0f c0 97    	mov.b     [w15-64], w0
    13f2:	89 fd 07    	rcall     0xf06 <_scale>
    13f4:	a0 af 9f    	mov.w     w0, [w15-44]
    13f6:	b1 af 9f    	mov.w     w1, [w15-42]
    13f8:	c2 af 9f    	mov.w     w2, [w15-40]
    13fa:	d3 af 9f    	mov.w     w3, [w15-38]
    13fc:	00 02 be    	mov.d     w0, w4
    13fe:	02 03 be    	mov.d     w2, w6
    1400:	6f a8 97    	mov.w     [w15-36], w0
    1402:	ff a8 97    	mov.w     [w15-34], w1
    1404:	0f b1 97    	mov.w     [w15-32], w2
    1406:	9f b1 97    	mov.w     [w15-30], w3
    1408:	d3 fa 07    	rcall     0x9b0 <___divdf3>
    140a:	a1 fa 07    	rcall     0x94e <___fixunsdfdi>
    140c:	02 05 be    	mov.d     w2, w10
    140e:	00 04 be    	mov.d     w0, w8
    1410:	60 00 b8    	mul.uu    w0, #0x0, w0
    1412:	60 11 b8    	mul.uu    w2, #0x0, w2
    1414:	a0 a7 9f    	mov.w     w0, [w15-60]
    1416:	b1 a7 9f    	mov.w     w1, [w15-58]
    1418:	c2 a7 9f    	mov.w     w2, [w15-56]
    141a:	d3 a7 9f    	mov.w     w3, [w15-54]
    141c:	2e 00 37    	bra       0x147a <.L133>

0000141e <.L125>:
    141e:	6f a8 97    	mov.w     [w15-36], w0
    1420:	ff a8 97    	mov.w     [w15-34], w1
    1422:	0f b1 97    	mov.w     [w15-32], w2
    1424:	9f b1 97    	mov.w     [w15-30], w3
    1426:	93 fa 07    	rcall     0x94e <___fixunsdfdi>
    1428:	02 05 be    	mov.d     w2, w10
    142a:	00 04 be    	mov.d     w0, w8
    142c:	e0 0f 50    	sub.w     w0, #0x0, [w15]
    142e:	e0 8f 58    	subb.w    w1, #0x0, [w15]
    1430:	e0 0f 59    	subb.w    w2, #0x0, [w15]
    1432:	e0 8f 59    	subb.w    w3, #0x0, [w15]
    1434:	02 00 35    	bra       LT, 0x143a <.L135>
    1436:	16 fb 07    	rcall     0xa64 <___floatdidf>
    1438:	13 00 37    	bra       0x1460 <.L347>

0000143a <.L135>:
    143a:	10 00 20    	mov.w     #0x1, w0
    143c:	01 00 20    	mov.w     #0x0, w1
    143e:	60 11 b8    	mul.uu    w2, #0x0, w2
    1440:	08 00 60    	and.w     w0, w8, w0
    1442:	89 80 60    	and.w     w1, w9, w1
    1444:	0a 01 61    	and.w     w2, w10, w2
    1446:	8b 81 61    	and.w     w3, w11, w3
    1448:	8b 03 d1    	lsr.w     w11, w7
    144a:	0a 83 d3    	rrc.w     w10, w6
    144c:	89 82 d3    	rrc.w     w9, w5
    144e:	08 82 d3    	rrc.w     w8, w4
    1450:	00 00 72    	ior.w     w4, w0, w0
    1452:	81 80 72    	ior.w     w5, w1, w1
    1454:	02 01 73    	ior.w     w6, w2, w2
    1456:	83 81 73    	ior.w     w7, w3, w3
    1458:	05 fb 07    	rcall     0xa64 <___floatdidf>
    145a:	00 02 be    	mov.d     w0, w4
    145c:	02 03 be    	mov.d     w2, w6
    145e:	fa f9 07    	rcall     0x854 <___adddf3>

00001460 <.L347>:
    1460:	00 02 be    	mov.d     w0, w4
    1462:	02 03 be    	mov.d     w2, w6
    1464:	6f a8 97    	mov.w     [w15-36], w0
    1466:	ff a8 97    	mov.w     [w15-34], w1
    1468:	0f b1 97    	mov.w     [w15-32], w2
    146a:	9f b1 97    	mov.w     [w15-30], w3
    146c:	32 fb 07    	rcall     0xad2 <___subdf3>
    146e:	a0 a7 9f    	mov.w     w0, [w15-60]
    1470:	b1 a7 9f    	mov.w     w1, [w15-58]
    1472:	c2 a7 9f    	mov.w     w2, [w15-56]
    1474:	d3 a7 9f    	mov.w     w3, [w15-54]
    1476:	00 00 eb    	clr.w     w0
    1478:	80 a7 9f    	mov.w     w0, [w15-64]

0000147a <.L133>:
    147a:	14 c0 b3    	mov.b     #0x1, w4
    147c:	c5 07 23    	mov.w     #0x307c, w5
    147e:	0b 00 37    	bra       0x1496 <.L136>

00001480 <.L137>:
    1480:	04 00 fb    	se        w4, w0
    1482:	43 00 dd    	sl.w      w0, #0x3, w0
    1484:	05 00 40    	add.w     w0, w5, w0
    1486:	50 01 be    	mov.d     [++w0], w2
    1488:	40 00 be    	mov.d     [--w0], w0
    148a:	00 40 e1    	cp.w      w8, w0
    148c:	01 c8 e1    	cpb.w     w9, w1
    148e:	02 d0 e1    	cpb.w     w10, w2
    1490:	03 d8 e1    	cpb.w     w11, w3
    1492:	03 00 39    	bra       NC, 0x149a <.L348>
    1494:	04 42 e8    	inc.b     w4, w4

00001496 <.L136>:
    1496:	f4 4f 52    	sub.b     w4, #0x14, [w15]
    1498:	f3 ff 3a    	bra       NZ, 0x1480 <.L137>

0000149a <.L348>:
    149a:	c4 7f 9f    	mov.b     w4, [w15-68]
    149c:	04 00 fb    	se        w4, w0
    149e:	bf b0 97    	mov.w     [w15-26], w1
    14a0:	00 80 40    	add.w     w1, w0, w0
    14a2:	8f a0 97    	mov.w     [w15-64], w1
    14a4:	01 00 40    	add.w     w0, w1, w0
    14a6:	4f b1 97    	mov.w     [w15-24], w2
    14a8:	00 07 51    	sub.w     w2, w0, w14
    14aa:	bf b1 97    	mov.w     [w15-26], w3
    14ac:	03 00 e0    	cp0.w     w3
    14ae:	01 00 32    	bra       Z, 0x14b2 <.L142>
    14b0:	0e 07 e9    	dec.w     w14, w14

000014b2 <.L142>:
    14b2:	63 80 66    	and.w     w13, #0x3, w0
    14b4:	01 00 32    	bra       Z, 0x14b8 <.L144>
    14b6:	0e 07 e9    	dec.w     w14, w14

000014b8 <.L144>:
    14b8:	0d 28 a3    	btst.z    w13, #0x2
    14ba:	26 00 32    	bra       Z, 0x1508 <.L146>
    14bc:	e1 80 66    	and.w     w13, #0x1, w1
    14be:	0d 18 a3    	btst.z    w13, #0x1
    14c0:	0c 00 32    	bra       Z, 0x14da <.L148>
    14c2:	d0 02 20    	mov.w     #0x2d, w0
    14c4:	01 00 e0    	cp0.w     w1
    14c6:	01 00 3a    	bra       NZ, 0x14ca <.L152>
    14c8:	00 80 e9    	dec2.w    w0, w0

000014ca <.L152>:
    14ca:	ef b0 97    	mov.w     [w15-20], w1
    14cc:	71 02 07    	rcall     0x19b0 <_fputc>
    14ce:	e1 0f 40    	add.w     w0, #0x1, [w15]
    14d0:	18 00 32    	bra       Z, 0x1502 <.L331>
    14d2:	2f b2 97    	mov.w     [w15-28], w4
    14d4:	04 02 e8    	inc.w     w4, w4
    14d6:	a4 b7 9f    	mov.w     w4, [w15-28]
    14d8:	14 00 37    	bra       0x1502 <.L331>

000014da <.L148>:
    14da:	01 00 e0    	cp0.w     w1
    14dc:	12 00 32    	bra       Z, 0x1502 <.L331>
    14de:	ef b0 97    	mov.w     [w15-20], w1
    14e0:	00 02 20    	mov.w     #0x20, w0
    14e2:	66 02 07    	rcall     0x19b0 <_fputc>
    14e4:	e1 0f 40    	add.w     w0, #0x1, [w15]
    14e6:	0d 00 32    	bra       Z, 0x1502 <.L331>
    14e8:	af b2 97    	mov.w     [w15-28], w5
    14ea:	85 02 e8    	inc.w     w5, w5
    14ec:	a5 b7 9f    	mov.w     w5, [w15-28]
    14ee:	09 00 37    	bra       0x1502 <.L331>

000014f0 <.L157>:
    14f0:	ef b0 97    	mov.w     [w15-20], w1
    14f2:	00 03 20    	mov.w     #0x30, w0
    14f4:	5d 02 07    	rcall     0x19b0 <_fputc>
    14f6:	e1 0f 40    	add.w     w0, #0x1, [w15]
    14f8:	03 00 32    	bra       Z, 0x1500 <.L158>
    14fa:	2f b6 97    	mov.w     [w15-28], w12
    14fc:	0c 06 e8    	inc.w     w12, w12
    14fe:	ac b7 9f    	mov.w     w12, [w15-28]

00001500 <.L158>:
    1500:	0e 07 e9    	dec.w     w14, w14

00001502 <.L331>:
    1502:	0e 00 e0    	cp0.w     w14
    1504:	f5 ff 3c    	bra       GT, 0x14f0 <.L157>
    1506:	3d 00 37    	bra       0x1582 <.L355>

00001508 <.L146>:
    1508:	0d 38 a3    	btst.z    w13, #0x3
    150a:	0a 00 32    	bra       Z, 0x1520 <.L332>
    150c:	0b 00 37    	bra       0x1524 <.L162>

0000150e <.L163>:
    150e:	ef b0 97    	mov.w     [w15-20], w1
    1510:	00 02 20    	mov.w     #0x20, w0
    1512:	4e 02 07    	rcall     0x19b0 <_fputc>
    1514:	e1 0f 40    	add.w     w0, #0x1, [w15]
    1516:	03 00 32    	bra       Z, 0x151e <.L164>
    1518:	2f b0 97    	mov.w     [w15-28], w0
    151a:	00 00 e8    	inc.w     w0, w0
    151c:	a0 b7 9f    	mov.w     w0, [w15-28]

0000151e <.L164>:
    151e:	0e 07 e9    	dec.w     w14, w14

00001520 <.L332>:
    1520:	0e 00 e0    	cp0.w     w14
    1522:	f5 ff 3c    	bra       GT, 0x150e <.L163>

00001524 <.L162>:
    1524:	e1 80 66    	and.w     w13, #0x1, w1
    1526:	0d 18 a3    	btst.z    w13, #0x1
    1528:	0c 00 32    	bra       Z, 0x1542 <.L166>
    152a:	d0 02 20    	mov.w     #0x2d, w0
    152c:	01 00 e0    	cp0.w     w1
    152e:	01 00 3a    	bra       NZ, 0x1532 <.L170>
    1530:	00 80 e9    	dec2.w    w0, w0

00001532 <.L170>:
    1532:	ef b0 97    	mov.w     [w15-20], w1
    1534:	3d 02 07    	rcall     0x19b0 <_fputc>
    1536:	e1 0f 40    	add.w     w0, #0x1, [w15]
    1538:	24 00 32    	bra       Z, 0x1582 <.L355>
    153a:	af b0 97    	mov.w     [w15-28], w1
    153c:	81 00 e8    	inc.w     w1, w1
    153e:	a1 b7 9f    	mov.w     w1, [w15-28]
    1540:	20 00 37    	bra       0x1582 <.L355>

00001542 <.L166>:
    1542:	01 00 e0    	cp0.w     w1
    1544:	1e 00 32    	bra       Z, 0x1582 <.L355>
    1546:	ef b0 97    	mov.w     [w15-20], w1
    1548:	00 02 20    	mov.w     #0x20, w0
    154a:	32 02 07    	rcall     0x19b0 <_fputc>
    154c:	e1 0f 40    	add.w     w0, #0x1, [w15]
    154e:	19 00 32    	bra       Z, 0x1582 <.L355>
    1550:	2f b1 97    	mov.w     [w15-28], w2
    1552:	02 01 e8    	inc.w     w2, w2
    1554:	a2 b7 9f    	mov.w     w2, [w15-28]
    1556:	15 00 37    	bra       0x1582 <.L355>

00001558 <.L174>:
    1558:	00 00 fb    	se        w0, w0
    155a:	43 00 dd    	sl.w      w0, #0x3, w0
    155c:	c1 07 23    	mov.w     #0x307c, w1
    155e:	01 00 40    	add.w     w0, w1, w0
    1560:	30 02 be    	mov.d     [w0++], w4
    1562:	20 03 be    	mov.d     [w0--], w6
    1564:	08 00 be    	mov.d     w8, w0
    1566:	0a 01 be    	mov.d     w10, w2
    1568:	30 fb 07    	rcall     0xbca <___udivdi3>
    156a:	a4 00 20    	mov.w     #0xa, w4
    156c:	05 00 20    	mov.w     #0x0, w5
    156e:	60 33 b8    	mul.uu    w6, #0x0, w6
    1570:	33 fb 07    	rcall     0xbd8 <___umoddi3>
    1572:	00 03 b0    	add.w     #0x30, w0
    1574:	ef b0 97    	mov.w     [w15-20], w1
    1576:	1c 02 07    	rcall     0x19b0 <_fputc>
    1578:	e1 0f 40    	add.w     w0, #0x1, [w15]
    157a:	03 00 32    	bra       Z, 0x1582 <.L355>
    157c:	af b1 97    	mov.w     [w15-28], w3
    157e:	83 01 e8    	inc.w     w3, w3
    1580:	a3 b7 9f    	mov.w     w3, [w15-28]

00001582 <.L355>:
    1582:	4f 7a 97    	mov.b     [w15-68], w4
    1584:	04 40 e9    	dec.b     w4, w0
    1586:	c0 7f 9f    	mov.b     w0, [w15-68]
    1588:	e1 4f 40    	add.b     w0, #0x1, [w15]
    158a:	e6 ff 3a    	bra       NZ, 0x1558 <.L174>
    158c:	0b 00 37    	bra       0x15a4 <.L334>

0000158e <.L177>:
    158e:	ef b0 97    	mov.w     [w15-20], w1
    1590:	00 03 20    	mov.w     #0x30, w0
    1592:	0e 02 07    	rcall     0x19b0 <_fputc>
    1594:	e1 0f 40    	add.w     w0, #0x1, [w15]
    1596:	03 00 32    	bra       Z, 0x159e <.L178>
    1598:	af b2 97    	mov.w     [w15-28], w5
    159a:	85 02 e8    	inc.w     w5, w5
    159c:	a5 b7 9f    	mov.w     w5, [w15-28]

0000159e <.L178>:
    159e:	0f a0 97    	mov.w     [w15-64], w0
    15a0:	00 00 e9    	dec.w     w0, w0
    15a2:	80 a7 9f    	mov.w     w0, [w15-64]

000015a4 <.L334>:
    15a4:	0f a0 97    	mov.w     [w15-64], w0
    15a6:	00 00 e0    	cp0.w     w0
    15a8:	f2 ff 3c    	bra       GT, 0x158e <.L177>
    15aa:	3f b6 97    	mov.w     [w15-26], w12
    15ac:	20 c1 b3    	mov.b     #0x12, w0
    15ae:	f2 0f 56    	sub.w     w12, #0x12, [w15]
    15b0:	01 00 3c    	bra       GT, 0x15b4 <.L349>
    15b2:	6f e0 97    	mov.b     [w15-26], w0

000015b4 <.L349>:
    15b4:	c0 7f 9f    	mov.b     w0, [w15-68]
    15b6:	cf 78 97    	mov.b     [w15-68], w1
    15b8:	01 00 fb    	se        w1, w0
    15ba:	3f b1 97    	mov.w     [w15-26], w2
    15bc:	00 00 51    	sub.w     w2, w0, w0
    15be:	e0 a7 9f    	mov.w     w0, [w15-52]
    15c0:	01 04 e0    	cp0.b     w1
    15c2:	08 00 32    	bra       Z, 0x15d4 <.L184>
    15c4:	ef b0 97    	mov.w     [w15-20], w1
    15c6:	e0 02 20    	mov.w     #0x2e, w0
    15c8:	f3 01 07    	rcall     0x19b0 <_fputc>
    15ca:	e1 0f 40    	add.w     w0, #0x1, [w15]
    15cc:	03 00 32    	bra       Z, 0x15d4 <.L184>
    15ce:	af b1 97    	mov.w     [w15-28], w3
    15d0:	83 01 e8    	inc.w     w3, w3
    15d2:	a3 b7 9f    	mov.w     w3, [w15-28]

000015d4 <.L184>:
    15d4:	4f 78 97    	mov.b     [w15-68], w0
    15d6:	97 fc 07    	rcall     0xf06 <_scale>
    15d8:	00 02 be    	mov.d     w0, w4
    15da:	02 03 be    	mov.d     w2, w6
    15dc:	2f a0 97    	mov.w     [w15-60], w0
    15de:	bf a0 97    	mov.w     [w15-58], w1
    15e0:	4f a1 97    	mov.w     [w15-56], w2
    15e2:	df a1 97    	mov.w     [w15-54], w3
    15e4:	66 f8 07    	rcall     0x6b2 <___muldf3>
    15e6:	b3 f9 07    	rcall     0x94e <___fixunsdfdi>
    15e8:	1e 00 37    	bra       0x1626 <.L350>

000015ea <.L188>:
    15ea:	00 00 fb    	se        w0, w0
    15ec:	43 00 dd    	sl.w      w0, #0x3, w0
    15ee:	cc 07 23    	mov.w     #0x307c, w12
    15f0:	0c 00 40    	add.w     w0, w12, w0
    15f2:	30 02 be    	mov.d     [w0++], w4
    15f4:	20 03 be    	mov.d     [w0--], w6
    15f6:	08 00 be    	mov.d     w8, w0
    15f8:	0a 01 be    	mov.d     w10, w2
    15fa:	e7 fa 07    	rcall     0xbca <___udivdi3>
    15fc:	a4 00 20    	mov.w     #0xa, w4
    15fe:	05 00 20    	mov.w     #0x0, w5
    1600:	60 33 b8    	mul.uu    w6, #0x0, w6
    1602:	ea fa 07    	rcall     0xbd8 <___umoddi3>
    1604:	00 03 b0    	add.w     #0x30, w0
    1606:	ef b0 97    	mov.w     [w15-20], w1
    1608:	d3 01 07    	rcall     0x19b0 <_fputc>
    160a:	e1 0f 40    	add.w     w0, #0x1, [w15]
    160c:	03 00 32    	bra       Z, 0x1614 <.L189>
    160e:	2f b2 97    	mov.w     [w15-28], w4
    1610:	04 02 e8    	inc.w     w4, w4
    1612:	a4 b7 9f    	mov.w     w4, [w15-28]

00001614 <.L189>:
    1614:	cf 7a 97    	mov.b     [w15-68], w5
    1616:	05 00 fb    	se        w5, w0
    1618:	43 00 dd    	sl.w      w0, #0x3, w0
    161a:	0c 00 40    	add.w     w0, w12, w0
    161c:	30 02 be    	mov.d     [w0++], w4
    161e:	20 03 be    	mov.d     [w0--], w6
    1620:	08 00 be    	mov.d     w8, w0
    1622:	0a 01 be    	mov.d     w10, w2
    1624:	d9 fa 07    	rcall     0xbd8 <___umoddi3>

00001626 <.L350>:
    1626:	02 05 be    	mov.d     w2, w10
    1628:	00 04 be    	mov.d     w0, w8
    162a:	4f 7e 97    	mov.b     [w15-68], w12
    162c:	0c 40 e9    	dec.b     w12, w0
    162e:	c0 7f 9f    	mov.b     w0, [w15-68]
    1630:	e1 4f 40    	add.b     w0, #0x1, [w15]
    1632:	db ff 3a    	bra       NZ, 0x15ea <.L188>
    1634:	00 06 eb    	clr.w     w12
    1636:	09 00 37    	bra       0x164a <.L192>

00001638 <.L193>:
    1638:	ef b0 97    	mov.w     [w15-20], w1
    163a:	00 03 20    	mov.w     #0x30, w0
    163c:	b9 01 07    	rcall     0x19b0 <_fputc>
    163e:	e1 0f 40    	add.w     w0, #0x1, [w15]
    1640:	03 00 32    	bra       Z, 0x1648 <.L194>
    1642:	2f b0 97    	mov.w     [w15-28], w0
    1644:	00 00 e8    	inc.w     w0, w0
    1646:	a0 b7 9f    	mov.w     w0, [w15-28]

00001648 <.L194>:
    1648:	0c 06 e8    	inc.w     w12, w12

0000164a <.L192>:
    164a:	ef a0 97    	mov.w     [w15-52], w1
    164c:	81 0f 56    	sub.w     w12, w1, [w15]
    164e:	f4 ff 3a    	bra       NZ, 0x1638 <.L193>
    1650:	0d 38 a3    	btst.z    w13, #0x3
    1652:	a1 01 32    	bra       Z, 0x1996 <.L356>
    1654:	0e 00 e0    	cp0.w     w14
    1656:	9f 01 34    	bra       LE, 0x1996 <.L356>
    1658:	00 06 eb    	clr.w     w12

0000165a <.L199>:
    165a:	ef b0 97    	mov.w     [w15-20], w1
    165c:	00 02 20    	mov.w     #0x20, w0
    165e:	a8 01 07    	rcall     0x19b0 <_fputc>
    1660:	e1 0f 40    	add.w     w0, #0x1, [w15]
    1662:	03 00 32    	bra       Z, 0x166a <.L200>
    1664:	2f b1 97    	mov.w     [w15-28], w2
    1666:	02 01 e8    	inc.w     w2, w2
    1668:	a2 b7 9f    	mov.w     w2, [w15-28]

0000166a <.L200>:
    166a:	0c 06 e8    	inc.w     w12, w12
    166c:	8e 0f 56    	sub.w     w12, w14, [w15]
    166e:	93 01 32    	bra       Z, 0x1996 <.L356>
    1670:	f4 ff 37    	bra       0x165a <.L199>

00001672 <.L96>:
    1672:	0d 00 78    	mov.w     w13, w0
    1674:	00 0c b2    	and.w     #0xc0, w0
    1676:	28 00 3a    	bra       NZ, 0x16c8 <.L202>
    1678:	0d 00 e0    	cp0.w     w13
    167a:	05 00 3d    	bra       GE, 0x1686 <.L204>
    167c:	8f b9 97    	mov.w     [w15-16], w3
    167e:	43 05 be    	mov.d     [--w3], w10
    1680:	43 04 be    	mov.d     [--w3], w8
    1682:	83 bf 9f    	mov.w     w3, [w15-16]
    1684:	14 00 37    	bra       0x16ae <.L206>

00001686 <.L204>:
    1686:	0d 48 a3    	btst.z    w13, #0x4
    1688:	0b 00 32    	bra       Z, 0x16a0 <.L207>
    168a:	0f ba 97    	mov.w     [w15-16], w4
    168c:	44 00 be    	mov.d     [--w4], w0
    168e:	84 bf 9f    	mov.w     w4, [w15-16]
    1690:	4f 89 de    	asr.w     w1, #0xf, w2
    1692:	cf 91 de    	asr.w     w2, #0xf, w3
    1694:	00 02 be    	mov.d     w0, w4
    1696:	02 03 78    	mov.w     w2, w6
    1698:	82 03 78    	mov.w     w2, w7
    169a:	06 05 be    	mov.d     w6, w10
    169c:	04 04 be    	mov.d     w4, w8
    169e:	07 00 37    	bra       0x16ae <.L206>

000016a0 <.L207>:
    16a0:	8f ba 97    	mov.w     [w15-16], w5
    16a2:	45 00 78    	mov.w     [--w5], w0
    16a4:	85 bf 9f    	mov.w     w5, [w15-16]
    16a6:	00 04 78    	mov.w     w0, w8
    16a8:	cf c4 de    	asr.w     w8, #0xf, w9
    16aa:	09 05 78    	mov.w     w9, w10
    16ac:	8a 05 78    	mov.w     w10, w11

000016ae <.L206>:
    16ae:	e0 0f 54    	sub.w     w8, #0x0, [w15]
    16b0:	e0 8f 5c    	subb.w    w9, #0x0, [w15]
    16b2:	e0 0f 5d    	subb.w    w10, #0x0, [w15]
    16b4:	e0 8f 5d    	subb.w    w11, #0x0, [w15]
    16b6:	20 00 3d    	bra       GE, 0x16f8 <.L209>
    16b8:	3d 00 b3    	ior.w     #0x3, w13
    16ba:	60 00 b8    	mul.uu    w0, #0x0, w0
    16bc:	60 11 b8    	mul.uu    w2, #0x0, w2
    16be:	08 04 50    	sub.w     w0, w8, w8
    16c0:	89 84 58    	subb.w    w1, w9, w9
    16c2:	0a 05 59    	subb.w    w2, w10, w10
    16c4:	8b 85 59    	subb.w    w3, w11, w11
    16c6:	18 00 37    	bra       0x16f8 <.L209>

000016c8 <.L202>:
    16c8:	0d 00 e0    	cp0.w     w13
    16ca:	05 00 3d    	bra       GE, 0x16d6 <.L211>
    16cc:	0f be 97    	mov.w     [w15-16], w12
    16ce:	4c 05 be    	mov.d     [--w12], w10
    16d0:	4c 04 be    	mov.d     [--w12], w8
    16d2:	8c bf 9f    	mov.w     w12, [w15-16]
    16d4:	11 00 37    	bra       0x16f8 <.L209>

000016d6 <.L211>:
    16d6:	0d 48 a3    	btst.z    w13, #0x4
    16d8:	08 00 32    	bra       Z, 0x16ea <.L213>
    16da:	8f ba 97    	mov.w     [w15-16], w5
    16dc:	45 00 be    	mov.d     [--w5], w0
    16de:	85 bf 9f    	mov.w     w5, [w15-16]
    16e0:	04 01 78    	mov.w     w4, w2
    16e2:	84 01 78    	mov.w     w4, w3
    16e4:	02 05 be    	mov.d     w2, w10
    16e6:	00 04 be    	mov.d     w0, w8
    16e8:	07 00 37    	bra       0x16f8 <.L209>

000016ea <.L213>:
    16ea:	0f be 97    	mov.w     [w15-16], w12
    16ec:	4c 00 78    	mov.w     [--w12], w0
    16ee:	8c bf 9f    	mov.w     w12, [w15-16]
    16f0:	00 04 78    	mov.w     w0, w8
    16f2:	09 00 20    	mov.w     #0x0, w9
    16f4:	0a 00 20    	mov.w     #0x0, w10
    16f6:	0b 00 20    	mov.w     #0x0, w11

000016f8 <.L209>:
    16f8:	3f b0 97    	mov.w     [w15-26], w0
    16fa:	00 00 e0    	cp0.w     w0
    16fc:	07 00 3a    	bra       NZ, 0x170c <.L215>
    16fe:	e0 0f 54    	sub.w     w8, #0x0, [w15]
    1700:	e0 8f 5c    	subb.w    w9, #0x0, [w15]
    1702:	e0 0f 5d    	subb.w    w10, #0x0, [w15]
    1704:	e0 8f 5d    	subb.w    w11, #0x0, [w15]
    1706:	02 00 3a    	bra       NZ, 0x170c <.L215>
    1708:	11 00 20    	mov.w     #0x1, w1
    170a:	b1 b7 9f    	mov.w     w1, [w15-26]

0000170c <.L215>:
    170c:	0d 07 78    	mov.w     w13, w14
    170e:	0e 0c b2    	and.w     #0xc0, w14
    1710:	00 04 20    	mov.w     #0x40, w0
    1712:	80 0f 57    	sub.w     w14, w0, [w15]
    1714:	2f 00 32    	bra       Z, 0x1774 <.L221>
    1716:	03 00 3c    	bra       GT, 0x171e <.L223>
    1718:	0e 00 e0    	cp0.w     w14
    171a:	07 00 32    	bra       Z, 0x172a <.L220>
    171c:	3f 00 37    	bra       0x179c <.L219>

0000171e <.L223>:
    171e:	00 08 20    	mov.w     #0x80, w0
    1720:	80 0f 57    	sub.w     w14, w0, [w15]
    1722:	14 00 32    	bra       Z, 0x174c <.L222>
    1724:	00 0c 20    	mov.w     #0xc0, w0
    1726:	80 0f 57    	sub.w     w14, w0, [w15]
    1728:	39 00 3a    	bra       NZ, 0x179c <.L219>

0000172a <.L220>:
    172a:	14 c0 b3    	mov.b     #0x1, w4
    172c:	c5 07 23    	mov.w     #0x307c, w5
    172e:	0b 00 37    	bra       0x1746 <.L224>

00001730 <.L225>:
    1730:	04 00 fb    	se        w4, w0
    1732:	43 00 dd    	sl.w      w0, #0x3, w0
    1734:	05 00 40    	add.w     w0, w5, w0
    1736:	50 01 be    	mov.d     [++w0], w2
    1738:	40 00 be    	mov.d     [--w0], w0
    173a:	00 40 e1    	cp.w      w8, w0
    173c:	01 c8 e1    	cpb.w     w9, w1
    173e:	02 d0 e1    	cpb.w     w10, w2
    1740:	03 d8 e1    	cpb.w     w11, w3
    1742:	2b 00 39    	bra       NC, 0x179a <.L351>
    1744:	04 42 e8    	inc.b     w4, w4

00001746 <.L224>:
    1746:	f4 4f 52    	sub.b     w4, #0x14, [w15]
    1748:	f3 ff 3a    	bra       NZ, 0x1730 <.L225>
    174a:	27 00 37    	bra       0x179a <.L351>

0000174c <.L222>:
    174c:	00 01 20    	mov.w     #0x10, w0
    174e:	01 00 20    	mov.w     #0x0, w1
    1750:	60 11 b8    	mul.uu    w2, #0x0, w2
    1752:	14 c0 b3    	mov.b     #0x1, w4

00001754 <.L229>:
    1754:	00 40 e1    	cp.w      w8, w0
    1756:	01 c8 e1    	cpb.w     w9, w1
    1758:	02 d0 e1    	cpb.w     w10, w2
    175a:	03 d8 e1    	cpb.w     w11, w3
    175c:	1e 00 39    	bra       NC, 0x179a <.L351>
    175e:	45 00 20    	mov.w     #0x4, w5

00001760 <.LB1383>:
    1760:	00 00 d0    	sl.w      w0, w0
    1762:	81 80 d2    	rlc.w     w1, w1
    1764:	02 81 d2    	rlc.w     w2, w2
    1766:	83 81 d2    	rlc.w     w3, w3
    1768:	85 02 e9    	dec.w     w5, w5
    176a:	fa ff 3a    	bra       NZ, 0x1760 <.LB1383>
    176c:	04 42 e8    	inc.b     w4, w4
    176e:	f0 4f 52    	sub.b     w4, #0x10, [w15]
    1770:	f1 ff 3a    	bra       NZ, 0x1754 <.L229>
    1772:	13 00 37    	bra       0x179a <.L351>

00001774 <.L221>:
    1774:	80 00 20    	mov.w     #0x8, w0
    1776:	01 00 20    	mov.w     #0x0, w1
    1778:	60 11 b8    	mul.uu    w2, #0x0, w2
    177a:	14 c0 b3    	mov.b     #0x1, w4

0000177c <.L233>:
    177c:	00 40 e1    	cp.w      w8, w0
    177e:	01 c8 e1    	cpb.w     w9, w1
    1780:	02 d0 e1    	cpb.w     w10, w2
    1782:	03 d8 e1    	cpb.w     w11, w3
    1784:	0a 00 39    	bra       NC, 0x179a <.L351>
    1786:	3c 00 20    	mov.w     #0x3, w12

00001788 <.LB1401>:
    1788:	00 00 d0    	sl.w      w0, w0
    178a:	81 80 d2    	rlc.w     w1, w1
    178c:	02 81 d2    	rlc.w     w2, w2
    178e:	83 81 d2    	rlc.w     w3, w3
    1790:	0c 06 e9    	dec.w     w12, w12
    1792:	fa ff 3a    	bra       NZ, 0x1788 <.LB1401>
    1794:	04 42 e8    	inc.b     w4, w4
    1796:	f5 4f 52    	sub.b     w4, #0x15, [w15]
    1798:	f1 ff 3a    	bra       NZ, 0x177c <.L233>

0000179a <.L351>:
    179a:	c4 7f 9f    	mov.b     w4, [w15-68]

0000179c <.L219>:
    179c:	cf 78 97    	mov.b     [w15-68], w1
    179e:	01 00 fb    	se        w1, w0
    17a0:	3f b1 97    	mov.w     [w15-26], w2
    17a2:	82 0f 50    	sub.w     w0, w2, [w15]
    17a4:	02 00 3d    	bra       GE, 0x17aa <.L237>
    17a6:	c2 7f 9f    	mov.b     w2, [w15-68]
    17a8:	04 00 37    	bra       0x17b2 <.L239>

000017aa <.L237>:
    17aa:	bf b1 97    	mov.w     [w15-26], w3
    17ac:	80 8f 51    	sub.w     w3, w0, [w15]
    17ae:	01 00 3d    	bra       GE, 0x17b2 <.L239>
    17b0:	b0 b7 9f    	mov.w     w0, [w15-26]

000017b2 <.L239>:
    17b2:	4f b2 97    	mov.w     [w15-24], w4
    17b4:	04 00 e0    	cp0.w     w4
    17b6:	04 00 32    	bra       Z, 0x17c0 <.L241>
    17b8:	63 80 66    	and.w     w13, #0x3, w0
    17ba:	02 00 32    	bra       Z, 0x17c0 <.L241>
    17bc:	04 02 e9    	dec.w     w4, w4
    17be:	c4 b7 9f    	mov.w     w4, [w15-24]

000017c0 <.L241>:
    17c0:	0d e8 a3    	btst.z    w13, #0xe
    17c2:	0b 00 32    	bra       Z, 0x17da <.L244>
    17c4:	cf b2 97    	mov.w     [w15-24], w5
    17c6:	3f b6 97    	mov.w     [w15-26], w12
    17c8:	8c 8f 52    	sub.w     w5, w12, [w15]
    17ca:	03 00 3c    	bra       GT, 0x17d2 <.L246>
    17cc:	00 00 eb    	clr.w     w0
    17ce:	c0 b7 9f    	mov.w     w0, [w15-24]
    17d0:	04 00 37    	bra       0x17da <.L244>

000017d2 <.L246>:
    17d2:	cf b0 97    	mov.w     [w15-24], w1
    17d4:	3f b1 97    	mov.w     [w15-26], w2
    17d6:	82 80 50    	sub.w     w1, w2, w1
    17d8:	c1 b7 9f    	mov.w     w1, [w15-24]

000017da <.L244>:
    17da:	cf 79 97    	mov.b     [w15-68], w3
    17dc:	03 00 fb    	se        w3, w0
    17de:	00 02 eb    	clr.w     w4
    17e0:	94 a7 9f    	mov.w     w4, [w15-62]
    17e2:	cf b2 97    	mov.w     [w15-24], w5
    17e4:	80 8f 52    	sub.w     w5, w0, [w15]
    17e6:	02 00 34    	bra       LE, 0x17ec <.L250>
    17e8:	00 80 52    	sub.w     w5, w0, w0
    17ea:	90 a7 9f    	mov.w     w0, [w15-62]

000017ec <.L250>:
    17ec:	0d 28 a3    	btst.z    w13, #0x2
    17ee:	37 00 32    	bra       Z, 0x185e <.L251>
    17f0:	e1 80 66    	and.w     w13, #0x1, w1
    17f2:	0d 18 a3    	btst.z    w13, #0x1
    17f4:	0c 00 32    	bra       Z, 0x180e <.L253>
    17f6:	d0 02 20    	mov.w     #0x2d, w0
    17f8:	01 00 e0    	cp0.w     w1
    17fa:	01 00 3a    	bra       NZ, 0x17fe <.L257>
    17fc:	00 80 e9    	dec2.w    w0, w0

000017fe <.L257>:
    17fe:	ef b0 97    	mov.w     [w15-20], w1
    1800:	d7 00 07    	rcall     0x19b0 <_fputc>
    1802:	e1 0f 40    	add.w     w0, #0x1, [w15]
    1804:	0e 00 32    	bra       Z, 0x1822 <.L258>
    1806:	2f b6 97    	mov.w     [w15-28], w12
    1808:	0c 06 e8    	inc.w     w12, w12
    180a:	ac b7 9f    	mov.w     w12, [w15-28]
    180c:	0a 00 37    	bra       0x1822 <.L258>

0000180e <.L253>:
    180e:	01 00 e0    	cp0.w     w1
    1810:	08 00 32    	bra       Z, 0x1822 <.L258>
    1812:	ef b0 97    	mov.w     [w15-20], w1
    1814:	00 02 20    	mov.w     #0x20, w0
    1816:	cc 00 07    	rcall     0x19b0 <_fputc>
    1818:	e1 0f 40    	add.w     w0, #0x1, [w15]
    181a:	03 00 32    	bra       Z, 0x1822 <.L258>
    181c:	2f b0 97    	mov.w     [w15-28], w0
    181e:	00 00 e8    	inc.w     w0, w0
    1820:	a0 b7 9f    	mov.w     w0, [w15-28]

00001822 <.L258>:
    1822:	9f a0 97    	mov.w     [w15-62], w1
    1824:	01 00 e0    	cp0.w     w1
    1826:	0f 00 32    	bra       Z, 0x1846 <.L262>
    1828:	00 06 eb    	clr.w     w12

0000182a <.L264>:
    182a:	ef b0 97    	mov.w     [w15-20], w1
    182c:	00 03 20    	mov.w     #0x30, w0
    182e:	c0 00 07    	rcall     0x19b0 <_fputc>
    1830:	e1 0f 40    	add.w     w0, #0x1, [w15]
    1832:	03 00 32    	bra       Z, 0x183a <.L265>
    1834:	2f b1 97    	mov.w     [w15-28], w2
    1836:	02 01 e8    	inc.w     w2, w2
    1838:	a2 b7 9f    	mov.w     w2, [w15-28]

0000183a <.L265>:
    183a:	0c 06 e8    	inc.w     w12, w12
    183c:	9f a1 97    	mov.w     [w15-62], w3
    183e:	83 0f 56    	sub.w     w12, w3, [w15]
    1840:	f4 ff 3a    	bra       NZ, 0x182a <.L264>
    1842:	00 02 eb    	clr.w     w4
    1844:	94 a7 9f    	mov.w     w4, [w15-62]

00001846 <.L262>:
    1846:	bf b2 97    	mov.w     [w15-26], w5
    1848:	c3 28 dd    	sl.w      w5, #0x3, w1
    184a:	40 07 23    	mov.w     #0x3074, w0
    184c:	80 80 40    	add.w     w1, w0, w1
    184e:	91 af 9f    	mov.w     w1, [w15-46]
    1850:	42 28 dd    	sl.w      w5, #0x2, w0
    1852:	64 00 50    	sub.w     w0, #0x4, w0
    1854:	80 af 9f    	mov.w     w0, [w15-48]
    1856:	63 28 b9    	mul.su    w5, #0x3, w0
    1858:	f0 a7 9f    	mov.w     w0, [w15-50]
    185a:	63 06 50    	sub.w     w0, #0x3, w12
    185c:	82 00 37    	bra       0x1962 <.L268>

0000185e <.L251>:
    185e:	1f a6 97    	mov.w     [w15-62], w12
    1860:	0c 00 e0    	cp0.w     w12
    1862:	11 00 32    	bra       Z, 0x1886 <.L269>
    1864:	68 80 66    	and.w     w13, #0x8, w0
    1866:	0f 00 3a    	bra       NZ, 0x1886 <.L269>
    1868:	00 06 78    	mov.w     w0, w12

0000186a <.L272>:
    186a:	ef b0 97    	mov.w     [w15-20], w1
    186c:	00 02 20    	mov.w     #0x20, w0
    186e:	a0 00 07    	rcall     0x19b0 <_fputc>
    1870:	e1 0f 40    	add.w     w0, #0x1, [w15]
    1872:	03 00 32    	bra       Z, 0x187a <.L273>
    1874:	2f b0 97    	mov.w     [w15-28], w0
    1876:	00 00 e8    	inc.w     w0, w0
    1878:	a0 b7 9f    	mov.w     w0, [w15-28]

0000187a <.L273>:
    187a:	0c 06 e8    	inc.w     w12, w12
    187c:	9f a0 97    	mov.w     [w15-62], w1
    187e:	81 0f 56    	sub.w     w12, w1, [w15]
    1880:	f4 ff 3a    	bra       NZ, 0x186a <.L272>
    1882:	00 01 eb    	clr.w     w2
    1884:	92 a7 9f    	mov.w     w2, [w15-62]

00001886 <.L269>:
    1886:	e1 80 66    	and.w     w13, #0x1, w1
    1888:	0d 18 a3    	btst.z    w13, #0x1
    188a:	0c 00 32    	bra       Z, 0x18a4 <.L276>
    188c:	d0 02 20    	mov.w     #0x2d, w0
    188e:	01 00 e0    	cp0.w     w1
    1890:	01 00 3a    	bra       NZ, 0x1894 <.L280>
    1892:	00 80 e9    	dec2.w    w0, w0

00001894 <.L280>:
    1894:	ef b0 97    	mov.w     [w15-20], w1
    1896:	8c 00 07    	rcall     0x19b0 <_fputc>
    1898:	e1 0f 40    	add.w     w0, #0x1, [w15]
    189a:	d5 ff 32    	bra       Z, 0x1846 <.L262>
    189c:	af b1 97    	mov.w     [w15-28], w3
    189e:	83 01 e8    	inc.w     w3, w3
    18a0:	a3 b7 9f    	mov.w     w3, [w15-28]
    18a2:	d1 ff 37    	bra       0x1846 <.L262>

000018a4 <.L276>:
    18a4:	01 00 e0    	cp0.w     w1
    18a6:	cf ff 32    	bra       Z, 0x1846 <.L262>
    18a8:	ef b0 97    	mov.w     [w15-20], w1
    18aa:	00 02 20    	mov.w     #0x20, w0
    18ac:	81 00 07    	rcall     0x19b0 <_fputc>
    18ae:	e1 0f 40    	add.w     w0, #0x1, [w15]
    18b0:	ca ff 32    	bra       Z, 0x1846 <.L262>
    18b2:	2f b2 97    	mov.w     [w15-28], w4
    18b4:	04 02 e8    	inc.w     w4, w4
    18b6:	a4 b7 9f    	mov.w     w4, [w15-28]
    18b8:	c6 ff 37    	bra       0x1846 <.L262>

000018ba <.L284>:
    18ba:	00 04 20    	mov.w     #0x40, w0
    18bc:	80 0f 57    	sub.w     w14, w0, [w15]
    18be:	30 00 32    	bra       Z, 0x1920 <.L287>
    18c0:	03 00 3c    	bra       GT, 0x18c8 <.L289>
    18c2:	0e 00 e0    	cp0.w     w14
    18c4:	07 00 32    	bra       Z, 0x18d4 <.L286>
    18c6:	3d 00 37    	bra       0x1942 <.L285>

000018c8 <.L289>:
    18c8:	00 08 20    	mov.w     #0x80, w0
    18ca:	80 0f 57    	sub.w     w14, w0, [w15]
    18cc:	11 00 32    	bra       Z, 0x18f0 <.L288>
    18ce:	00 0c 20    	mov.w     #0xc0, w0
    18d0:	80 0f 57    	sub.w     w14, w0, [w15]
    18d2:	37 00 3a    	bra       NZ, 0x1942 <.L285>

000018d4 <.L286>:
    18d4:	1f a8 97    	mov.w     [w15-46], w0
    18d6:	30 02 be    	mov.d     [w0++], w4
    18d8:	20 03 be    	mov.d     [w0--], w6
    18da:	08 00 be    	mov.d     w8, w0
    18dc:	0a 01 be    	mov.d     w10, w2
    18de:	75 f9 07    	rcall     0xbca <___udivdi3>
    18e0:	a4 00 20    	mov.w     #0xa, w4
    18e2:	05 00 20    	mov.w     #0x0, w5
    18e4:	60 33 b8    	mul.uu    w6, #0x0, w6
    18e6:	78 f9 07    	rcall     0xbd8 <___umoddi3>
    18e8:	04 c3 b3    	mov.b     #0x30, w4
    18ea:	04 42 40    	add.b     w0, w4, w4
    18ec:	c4 7f 9f    	mov.b     w4, [w15-68]
    18ee:	29 00 37    	bra       0x1942 <.L285>

000018f0 <.L288>:
    18f0:	35 12 23    	mov.w     #0x3123, w5
    18f2:	d5 b7 9f    	mov.w     w5, [w15-22]
    18f4:	0d 58 a3    	btst.z    w13, #0x5
    18f6:	02 00 3a    	bra       NZ, 0x18fc <.L292>
    18f8:	40 13 23    	mov.w     #0x3134, w0
    18fa:	d0 b7 9f    	mov.w     w0, [w15-22]

000018fc <.L292>:
    18fc:	14 00 20    	mov.w     #0x1, w4
    18fe:	05 00 20    	mov.w     #0x0, w5
    1900:	60 33 b8    	mul.uu    w6, #0x0, w6
    1902:	8f a8 97    	mov.w     [w15-48], w1

00001904 <.LB1686>:
    1904:	81 00 e9    	dec.w     w1, w1
    1906:	05 00 33    	bra       N, 0x1912 <.LE1686>
    1908:	04 02 d0    	sl.w      w4, w4
    190a:	85 82 d2    	rlc.w     w5, w5
    190c:	06 83 d2    	rlc.w     w6, w6
    190e:	87 83 d2    	rlc.w     w7, w7
    1910:	f9 ff 37    	bra       0x1904 <.LB1686>

00001912 <.LE1686>:
    1912:	08 00 be    	mov.d     w8, w0
    1914:	0a 01 be    	mov.d     w10, w2
    1916:	59 f9 07    	rcall     0xbca <___udivdi3>
    1918:	6f 00 60    	and.w     w0, #0xf, w0
    191a:	5f b1 97    	mov.w     [w15-22], w2
    191c:	62 40 78    	mov.b     [w2+w0], w0
    191e:	10 00 37    	bra       0x1940 <.L352>

00001920 <.L287>:
    1920:	14 00 20    	mov.w     #0x1, w4
    1922:	05 00 20    	mov.w     #0x0, w5
    1924:	60 33 b8    	mul.uu    w6, #0x0, w6
    1926:	8c 01 78    	mov.w     w12, w3

00001928 <.LB1699>:
    1928:	83 01 e9    	dec.w     w3, w3
    192a:	05 00 33    	bra       N, 0x1936 <.LE1699>
    192c:	04 02 d0    	sl.w      w4, w4
    192e:	85 82 d2    	rlc.w     w5, w5
    1930:	06 83 d2    	rlc.w     w6, w6
    1932:	87 83 d2    	rlc.w     w7, w7
    1934:	f9 ff 37    	bra       0x1928 <.LB1699>

00001936 <.LE1699>:
    1936:	08 00 be    	mov.d     w8, w0
    1938:	0a 01 be    	mov.d     w10, w2
    193a:	47 f9 07    	rcall     0xbca <___udivdi3>
    193c:	67 40 60    	and.b     w0, #0x7, w0
    193e:	00 43 b0    	add.b     #0x30, w0

00001940 <.L352>:
    1940:	c0 7f 9f    	mov.b     w0, [w15-68]

00001942 <.L285>:
    1942:	4f 7a 97    	mov.b     [w15-68], w4
    1944:	04 00 fb    	se        w4, w0
    1946:	ef b0 97    	mov.w     [w15-20], w1
    1948:	33 00 07    	rcall     0x19b0 <_fputc>
    194a:	e1 0f 40    	add.w     w0, #0x1, [w15]
    194c:	03 00 32    	bra       Z, 0x1954 <.L293>
    194e:	af b2 97    	mov.w     [w15-28], w5
    1950:	85 02 e8    	inc.w     w5, w5
    1952:	a5 b7 9f    	mov.w     w5, [w15-28]

00001954 <.L293>:
    1954:	1f a8 97    	mov.w     [w15-46], w0
    1956:	68 00 50    	sub.w     w0, #0x8, w0
    1958:	90 af 9f    	mov.w     w0, [w15-46]
    195a:	8f a8 97    	mov.w     [w15-48], w1
    195c:	e4 80 50    	sub.w     w1, #0x4, w1
    195e:	81 af 9f    	mov.w     w1, [w15-48]
    1960:	63 06 56    	sub.w     w12, #0x3, w12

00001962 <.L268>:
    1962:	d0 ff 2f    	mov.w     #0xfffd, w0
    1964:	3f b1 97    	mov.w     [w15-26], w2
    1966:	00 90 b9    	mul.ss    w2, w0, w0
    1968:	ff a1 97    	mov.w     [w15-50], w3
    196a:	00 80 41    	add.w     w3, w0, w0
    196c:	63 00 50    	sub.w     w0, #0x3, w0
    196e:	80 0f 56    	sub.w     w12, w0, [w15]
    1970:	a4 ff 3a    	bra       NZ, 0x18ba <.L284>
    1972:	0d 38 a3    	btst.z    w13, #0x3
    1974:	10 00 32    	bra       Z, 0x1996 <.L356>
    1976:	1f a2 97    	mov.w     [w15-62], w4
    1978:	04 00 e0    	cp0.w     w4
    197a:	0d 00 34    	bra       LE, 0x1996 <.L356>
    197c:	00 06 eb    	clr.w     w12

0000197e <.L298>:
    197e:	ef b0 97    	mov.w     [w15-20], w1
    1980:	00 02 20    	mov.w     #0x20, w0
    1982:	16 00 07    	rcall     0x19b0 <_fputc>
    1984:	e1 0f 40    	add.w     w0, #0x1, [w15]
    1986:	03 00 32    	bra       Z, 0x198e <.L299>
    1988:	af b2 97    	mov.w     [w15-28], w5
    198a:	85 02 e8    	inc.w     w5, w5
    198c:	a5 b7 9f    	mov.w     w5, [w15-28]

0000198e <.L299>:
    198e:	0c 06 e8    	inc.w     w12, w12
    1990:	1f a0 97    	mov.w     [w15-62], w0
    1992:	80 0f 56    	sub.w     w12, w0, [w15]
    1994:	f4 ff 3a    	bra       NZ, 0x197e <.L298>

00001996 <.L356>:
    1996:	7f b1 97    	mov.w     [w15-18], w2
    1998:	b2 40 78    	mov.b     [w2++], w1
    199a:	f2 b7 9f    	mov.w     w2, [w15-18]
    199c:	c1 7f 9f    	mov.b     w1, [w15-68]
    199e:	01 04 e0    	cp0.b     w1
    19a0:	14 fb 3a    	bra       NZ, 0xfca <.L20>

000019a2 <.L49>:
    19a2:	2f b0 97    	mov.w     [w15-28], w0
    19a4:	4f 07 78    	mov.w     [--w15], w14
    19a6:	4f 06 be    	mov.d     [--w15], w12
    19a8:	4f 05 be    	mov.d     [--w15], w10
    19aa:	4f 04 be    	mov.d     [--w15], w8
    19ac:	8f 03 b1    	sub.w     #0x38, w15
    19ae:	00 00 06    	return    

000019b0 <_fputc>:
    19b0:	88 9f be    	mov.d     w8, [w15++]
    19b2:	00 01 78    	mov.w     w0, w2
    19b4:	01 04 78    	mov.w     w1, w8
    19b6:	b1 00 90    	mov.w     [w1+6], w1
    19b8:	01 18 a3    	btst.z    w1, #0x1
    19ba:	3d 00 32    	bra       Z, 0x1a36 <.L2>
    19bc:	01 98 a3    	btst.z    w1, #0x9
    19be:	03 00 3a    	bra       NZ, 0x19c6 <.L4>
    19c0:	18 00 90    	mov.w     [w8+2], w0
    19c2:	00 00 e0    	cp0.w     w0
    19c4:	38 00 3a    	bra       NZ, 0x1a36 <.L2>

000019c6 <.L4>:
    19c6:	01 90 a0    	bset.w    w1, #0x9
    19c8:	31 04 98    	mov.w     w1, [w8+6]
    19ca:	82 04 78    	mov.w     w2, w9
    19cc:	f9 0f b2    	and.w     #0xff, w9
    19ce:	18 00 90    	mov.w     [w8+2], w0
    19d0:	00 00 e0    	cp0.w     w0
    19d2:	02 00 3a    	bra       NZ, 0x19d8 <.L6>
    19d4:	28 00 90    	mov.w     [w8+4], w0
    19d6:	00 0c 78    	mov.w     w0, [w8]

000019d8 <.L6>:
    19d8:	ea 8f 54    	sub.w     w9, #0xa, [w15]
    19da:	06 00 3a    	bra       NZ, 0x19e8 <.L8>
    19dc:	38 00 90    	mov.w     [w8+6], w0
    19de:	00 78 a3    	btst.z    w0, #0x7
    19e0:	03 00 3a    	bra       NZ, 0x19e8 <.L8>
    19e2:	88 00 78    	mov.w     w8, w1
    19e4:	d0 00 20    	mov.w     #0xd, w0
    19e6:	e4 ff 07    	rcall     0x19b0 <_fputc>

000019e8 <.L8>:
    19e8:	98 00 90    	mov.w     [w8+2], w1
    19ea:	58 00 90    	mov.w     [w8+10], w0
    19ec:	80 8f 50    	sub.w     w1, w0, [w15]
    19ee:	0b 00 32    	bra       Z, 0x1a06 <.L11>
    19f0:	01 00 e8    	inc.w     w1, w0
    19f2:	10 04 98    	mov.w     w0, [w8+2]
    19f4:	18 00 78    	mov.w     [w8], w0
    19f6:	09 58 78    	mov.b     w9, [w0++]
    19f8:	00 0c 78    	mov.w     w0, [w8]
    19fa:	11 c0 b3    	mov.b     #0x1, w1
    19fc:	20 19 23    	mov.w     #0x3192, w0
    19fe:	01 48 78    	mov.b     w1, [w0]
    1a00:	ea 8f 54    	sub.w     w9, #0xa, [w15]
    1a02:	06 00 32    	bra       Z, 0x1a10 <.L13>
    1a04:	19 00 37    	bra       0x1a38 <.L14>

00001a06 <.L11>:
    1a06:	88 00 78    	mov.w     w8, w1
    1a08:	09 40 78    	mov.b     w9, w0
    1a0a:	19 00 07    	rcall     0x1a3e <__flsbuf>
    1a0c:	80 04 78    	mov.w     w0, w9
    1a0e:	14 00 37    	bra       0x1a38 <.L14>

00001a10 <.L13>:
    1a10:	38 00 90    	mov.w     [w8+6], w0
    1a12:	00 88 a3    	btst.z    w0, #0x8
    1a14:	11 00 32    	bra       Z, 0x1a38 <.L14>
    1a16:	18 01 90    	mov.w     [w8+2], w2
    1a18:	a8 00 90    	mov.w     [w8+4], w1
    1a1a:	48 00 90    	mov.w     [w8+8], w0
    1a1c:	71 f4 07    	rcall     0x300
    1a1e:	98 00 90    	mov.w     [w8+2], w1
    1a20:	81 0f 50    	sub.w     w0, w1, [w15]
    1a22:	04 00 32    	bra       Z, 0x1a2c <.L19>
    1a24:	38 00 90    	mov.w     [w8+6], w0
    1a26:	00 03 b3    	ior.w     #0x30, w0
    1a28:	30 04 98    	mov.w     w0, [w8+6]
    1a2a:	80 84 eb    	setm.w    w9

00001a2c <.L19>:
    1a2c:	00 00 eb    	clr.w     w0
    1a2e:	10 04 98    	mov.w     w0, [w8+2]
    1a30:	28 00 90    	mov.w     [w8+4], w0
    1a32:	00 0c 78    	mov.w     w0, [w8]
    1a34:	01 00 37    	bra       0x1a38 <.L14>

00001a36 <.L2>:
    1a36:	80 84 eb    	setm.w    w9

00001a38 <.L14>:
    1a38:	09 00 78    	mov.w     w9, w0
    1a3a:	4f 04 be    	mov.d     [--w15], w8
    1a3c:	00 00 06    	return    

00001a3e <__flsbuf>:
    1a3e:	02 00 fa    	lnk       #0x2
    1a40:	88 9f be    	mov.d     w8, [w15++]
    1a42:	a0 ff 9f    	mov.b     w0, [w15-6]
    1a44:	01 04 78    	mov.w     w1, w8
    1a46:	b1 00 90    	mov.w     [w1+6], w1
    1a48:	81 04 78    	mov.w     w1, w9
    1a4a:	09 04 b2    	and.w     #0x40, w9
    1a4c:	02 00 32    	bra       Z, 0x1a52 <.L2>
    1a4e:	00 00 fb    	se        w0, w0
    1a50:	36 00 37    	bra       0x1abe <.L4>

00001a52 <.L2>:
    1a52:	01 18 a3    	btst.z    w1, #0x1
    1a54:	05 00 3a    	bra       NZ, 0x1a60 <.L5>
    1a56:	01 03 b3    	ior.w     #0x30, w1
    1a58:	31 04 98    	mov.w     w1, [w8+6]
    1a5a:	19 04 98    	mov.w     w9, [w8+2]
    1a5c:	00 80 eb    	setm.w    w0
    1a5e:	2f 00 37    	bra       0x1abe <.L4>

00001a60 <.L5>:
    1a60:	58 00 90    	mov.w     [w8+10], w0
    1a62:	00 00 e0    	cp0.w     w0
    1a64:	06 00 3a    	bra       NZ, 0x1a72 <.L7>
    1a66:	48 00 90    	mov.w     [w8+8], w0
    1a68:	12 00 20    	mov.w     #0x1, w2
    1a6a:	e6 80 57    	sub.w     w15, #0x6, w1
    1a6c:	49 f4 07    	rcall     0x300
    1a6e:	19 04 98    	mov.w     w9, [w8+2]
    1a70:	24 00 37    	bra       0x1aba <.L11>

00001a72 <.L7>:
    1a72:	28 00 90    	mov.w     [w8+4], w0
    1a74:	00 00 e0    	cp0.w     w0
    1a76:	08 00 3a    	bra       NZ, 0x1a88 <.L9>
    1a78:	e0 18 23    	mov.w     #0x318e, w0
    1a7a:	20 04 98    	mov.w     w0, [w8+4]
    1a7c:	00 0c 78    	mov.w     w0, [w8]
    1a7e:	20 00 20    	mov.w     #0x2, w0
    1a80:	50 04 98    	mov.w     w0, [w8+10]
    1a82:	10 04 98    	mov.w     w0, [w8+2]
    1a84:	01 30 a0    	bset.w    w1, #0x3
    1a86:	31 04 98    	mov.w     w1, [w8+6]

00001a88 <.L9>:
    1a88:	18 01 90    	mov.w     [w8+2], w2
    1a8a:	a8 00 90    	mov.w     [w8+4], w1
    1a8c:	48 00 90    	mov.w     [w8+8], w0
    1a8e:	38 f4 07    	rcall     0x300
    1a90:	28 00 90    	mov.w     [w8+4], w0
    1a92:	00 0c 78    	mov.w     w0, [w8]
    1a94:	00 80 eb    	setm.w    w0
    1a96:	10 04 98    	mov.w     w0, [w8+2]
    1a98:	18 00 78    	mov.w     [w8], w0
    1a9a:	af f8 97    	mov.b     [w15-6], w1
    1a9c:	01 58 78    	mov.b     w1, [w0++]
    1a9e:	00 0c 78    	mov.w     w0, [w8]
    1aa0:	2f f8 97    	mov.b     [w15-6], w0
    1aa2:	ea 4f 50    	sub.b     w0, #0xa, [w15]
    1aa4:	0a 00 3a    	bra       NZ, 0x1aba <.L11>
    1aa6:	38 00 90    	mov.w     [w8+6], w0
    1aa8:	00 88 a3    	btst.z    w0, #0x8
    1aaa:	07 00 32    	bra       Z, 0x1aba <.L11>
    1aac:	18 01 90    	mov.w     [w8+2], w2
    1aae:	a8 00 90    	mov.w     [w8+4], w1
    1ab0:	48 00 90    	mov.w     [w8+8], w0
    1ab2:	26 f4 07    	rcall     0x300
    1ab4:	19 04 98    	mov.w     w9, [w8+2]
    1ab6:	a8 00 90    	mov.w     [w8+4], w1
    1ab8:	01 0c 78    	mov.w     w1, [w8]

00001aba <.L11>:
    1aba:	af f8 97    	mov.b     [w15-6], w1
    1abc:	01 00 fb    	se        w1, w0

00001abe <.L4>:
    1abe:	4f 04 be    	mov.d     [--w15], w8
    1ac0:	00 80 fa    	ulnk      
    1ac2:	00 00 06    	return    
Disassembly of section __FGS:

00f80004 <__FGS.sec>:
  f80004:	ff ff 00    	nop       
Disassembly of section __FOSCSEL:

00f80006 <__FOSCSEL.sec>:
  f80006:	fb ff 00    	nop       
Disassembly of section __FOSC:

00f80008 <__FOSC.sec>:
  f80008:	f9 ff 00    	nop       
Disassembly of section __FWDT:

00f8000a <__FWDT.sec>:
  f8000a:	7f ff 00    	nop       
Disassembly of section .ivt:

00000004 <.ivt>:
   4:	fc 02 00    	nop       
   6:	6c 76 00    	nop       
   8:	6e 76 00    	nop       
   a:	8a 76 00    	nop       
   c:	8c 76 00    	nop       
   e:	8e 76 00    	nop       
  10:	fc 02 00    	nop       
  12:	fc 02 00    	nop       
  14:	fc 02 00    	nop       
  16:	fc 02 00    	nop       
  18:	fc 02 00    	nop       
  1a:	74 49 00    	nop       
  1c:	b6 44 00    	nop       
  1e:	fc 02 00    	nop       
  20:	fc 02 00    	nop       
  22:	fc 02 00    	nop       
  24:	fc 02 00    	nop       
  26:	fc 02 00    	nop       
  28:	fc 02 00    	nop       
  2a:	fc 02 00    	nop       
  2c:	fc 02 00    	nop       
  2e:	fc 02 00    	nop       
  30:	c2 44 00    	nop       
  32:	fc 02 00    	nop       
  34:	fc 02 00    	nop       
  36:	fc 02 00    	nop       
  38:	fc 02 00    	nop       
  3a:	8c 48 00    	nop       
  3c:	fc 02 00    	nop       
  3e:	fc 02 00    	nop       
  40:	fc 02 00    	nop       
  42:	fc 02 00    	nop       
  44:	fc 02 00    	nop       
  46:	fc 02 00    	nop       
  48:	fc 02 00    	nop       
  4a:	fc 02 00    	nop       
  4c:	dc 6e 00    	nop       
  4e:	fc 02 00    	nop       
  50:	fc 02 00    	nop       
  52:	fc 02 00    	nop       
  54:	fc 02 00    	nop       
  56:	fc 02 00    	nop       
  58:	fc 02 00    	nop       
  5a:	fc 02 00    	nop       
  5c:	fc 02 00    	nop       
  5e:	fc 02 00    	nop       
  60:	fc 02 00    	nop       
  62:	fc 02 00    	nop       
  64:	fc 02 00    	nop       
  66:	fc 02 00    	nop       
  68:	fc 02 00    	nop       
  6a:	fc 02 00    	nop       
  6c:	fc 02 00    	nop       
  6e:	fc 02 00    	nop       
  70:	fc 02 00    	nop       
  72:	fc 02 00    	nop       
  74:	fc 02 00    	nop       
  76:	fc 02 00    	nop       
  78:	fc 02 00    	nop       
  7a:	fc 02 00    	nop       
  7c:	fc 02 00    	nop       
  7e:	fc 02 00    	nop       
  80:	48 52 00    	nop       
  82:	fc 02 00    	nop       
  84:	fc 02 00    	nop       
  86:	fc 02 00    	nop       
  88:	1a 42 00    	nop       
  8a:	fc 02 00    	nop       
  8c:	fc 02 00    	nop       
  8e:	fc 02 00    	nop       
  90:	fc 02 00    	nop       
  92:	fc 02 00    	nop       
  94:	fc 02 00    	nop       
  96:	fc 02 00    	nop       
  98:	fc 02 00    	nop       
  9a:	fc 02 00    	nop       
  9c:	fc 02 00    	nop       
  9e:	fc 02 00    	nop       
  a0:	fc 02 00    	nop       
  a2:	fc 02 00    	nop       
  a4:	fc 02 00    	nop       
  a6:	fc 02 00    	nop       
  a8:	fc 02 00    	nop       
  aa:	fc 02 00    	nop       
  ac:	fc 02 00    	nop       
  ae:	fc 02 00    	nop       
  b0:	fc 02 00    	nop       
  b2:	fc 02 00    	nop       
  b4:	fc 02 00    	nop       
  b6:	fc 02 00    	nop       
  b8:	fc 02 00    	nop       
  ba:	fc 02 00    	nop       
  bc:	fc 02 00    	nop       
  be:	fc 02 00    	nop       
  c0:	fc 02 00    	nop       
  c2:	fc 02 00    	nop       
  c4:	fc 02 00    	nop       
  c6:	fc 02 00    	nop       
  c8:	fc 02 00    	nop       
  ca:	fc 02 00    	nop       
  cc:	fc 02 00    	nop       
  ce:	fc 02 00    	nop       
  d0:	fc 02 00    	nop       
  d2:	fc 02 00    	nop       
  d4:	fc 02 00    	nop       
  d6:	fc 02 00    	nop       
  d8:	fc 02 00    	nop       
  da:	fc 02 00    	nop       
  dc:	fc 02 00    	nop       
  de:	fc 02 00    	nop       
  e0:	fc 02 00    	nop       
  e2:	fc 02 00    	nop       
  e4:	fc 02 00    	nop       
  e6:	fc 02 00    	nop       
  e8:	fc 02 00    	nop       
  ea:	fc 02 00    	nop       
  ec:	fc 02 00    	nop       
  ee:	fc 02 00    	nop       
  f0:	fc 02 00    	nop       
  f2:	fc 02 00    	nop       
  f4:	fc 02 00    	nop       
  f6:	fc 02 00    	nop       
  f8:	fc 02 00    	nop       
  fa:	fc 02 00    	nop       
  fc:	fc 02 00    	nop       
  fe:	fc 02 00    	nop       
Disassembly of section .aivt:

00000104 <.aivt>:
 104:	fc 02 00    	nop       
 106:	6c 76 00    	nop       
 108:	6e 76 00    	nop       
 10a:	8a 76 00    	nop       
 10c:	8c 76 00    	nop       
 10e:	8e 76 00    	nop       
 110:	fc 02 00    	nop       
 112:	fc 02 00    	nop       
 114:	fc 02 00    	nop       
 116:	fc 02 00    	nop       
 118:	fc 02 00    	nop       
 11a:	74 49 00    	nop       
 11c:	b6 44 00    	nop       
 11e:	fc 02 00    	nop       
 120:	fc 02 00    	nop       
 122:	fc 02 00    	nop       
 124:	fc 02 00    	nop       
 126:	fc 02 00    	nop       
 128:	fc 02 00    	nop       
 12a:	fc 02 00    	nop       
 12c:	fc 02 00    	nop       
 12e:	fc 02 00    	nop       
 130:	c2 44 00    	nop       
 132:	fc 02 00    	nop       
 134:	fc 02 00    	nop       
 136:	fc 02 00    	nop       
 138:	fc 02 00    	nop       
 13a:	8c 48 00    	nop       
 13c:	fc 02 00    	nop       
 13e:	fc 02 00    	nop       
 140:	fc 02 00    	nop       
 142:	fc 02 00    	nop       
 144:	fc 02 00    	nop       
 146:	fc 02 00    	nop       
 148:	fc 02 00    	nop       
 14a:	fc 02 00    	nop       
 14c:	dc 6e 00    	nop       
 14e:	fc 02 00    	nop       
 150:	fc 02 00    	nop       
 152:	fc 02 00    	nop       
 154:	fc 02 00    	nop       
 156:	fc 02 00    	nop       
 158:	fc 02 00    	nop       
 15a:	fc 02 00    	nop       
 15c:	fc 02 00    	nop       
 15e:	fc 02 00    	nop       
 160:	fc 02 00    	nop       
 162:	fc 02 00    	nop       
 164:	fc 02 00    	nop       
 166:	fc 02 00    	nop       
 168:	fc 02 00    	nop       
 16a:	fc 02 00    	nop       
 16c:	fc 02 00    	nop       
 16e:	fc 02 00    	nop       
 170:	fc 02 00    	nop       
 172:	fc 02 00    	nop       
 174:	fc 02 00    	nop       
 176:	fc 02 00    	nop       
 178:	fc 02 00    	nop       
 17a:	fc 02 00    	nop       
 17c:	fc 02 00    	nop       
 17e:	fc 02 00    	nop       
 180:	48 52 00    	nop       
 182:	fc 02 00    	nop       
 184:	fc 02 00    	nop       
 186:	fc 02 00    	nop       
 188:	1a 42 00    	nop       
 18a:	fc 02 00    	nop       
 18c:	fc 02 00    	nop       
 18e:	fc 02 00    	nop       
 190:	fc 02 00    	nop       
 192:	fc 02 00    	nop       
 194:	fc 02 00    	nop       
 196:	fc 02 00    	nop       
 198:	fc 02 00    	nop       
 19a:	fc 02 00    	nop       
 19c:	fc 02 00    	nop       
 19e:	fc 02 00    	nop       
 1a0:	fc 02 00    	nop       
 1a2:	fc 02 00    	nop       
 1a4:	fc 02 00    	nop       
 1a6:	fc 02 00    	nop       
 1a8:	fc 02 00    	nop       
 1aa:	fc 02 00    	nop       
 1ac:	fc 02 00    	nop       
 1ae:	fc 02 00    	nop       
 1b0:	fc 02 00    	nop       
 1b2:	fc 02 00    	nop       
 1b4:	fc 02 00    	nop       
 1b6:	fc 02 00    	nop       
 1b8:	fc 02 00    	nop       
 1ba:	fc 02 00    	nop       
 1bc:	fc 02 00    	nop       
 1be:	fc 02 00    	nop       
 1c0:	fc 02 00    	nop       
 1c2:	fc 02 00    	nop       
 1c4:	fc 02 00    	nop       
 1c6:	fc 02 00    	nop       
 1c8:	fc 02 00    	nop       
 1ca:	fc 02 00    	nop       
 1cc:	fc 02 00    	nop       
 1ce:	fc 02 00    	nop       
 1d0:	fc 02 00    	nop       
 1d2:	fc 02 00    	nop       
 1d4:	fc 02 00    	nop       
 1d6:	fc 02 00    	nop       
 1d8:	fc 02 00    	nop       
 1da:	fc 02 00    	nop       
 1dc:	fc 02 00    	nop       
 1de:	fc 02 00    	nop       
 1e0:	fc 02 00    	nop       
 1e2:	fc 02 00    	nop       
 1e4:	fc 02 00    	nop       
 1e6:	fc 02 00    	nop       
 1e8:	fc 02 00    	nop       
 1ea:	fc 02 00    	nop       
 1ec:	fc 02 00    	nop       
 1ee:	fc 02 00    	nop       
 1f0:	fc 02 00    	nop       
 1f2:	fc 02 00    	nop       
 1f4:	fc 02 00    	nop       
 1f6:	fc 02 00    	nop       
 1f8:	fc 02 00    	nop       
 1fa:	fc 02 00    	nop       
 1fc:	fc 02 00    	nop       
 1fe:	fc 02 00    	nop       
Disassembly of section .text:

00002194 <_FuncUWL_EE_TASK_MAC_TIMESLOT>:
    2194:	d0 77 80    	mov.w     0xefa, w0
    2196:	00 00 e0    	cp0.w     w0
    2198:	01 00 32    	bra       Z, 0x219c <.L4>
    219a:	00 00 01    	call      w0

0000219c <.L4>:
    219c:	00 00 06    	return    

0000219e <_FuncUWL_EE_TASK_MAC_BEFORE_TIMESLOT>:
    219e:	c0 77 80    	mov.w     0xef8, w0
    21a0:	00 00 e0    	cp0.w     w0
    21a2:	01 00 32    	bra       Z, 0x21a6 <.L10>
    21a4:	00 00 01    	call      w0

000021a6 <.L10>:
    21a6:	00 00 06    	return    

000021a8 <_FuncUWL_EE_TASK_MAC_BACKOFF_PERIOD>:
    21a8:	60 77 80    	mov.w     0xeec, w0
    21aa:	00 00 e0    	cp0.w     w0
    21ac:	01 00 32    	bra       Z, 0x21b0 <.L16>
    21ae:	00 00 01    	call      w0

000021b0 <.L16>:
    21b0:	00 00 06    	return    

000021b2 <_FuncUWL_EE_TASK_MAC_GTS_SEND>:
    21b2:	b0 77 80    	mov.w     0xef6, w0
    21b4:	00 00 e0    	cp0.w     w0
    21b6:	01 00 32    	bra       Z, 0x21ba <.L22>
    21b8:	00 00 01    	call      w0

000021ba <.L22>:
    21ba:	00 00 06    	return    

000021bc <_before_timeslot_start>:
    21bc:	36 cf bf    	mov.b     0xf36, WREG
    21be:	00 00 e8    	inc.w     w0, w0
    21c0:	6f 00 60    	and.w     w0, #0xf, w0
    21c2:	0f 00 3a    	bra       NZ, 0x21e2 <.L30>
    21c4:	a2 79 80    	mov.w     0xf34, w2
    21c6:	02 18 a3    	btst.z    w2, #0x1
    21c8:	0c 00 3a    	bra       NZ, 0x21e2 <.L30>

000021ca <.bb>:
    21ca:	20 71 80    	mov.w     0xe24, w0
    21cc:	43 00 de    	lsr.w     w0, #0x3, w0
    21ce:	7f 00 60    	and.w     w0, #0x1f, w0
    21d0:	4a 00 dd    	sl.w      w0, #0xa, w0
    21d2:	f1 3f 28    	mov.w     #0x83ff, w1
    21d4:	81 00 61    	and.w     w2, w1, w1
    21d6:	80 80 70    	ior.w     w1, w0, w1
    21d8:	a1 79 88    	mov.w     w1, 0xf34
    21da:	40 71 80    	mov.w     0xe28, w0
    21dc:	66 00 60    	and.w     w0, #0x6, w0
    21de:	01 00 32    	bra       Z, 0x21e2 <.L30>
    21e0:	6e 27 07    	rcall     0x70be <_uwl_radio_mac_create_beacon>

000021e2 <.L30>:
    21e2:	00 00 06    	return    

000021e4 <_uwl_mac_set_before_beacon_callback>:
    21e4:	a0 fe 2f    	mov.w     #0xffea, w0
    21e6:	00 00 06    	return    

000021e8 <_uwl_mac_set_on_beacon_callback>:
    21e8:	a0 fe 2f    	mov.w     #0xffea, w0
    21ea:	00 00 06    	return    

000021ec <_uwl_mac_superframe_check_gts>:
    21ec:	88 9f be    	mov.d     w8, [w15++]
    21ee:	8a 9f be    	mov.d     w10, [w15++]
    21f0:	80 45 78    	mov.b     w0, w11
    21f2:	40 71 80    	mov.w     0xe28, w0
    21f4:	66 00 60    	and.w     w0, #0x6, w0
    21f6:	25 00 32    	bra       Z, 0x2242 <.L42>
    21f8:	01 80 fb    	ze        w1, w0
    21fa:	42 00 dd    	sl.w      w0, #0x2, w0
    21fc:	c1 16 23    	mov.w     #0x316c, w1
    21fe:	01 05 40    	add.w     w0, w1, w10

00002200 <.bb>:
    2200:	30 00 20    	mov.w     #0x3, w0
    2202:	0d 29 07    	rcall     0x741e <_EE_fp_GetResource>

00002204 <.eb>:
    2204:	c0 15 2a    	mov.w     #0xa15c, w0
    2206:	42 18 07    	rcall     0x528c <_uwl_debug_print>
    2208:	1a 01 be    	mov.d     [w10], w2
    220a:	0b 80 fb    	ze        w11, w0
    220c:	6a 00 40    	add.w     w0, #0xa, w0
    220e:	61 04 b9    	mul.su    w0, #0x1, w8
    2210:	88 0f 51    	sub.w     w2, w8, [w15]
    2212:	89 8f 59    	subb.w    w3, w9, [w15]
    2214:	26 00 39    	bra       NC, 0x2262 <.L63>

00002216 <.L66>:
    2216:	34 af ab    	btst.b    0xf34, #0x5
    2218:	2b 00 3a    	bra       NZ, 0x2270 <.L65>

0000221a <.L50>:
    221a:	08 00 51    	sub.w     w2, w8, w0
    221c:	89 80 59    	subb.w    w3, w9, w1
    221e:	00 8d be    	mov.d     w0, [w10]
    2220:	f1 cf 55    	sub.b     w11, #0x11, [w15]
    2222:	43 00 3e    	bra       GTU, 0x22aa <.L56>
    2224:	32 77 80    	mov.w     0xee6, w2

00002226 <.L58>:
    2226:	03 00 20    	mov.w     #0x0, w3
    2228:	60 22 b8    	mul.uu    w4, #0x0, w4
    222a:	82 0f 50    	sub.w     w0, w2, [w15]
    222c:	83 8f 58    	subb.w    w1, w3, [w15]
    222e:	02 00 39    	bra       NC, 0x2234 <.L61>
    2230:	02 02 50    	sub.w     w0, w2, w4
    2232:	83 82 58    	subb.w    w1, w3, w5

00002234 <.L61>:
    2234:	04 8d be    	mov.d     w4, [w10]

00002236 <.bb>:
    2236:	30 00 20    	mov.w     #0x3, w0
    2238:	cd 28 07    	rcall     0x73d4 <_EE_fp_ReleaseResource>
    223a:	10 00 20    	mov.w     #0x1, w0

0000223c <.L47>:
    223c:	4f 05 be    	mov.d     [--w15], w10
    223e:	4f 04 be    	mov.d     [--w15], w8
    2240:	00 00 06    	return    

00002242 <.L42>:
    2242:	21 71 80    	mov.w     0xe24, w1
    2244:	00 00 2f    	mov.w     #0xf000, w0
    2246:	00 80 60    	and.w     w1, w0, w0
    2248:	ca 16 23    	mov.w     #0x316c, w10
    224a:	f8 ff 32    	bra       Z, 0x223c <.L47>

0000224c <.bb>:
    224c:	30 00 20    	mov.w     #0x3, w0
    224e:	e7 28 07    	rcall     0x741e <_EE_fp_GetResource>

00002250 <.eb>:
    2250:	c0 15 2a    	mov.w     #0xa15c, w0
    2252:	1c 18 07    	rcall     0x528c <_uwl_debug_print>
    2254:	1a 01 be    	mov.d     [w10], w2
    2256:	0b 80 fb    	ze        w11, w0
    2258:	6a 00 40    	add.w     w0, #0xa, w0
    225a:	61 04 b9    	mul.su    w0, #0x1, w8
    225c:	88 0f 51    	sub.w     w2, w8, [w15]
    225e:	89 8f 59    	subb.w    w3, w9, [w15]
    2260:	da ff 31    	bra       C, 0x2216 <.L66>

00002262 <.L63>:
    2262:	30 00 20    	mov.w     #0x3, w0
    2264:	b7 28 07    	rcall     0x73d4 <_EE_fp_ReleaseResource>
    2266:	00 00 eb    	clr.w     w0

00002268 <.L68>:
    2268:	4f 05 be    	mov.d     [--w15], w10
    226a:	4f 04 be    	mov.d     [--w15], w8
    226c:	00 00 06    	return    
    226e:	e9 ff 37    	bra       0x2242 <.L42>

00002270 <.L65>:
    2270:	62 7a 80    	mov.w     0xf4c, w2
    2272:	73 7a 80    	mov.w     0xf4e, w3

00002274 <.eb>:
    2274:	40 77 80    	mov.w     0xee8, w0
    2276:	51 77 80    	mov.w     0xeea, w1
    2278:	80 0f 51    	sub.w     w2, w0, [w15]
    227a:	81 8f 59    	subb.w    w3, w1, [w15]
    227c:	18 00 36    	bra       LEU, 0x22ae <.L67>
    227e:	02 00 50    	sub.w     w0, w2, w0
    2280:	83 80 58    	subb.w    w1, w3, w1
    2282:	61 03 50    	sub.w     w0, #0x1, w6
    2284:	e0 83 58    	subb.w    w1, #0x0, w7

00002286 <.L54>:
    2286:	02 6a 28    	mov.w     #0x86a0, w2
    2288:	02 30 b8    	mul.uu    w6, w2, w0
    228a:	01 02 43    	add.w     w6, w1, w4
    228c:	02 b9 b9    	mul.ss    w7, w2, w2
    228e:	82 00 42    	add.w     w4, w2, w1
    2290:	02 71 22    	mov.w     #0x2710, w2
    2292:	03 00 20    	mov.w     #0x0, w3
    2294:	df f0 07    	rcall     0x454
    2296:	00 01 be    	mov.d     w0, w2

00002298 <.eb>:
    2298:	80 0f 54    	sub.w     w8, w0, [w15]
    229a:	81 8f 5c    	subb.w    w9, w1, [w15]
    229c:	be ff 36    	bra       LEU, 0x221a <.L50>
    229e:	00 0d eb    	clr.w     [w10]
    22a0:	3a 15 78    	mov.w     [w10++], [w10--]

000022a2 <.bb>:
    22a2:	30 00 20    	mov.w     #0x3, w0
    22a4:	97 28 07    	rcall     0x73d4 <_EE_fp_ReleaseResource>
    22a6:	00 00 eb    	clr.w     w0
    22a8:	df ff 37    	bra       0x2268 <.L68>

000022aa <.L56>:
    22aa:	22 77 80    	mov.w     0xee4, w2
    22ac:	bc ff 37    	bra       0x2226 <.L58>

000022ae <.L67>:
    22ae:	02 03 50    	sub.w     w0, w2, w6
    22b0:	83 83 58    	subb.w    w1, w3, w7
    22b2:	e9 ff 37    	bra       0x2286 <.L54>

000022b4 <_uwl_mac_superframe_init>:
    22b4:	11 00 20    	mov.w     #0x1, w1
    22b6:	29 8e ab    	btst.b    0xe29, #0x4
    22b8:	02 00 32    	bra       Z, 0x22be <.L83>

000022ba <.L74>:
    22ba:	01 00 78    	mov.w     w1, w0
    22bc:	00 00 06    	return    

000022be <.L83>:
    22be:	02 c4 29    	mov.w     #0x9c40, w2
    22c0:	03 00 20    	mov.w     #0x0, w3
    22c2:	00 14 20    	mov.w     #0x140, w0
    22c4:	01 00 20    	mov.w     #0x0, w1
    22c6:	4f 25 07    	rcall     0x6d66 <_uwl_timer_init>

000022c8 <.eb>:
    22c8:	61 ff 2f    	mov.w     #0xfff6, w1

000022ca <.bb>:
    22ca:	00 04 e0    	cp0.b     w0
    22cc:	f6 ff 35    	bra       LT, 0x22ba <.L74>
    22ce:	e0 70 27    	mov.w     #0x770e, w0
    22d0:	fd 25 07    	rcall     0x6ecc <_uwl_timer_set_isr_callback>

000022d2 <.bb>:
    22d2:	87 80 a9    	bclr.b    0x87, #0x4
    22d4:	97 80 a8    	bset.b    0x97, #0x4
    22d6:	21 e1 a8    	bset.b    0x121, #0x7

000022d8 <.bb>:
    22d8:	60 78 22    	mov.w     #0x2786, w0
    22da:	d0 77 88    	mov.w     w0, 0xefa

000022dc <.bb>:
    22dc:	c0 1b 22    	mov.w     #0x21bc, w0
    22de:	c0 77 88    	mov.w     w0, 0xef8

000022e0 <.bb>:
    22e0:	00 30 22    	mov.w     #0x2300, w0
    22e2:	60 77 88    	mov.w     w0, 0xeec

000022e4 <.bb>:
    22e4:	e0 fb 22    	mov.w     #0x2fbe, w0
    22e6:	b0 77 88    	mov.w     w0, 0xef6

000022e8 <.eb>:
    22e8:	29 8e a8    	bset.b    0xe29, #0x4
    22ea:	fd 4e a9    	bclr.b    0xefd, #0x2
    22ec:	fd 6e a9    	bclr.b    0xefd, #0x3
    22ee:	fd 8e a8    	bset.b    0xefd, #0x4
    22f0:	40 01 20    	mov.w     #0x14, w0
    22f2:	20 77 88    	mov.w     w0, 0xee4
    22f4:	a0 00 20    	mov.w     #0xa, w0
    22f6:	30 77 88    	mov.w     w0, 0xee6
    22f8:	a0 77 88    	mov.w     w0, 0xef4
    22fa:	10 00 20    	mov.w     #0x1, w0
    22fc:	00 00 06    	return    
    22fe:	df ff 37    	bra       0x22be <.L83>

00002300 <_on_backoff_period_start>:
    2300:	0a 00 fa    	lnk       #0xa
    2302:	88 9f be    	mov.d     w8, [w15++]
    2304:	8a 9f be    	mov.d     w10, [w15++]
    2306:	e4 77 80    	mov.w     0xefc, w4
    2308:	00 00 21    	mov.w     #0x1000, w0
    230a:	00 04 62    	and.w     w4, w0, w8
    230c:	09 00 32    	bra       Z, 0x2320 <.L241>

0000230e <.bb>:
    230e:	40 71 80    	mov.w     0xe28, w0
    2310:	00 0c b2    	and.w     #0xc0, w0
    2312:	01 04 20    	mov.w     #0x40, w1
    2314:	81 0f 50    	sub.w     w0, w1, [w15]
    2316:	3e 00 32    	bra       Z, 0x2394 <.L226>

00002318 <.L202>:
    2318:	4f 05 be    	mov.d     [--w15], w10
    231a:	4f 04 be    	mov.d     [--w15], w8
    231c:	00 80 fa    	ulnk      
    231e:	00 00 06    	return    

00002320 <.L241>:
    2320:	00 c0 20    	mov.w     #0xc00, w0
    2322:	80 00 62    	and.w     w4, w0, w1
    2324:	45 00 32    	bra       Z, 0x23b0 <.L224>
    2326:	00 40 20    	mov.w     #0x400, w0
    2328:	80 8f 50    	sub.w     w1, w0, [w15]
    232a:	c5 00 32    	bra       Z, 0x24b6 <.L227>

0000232c <.L163>:
    232c:	00 c0 20    	mov.w     #0xc00, w0
    232e:	00 00 62    	and.w     w4, w0, w0
    2330:	01 80 20    	mov.w     #0x800, w1
    2332:	81 0f 50    	sub.w     w0, w1, [w15]
    2334:	f1 ff 3a    	bra       NZ, 0x2318 <.L202>

00002336 <.L234>:
    2336:	e6 c2 bf    	mov.b     0x2e6, WREG

00002338 <.eb>:
    2338:	00 18 a3    	btst.z    w0, #0x1
    233a:	e1 00 3a    	bra       NZ, 0x24fe <.L172>
    233c:	ef 40 62    	and.b     w4, #0xf, w1
    233e:	a7 c8 bf    	mov.b     0x8a7, WREG
    2340:	81 4f 50    	sub.b     w0, w1, [w15]
    2342:	2c 01 39    	bra       NC, 0x259c <.L217>
    2344:	81 40 e8    	inc.b     w1, w1
    2346:	ef 80 60    	and.w     w1, #0xf, w1
    2348:	00 ff 2f    	mov.w     #0xfff0, w0
    234a:	00 00 62    	and.w     w4, w0, w0
    234c:	01 02 70    	ior.w     w0, w1, w4
    234e:	e4 77 88    	mov.w     w4, 0xefc
    2350:	44 20 de    	lsr.w     w4, #0x4, w0
    2352:	ef 40 60    	and.b     w0, #0xf, w1
    2354:	a6 c8 bf    	mov.b     0x8a6, WREG
    2356:	81 4f 50    	sub.b     w0, w1, [w15]
    2358:	07 00 36    	bra       LEU, 0x2368 <.L179>
    235a:	81 40 e8    	inc.b     w1, w1
    235c:	ef 80 60    	and.w     w1, #0xf, w1
    235e:	c4 08 dd    	sl.w      w1, #0x4, w1
    2360:	f0 f0 2f    	mov.w     #0xff0f, w0
    2362:	00 00 62    	and.w     w4, w0, w0
    2364:	01 00 70    	ior.w     w0, w1, w0
    2366:	e0 77 88    	mov.w     w0, 0xefc

00002368 <.L179>:
    2368:	b5 f5 07    	rcall     0xed4 <_rand>

0000236a <.eb>:
    236a:	f2 0f 20    	mov.w     #0xff, w2
    236c:	11 00 09    	repeat    #0x11
    236e:	02 00 d8    	div.sw    w0, w2
    2370:	81 80 fb    	ze        w1, w1
    2372:	e0 77 80    	mov.w     0xefc, w0
    2374:	44 00 de    	lsr.w     w0, #0x4, w0
    2376:	6f 00 60    	and.w     w0, #0xf, w0
    2378:	12 00 20    	mov.w     #0x1, w2
    237a:	00 11 dd    	sl.w      w2, w0, w2
    237c:	02 01 e9    	dec.w     w2, w2
    237e:	11 00 09    	repeat    #0x11
    2380:	82 00 d8    	div.sw    w1, w2
    2382:	80 00 fd    	exch      w0, w1
    2384:	ee ee b7    	mov.b     WREG, 0xeee

00002386 <.eb>:
    2386:	fd 4e a8    	bset.b    0xefd, #0x2
    2388:	fd 6e a9    	bclr.b    0xefd, #0x3

0000238a <.L230>:
    238a:	4f 05 be    	mov.d     [--w15], w10
    238c:	4f 04 be    	mov.d     [--w15], w8
    238e:	00 80 fa    	ulnk      
    2390:	00 00 06    	return    
    2392:	c6 ff 37    	bra       0x2320 <.L241>

00002394 <.L226>:
    2394:	a0 77 80    	mov.w     0xef4, w0
    2396:	61 01 b8    	mul.uu    w0, #0x1, w2
    2398:	80 77 80    	mov.w     0xef0, w0
    239a:	91 77 80    	mov.w     0xef2, w1
    239c:	80 0f 51    	sub.w     w2, w0, [w15]
    239e:	81 8f 59    	subb.w    w3, w1, [w15]
    23a0:	04 00 3e    	bra       GTU, 0x23aa <.L91>
    23a2:	02 00 50    	sub.w     w0, w2, w0
    23a4:	83 80 58    	subb.w    w1, w3, w1
    23a6:	80 77 88    	mov.w     w0, 0xef0
    23a8:	91 77 88    	mov.w     w1, 0xef2

000023aa <.L91>:
    23aa:	00 c0 20    	mov.w     #0xc00, w0
    23ac:	80 00 62    	and.w     w4, w0, w1
    23ae:	4d 00 3a    	bra       NZ, 0x244a <.L228>

000023b0 <.L224>:
    23b0:	10 0e e2    	cp0.w     0xe10
    23b2:	28 00 32    	bra       Z, 0x2404 <.L229>

000023b4 <.bb>:
    23b4:	fc 0e a9    	bclr.b    0xefc, #0x0
    23b6:	fc 2e a9    	bclr.b    0xefc, #0x1
    23b8:	fc 4e a9    	bclr.b    0xefc, #0x2
    23ba:	fc 6e a9    	bclr.b    0xefc, #0x3
    23bc:	e2 77 80    	mov.w     0xefc, w2
    23be:	02 c8 a3    	btst.z    w2, #0xc
    23c0:	2a 00 32    	bra       Z, 0x2416 <.L156>

000023c2 <.L231>:
    23c2:	fd 0e a9    	bclr.b    0xefd, #0x0
    23c4:	fd 2e a8    	bset.b    0xefd, #0x1
    23c6:	8d 68 ab    	btst.b    0x88d, #0x3
    23c8:	90 00 32    	bra       Z, 0x24ea <.L158>
    23ca:	21 c0 b3    	mov.b     #0x2, w1
    23cc:	d0 8a 20    	mov.w     #0x8ad, w0
    23ce:	90 cf 10    	subr.b    w1, [w0], [w15]
    23d0:	8c 00 36    	bra       LEU, 0x24ea <.L158>
    23d2:	6f 80 60    	and.w     w1, #0xf, w0
    23d4:	44 00 dd    	sl.w      w0, #0x4, w0
    23d6:	e1 77 80    	mov.w     0xefc, w1
    23d8:	f2 f0 2f    	mov.w     #0xff0f, w2
    23da:	82 80 60    	and.w     w1, w2, w1
    23dc:	00 82 70    	ior.w     w1, w0, w4
    23de:	e4 77 88    	mov.w     w4, 0xefc

000023e0 <.L235>:
    23e0:	79 f5 07    	rcall     0xed4 <_rand>

000023e2 <.eb>:
    23e2:	f2 0f 20    	mov.w     #0xff, w2
    23e4:	11 00 09    	repeat    #0x11
    23e6:	02 00 d8    	div.sw    w0, w2
    23e8:	81 80 fb    	ze        w1, w1
    23ea:	e0 77 80    	mov.w     0xefc, w0
    23ec:	44 00 de    	lsr.w     w0, #0x4, w0
    23ee:	6f 00 60    	and.w     w0, #0xf, w0
    23f0:	12 00 20    	mov.w     #0x1, w2
    23f2:	00 11 dd    	sl.w      w2, w0, w2
    23f4:	02 01 e9    	dec.w     w2, w2
    23f6:	11 00 09    	repeat    #0x11
    23f8:	82 00 d8    	div.sw    w1, w2
    23fa:	80 00 fd    	exch      w0, w1
    23fc:	ee ee b7    	mov.b     WREG, 0xeee

000023fe <.eb>:
    23fe:	fd 4e a8    	bset.b    0xefd, #0x2
    2400:	fd 6e a9    	bclr.b    0xefd, #0x3
    2402:	c3 ff 37    	bra       0x238a <.L230>

00002404 <.L229>:
    2404:	18 0e ab    	btst.b    0xe18, #0x0
    2406:	88 ff 32    	bra       Z, 0x2318 <.L202>

00002408 <.bb>:
    2408:	fc 0e a9    	bclr.b    0xefc, #0x0
    240a:	fc 2e a9    	bclr.b    0xefc, #0x1
    240c:	fc 4e a9    	bclr.b    0xefc, #0x2
    240e:	fc 6e a9    	bclr.b    0xefc, #0x3
    2410:	e2 77 80    	mov.w     0xefc, w2
    2412:	02 c8 a3    	btst.z    w2, #0xc
    2414:	d6 ff 3a    	bra       NZ, 0x23c2 <.L231>

00002416 <.L156>:
    2416:	d1 8a 20    	mov.w     #0x8ad, w1
    2418:	91 40 78    	mov.b     [w1], w1
    241a:	ef 80 60    	and.w     w1, #0xf, w1
    241c:	c4 08 dd    	sl.w      w1, #0x4, w1
    241e:	f0 f0 2f    	mov.w     #0xff0f, w0
    2420:	00 00 61    	and.w     w2, w0, w0
    2422:	01 02 70    	ior.w     w0, w1, w4
    2424:	e4 77 88    	mov.w     w4, 0xefc

00002426 <.bb>:
    2426:	56 f5 07    	rcall     0xed4 <_rand>

00002428 <.eb>:
    2428:	f2 0f 20    	mov.w     #0xff, w2
    242a:	11 00 09    	repeat    #0x11
    242c:	02 00 d8    	div.sw    w0, w2
    242e:	81 80 fb    	ze        w1, w1
    2430:	e0 77 80    	mov.w     0xefc, w0
    2432:	44 00 de    	lsr.w     w0, #0x4, w0
    2434:	6f 00 60    	and.w     w0, #0xf, w0
    2436:	12 00 20    	mov.w     #0x1, w2
    2438:	00 11 dd    	sl.w      w2, w0, w2
    243a:	02 01 e9    	dec.w     w2, w2
    243c:	11 00 09    	repeat    #0x11
    243e:	82 00 d8    	div.sw    w1, w2
    2440:	80 00 fd    	exch      w0, w1
    2442:	ee ee b7    	mov.b     WREG, 0xeee

00002444 <.eb>:
    2444:	fd 4e a8    	bset.b    0xefd, #0x2
    2446:	fd 6e a9    	bclr.b    0xefd, #0x3
    2448:	a0 ff 37    	bra       0x238a <.L230>

0000244a <.L228>:
    244a:	00 40 20    	mov.w     #0x400, w0
    244c:	80 8f 50    	sub.w     w1, w0, [w15]
    244e:	7a 00 32    	bra       Z, 0x2544 <.L232>

00002450 <.L105>:
    2450:	00 c0 20    	mov.w     #0xc00, w0
    2452:	00 00 62    	and.w     w4, w0, w0
    2454:	01 80 20    	mov.w     #0x800, w1
    2456:	81 0f 50    	sub.w     w0, w1, [w15]
    2458:	5f ff 3a    	bra       NZ, 0x2318 <.L202>

0000245a <.L237>:
    245a:	e6 c2 bf    	mov.b     0x2e6, WREG

0000245c <.eb>:
    245c:	00 18 a3    	btst.z    w0, #0x1
    245e:	09 01 3a    	bra       NZ, 0x2672 <.L122>
    2460:	fd 0e a9    	bclr.b    0xefd, #0x0
    2462:	fd 2e a8    	bset.b    0xefd, #0x1
    2464:	e2 77 80    	mov.w     0xefc, w2
    2466:	ef 40 61    	and.b     w2, #0xf, w1
    2468:	a7 c8 bf    	mov.b     0x8a7, WREG
    246a:	81 4f 50    	sub.b     w0, w1, [w15]
    246c:	97 00 39    	bra       NC, 0x259c <.L217>
    246e:	81 40 e8    	inc.b     w1, w1
    2470:	ef 80 60    	and.w     w1, #0xf, w1
    2472:	00 ff 2f    	mov.w     #0xfff0, w0
    2474:	00 00 61    	and.w     w2, w0, w0
    2476:	01 02 70    	ior.w     w0, w1, w4
    2478:	e4 77 88    	mov.w     w4, 0xefc
    247a:	44 20 de    	lsr.w     w4, #0x4, w0
    247c:	ef 40 60    	and.b     w0, #0xf, w1
    247e:	a6 c8 bf    	mov.b     0x8a6, WREG
    2480:	81 4f 50    	sub.b     w0, w1, [w15]
    2482:	72 ff 36    	bra       LEU, 0x2368 <.L179>
    2484:	81 40 e8    	inc.b     w1, w1
    2486:	ef 80 60    	and.w     w1, #0xf, w1
    2488:	c4 08 dd    	sl.w      w1, #0x4, w1
    248a:	f0 f0 2f    	mov.w     #0xff0f, w0
    248c:	00 00 62    	and.w     w4, w0, w0
    248e:	01 02 70    	ior.w     w0, w1, w4
    2490:	e4 77 88    	mov.w     w4, 0xefc

00002492 <.bb>:
    2492:	20 f5 07    	rcall     0xed4 <_rand>

00002494 <.eb>:
    2494:	f2 0f 20    	mov.w     #0xff, w2
    2496:	11 00 09    	repeat    #0x11
    2498:	02 00 d8    	div.sw    w0, w2
    249a:	81 80 fb    	ze        w1, w1
    249c:	e0 77 80    	mov.w     0xefc, w0
    249e:	44 00 de    	lsr.w     w0, #0x4, w0
    24a0:	6f 00 60    	and.w     w0, #0xf, w0
    24a2:	12 00 20    	mov.w     #0x1, w2
    24a4:	00 11 dd    	sl.w      w2, w0, w2
    24a6:	02 01 e9    	dec.w     w2, w2
    24a8:	11 00 09    	repeat    #0x11
    24aa:	82 00 d8    	div.sw    w1, w2
    24ac:	80 00 fd    	exch      w0, w1
    24ae:	ee ee b7    	mov.b     WREG, 0xeee

000024b0 <.eb>:
    24b0:	fd 4e a8    	bset.b    0xefd, #0x2
    24b2:	fd 6e a9    	bclr.b    0xefd, #0x3
    24b4:	6a ff 37    	bra       0x238a <.L230>

000024b6 <.L227>:
    24b6:	ee 4e ed    	dec.b     0xeee, WREG
    24b8:	ee ee b7    	mov.b     WREG, 0xeee
    24ba:	e1 4f 40    	add.b     w0, #0x1, [w15]
    24bc:	37 ff 3a    	bra       NZ, 0x232c <.L163>

000024be <.bb>:
    24be:	70 00 20    	mov.w     #0x7, w0
    24c0:	ae 27 07    	rcall     0x741e <_EE_fp_GetResource>

000024c2 <.bb>:
    24c2:	10 0e e2    	cp0.w     0xe10
    24c4:	05 00 32    	bra       Z, 0x24d0 <.L168>
    24c6:	72 70 80    	mov.w     0xe0e, w2
    24c8:	a0 70 80    	mov.w     0xe14, w0
    24ca:	00 91 b9    	mul.ss    w2, w0, w2
    24cc:	b0 70 80    	mov.w     0xe16, w0
    24ce:	00 04 41    	add.w     w2, w0, w8

000024d0 <.L168>:
    24d0:	70 00 20    	mov.w     #0x7, w0
    24d2:	80 27 07    	rcall     0x73d4 <_EE_fp_ReleaseResource>

000024d4 <.eb>:
    24d4:	08 00 e0    	cp0.w     w8
    24d6:	07 01 32    	bra       Z, 0x26e6 <.L233>
    24d8:	fd 4e a9    	bclr.b    0xefd, #0x2
    24da:	fd 6e a8    	bset.b    0xefd, #0x3
    24dc:	e4 77 80    	mov.w     0xefc, w4

000024de <.L238>:
    24de:	00 c0 20    	mov.w     #0xc00, w0
    24e0:	00 00 62    	and.w     w4, w0, w0
    24e2:	01 80 20    	mov.w     #0x800, w1
    24e4:	81 0f 50    	sub.w     w0, w1, [w15]
    24e6:	18 ff 3a    	bra       NZ, 0x2318 <.L202>
    24e8:	26 ff 37    	bra       0x2336 <.L234>

000024ea <.L158>:
    24ea:	ad c8 bf    	mov.b     0x8ad, WREG
    24ec:	ef 40 60    	and.b     w0, #0xf, w1
    24ee:	6f 80 60    	and.w     w1, #0xf, w0
    24f0:	44 00 dd    	sl.w      w0, #0x4, w0
    24f2:	e1 77 80    	mov.w     0xefc, w1
    24f4:	f2 f0 2f    	mov.w     #0xff0f, w2
    24f6:	82 80 60    	and.w     w1, w2, w1
    24f8:	00 82 70    	ior.w     w1, w0, w4
    24fa:	e4 77 88    	mov.w     w4, 0xefc
    24fc:	71 ff 37    	bra       0x23e0 <.L235>

000024fe <.L172>:
    24fe:	18 0e ab    	btst.b    0xe18, #0x0
    2500:	67 00 3a    	bra       NZ, 0x25d0 <.L236>

00002502 <.L181>:
    2502:	10 0e e2    	cp0.w     0xe10
    2504:	18 00 32    	bra       Z, 0x2536 <.L196>
    2506:	70 70 80    	mov.w     0xe0e, w0
    2508:	a2 70 80    	mov.w     0xe14, w2
    250a:	02 81 b9    	mul.ss    w0, w2, w2
    250c:	b1 70 80    	mov.w     0xe16, w1
    250e:	01 01 41    	add.w     w2, w1, w2
    2510:	00 00 e8    	inc.w     w0, w0
    2512:	94 70 80    	mov.w     0xe12, w4
    2514:	11 00 09    	repeat    #0x11
    2516:	04 80 d8    	div.uw    w0, w4
    2518:	71 70 88    	mov.w     w1, 0xe0e
    251a:	10 2e ed    	dec.w     0xe10
    251c:	02 04 78    	mov.w     w2, w8

0000251e <.L193>:
    251e:	08 00 e0    	cp0.w     w8
    2520:	0a 00 32    	bra       Z, 0x2536 <.L196>
    2522:	f8 38 90    	mov.w     [w8+126], w1
    2524:	c9 08 de    	lsr.w     w1, #0x9, w1
    2526:	08 00 78    	mov.w     w8, w0
    2528:	0c 26 07    	rcall     0x7142 <_uwl_radio_phy_send_now>
    252a:	00 04 e0    	cp0.b     w0
    252c:	09 01 3a    	bra       NZ, 0x2740 <.L198>
    252e:	08 40 91    	mov.b     [w8+128], w0
    2530:	60 11 b8    	mul.uu    w2, #0x0, w2
    2532:	80 00 eb    	clr.w     w1
    2534:	52 1a 07    	rcall     0x59da <_uwl_MCPS_DATA_confirm>

00002536 <.L196>:
    2536:	fd 4e a9    	bclr.b    0xefd, #0x2
    2538:	fd 6e a9    	bclr.b    0xefd, #0x3

0000253a <.L239>:
    253a:	4f 05 be    	mov.d     [--w15], w10
    253c:	4f 04 be    	mov.d     [--w15], w8
    253e:	00 80 fa    	ulnk      
    2540:	00 00 06    	return    
    2542:	ee fe 37    	bra       0x2320 <.L241>

00002544 <.L232>:
    2544:	ee 4e ed    	dec.b     0xeee, WREG
    2546:	ee ee b7    	mov.b     WREG, 0xeee
    2548:	e1 4f 40    	add.b     w0, #0x1, [w15]
    254a:	82 ff 3a    	bra       NZ, 0x2450 <.L105>

0000254c <.bb>:
    254c:	70 00 20    	mov.w     #0x7, w0
    254e:	67 27 07    	rcall     0x741e <_EE_fp_GetResource>

00002550 <.bb>:
    2550:	10 0e e2    	cp0.w     0xe10
    2552:	fd 00 3a    	bra       NZ, 0x274e <.L108>
    2554:	00 04 eb    	clr.w     w8
    2556:	88 04 78    	mov.w     w8, w9

00002558 <.L110>:
    2558:	70 00 20    	mov.w     #0x7, w0
    255a:	3c 27 07    	rcall     0x73d4 <_EE_fp_ReleaseResource>

0000255c <.eb>:
    255c:	08 00 e0    	cp0.w     w8
    255e:	07 01 32    	bra       Z, 0x276e <.L111>
    2560:	79 38 90    	mov.w     [w9+126], w0
    2562:	49 02 de    	lsr.w     w0, #0x9, w4

00002564 <.bb>:
    2564:	04 80 fb    	ze        w4, w0
    2566:	01 00 20    	mov.w     #0x0, w1
    2568:	00 01 40    	add.w     w0, w0, w2
    256a:	81 81 48    	addc.w    w1, w1, w3
    256c:	01 c2 b3    	mov.b     #0x20, w1
    256e:	19 c0 60    	and.b     w1, [w9], w0
    2570:	02 00 32    	bra       Z, 0x2576 <.L113>
    2572:	72 01 41    	add.w     w2, #0x12, w2
    2574:	e0 81 49    	addc.w    w3, #0x0, w3

00002576 <.L113>:
    2576:	f1 4f 52    	sub.b     w4, #0x11, [w15]
    2578:	f1 00 3e    	bra       GTU, 0x275c <.L115>
    257a:	30 77 80    	mov.w     0xee6, w0

0000257c <.eb>:
    257c:	00 01 41    	add.w     w2, w0, w2
    257e:	e0 81 49    	addc.w    w3, #0x0, w3
    2580:	80 77 80    	mov.w     0xef0, w0
    2582:	91 77 80    	mov.w     0xef2, w1
    2584:	80 0f 51    	sub.w     w2, w0, [w15]
    2586:	81 8f 59    	subb.w    w3, w1, [w15]
    2588:	ef fe 3e    	bra       GTU, 0x2368 <.L179>

0000258a <.L118>:
    258a:	fd 4e a9    	bclr.b    0xefd, #0x2
    258c:	fd 6e a8    	bset.b    0xefd, #0x3
    258e:	e4 77 80    	mov.w     0xefc, w4

00002590 <.L240>:
    2590:	00 c0 20    	mov.w     #0xc00, w0
    2592:	00 00 62    	and.w     w4, w0, w0
    2594:	01 80 20    	mov.w     #0x800, w1
    2596:	81 0f 50    	sub.w     w0, w1, [w15]
    2598:	bf fe 3a    	bra       NZ, 0x2318 <.L202>
    259a:	5f ff 37    	bra       0x245a <.L237>

0000259c <.L217>:
    259c:	00 00 eb    	clr.w     w0
    259e:	10 0e e2    	cp0.w     0xe10
    25a0:	0c 00 32    	bra       Z, 0x25ba <.L178>
    25a2:	70 70 80    	mov.w     0xe0e, w0
    25a4:	a2 70 80    	mov.w     0xe14, w2
    25a6:	02 81 b9    	mul.ss    w0, w2, w2
    25a8:	b1 70 80    	mov.w     0xe16, w1
    25aa:	01 01 41    	add.w     w2, w1, w2
    25ac:	00 00 e8    	inc.w     w0, w0
    25ae:	94 70 80    	mov.w     0xe12, w4
    25b0:	11 00 09    	repeat    #0x11
    25b2:	04 80 d8    	div.uw    w0, w4
    25b4:	71 70 88    	mov.w     w1, 0xe0e
    25b6:	10 2e ed    	dec.w     0xe10
    25b8:	02 00 78    	mov.w     w2, w0

000025ba <.L178>:
    25ba:	00 40 91    	mov.b     [w0+128], w0
    25bc:	60 11 b8    	mul.uu    w2, #0x0, w2
    25be:	11 0e 20    	mov.w     #0xe1, w1
    25c0:	0c 1a 07    	rcall     0x59da <_uwl_MCPS_DATA_confirm>
    25c2:	fd 4e a9    	bclr.b    0xefd, #0x2
    25c4:	fd 6e a9    	bclr.b    0xefd, #0x3

000025c6 <.eb>:
    25c6:	4f 05 be    	mov.d     [--w15], w10
    25c8:	4f 04 be    	mov.d     [--w15], w8
    25ca:	00 80 fa    	ulnk      
    25cc:	00 00 06    	return    
    25ce:	a8 fe 37    	bra       0x2320 <.L241>

000025d0 <.L236>:
    25d0:	00 e0 20    	mov.w     #0xe00, w0
    25d2:	03 1b 07    	rcall     0x5bda <_list_iter_front>
    25d4:	00 04 78    	mov.w     w0, w8
    25d6:	63 00 40    	add.w     w0, #0x3, w0
    25d8:	10 41 78    	mov.b     [w0], w2
    25da:	e2 ef 9f    	mov.b     w2, [w15-18]
    25dc:	10 40 90    	mov.b     [w0+1], w0
    25de:	f0 ef 9f    	mov.b     w0, [w15-17]
    25e0:	ec 85 57    	sub.w     w15, #0xc, w11
    25e2:	65 00 44    	add.w     w8, #0x5, w0
    25e4:	03 00 09    	repeat    #0x3
    25e6:	b0 5d 78    	mov.b     [w0++], [w11++]
    25e8:	4b 00 b1    	sub.w     #0x4, w11
    25ea:	40 00 b1    	sub.w     #0x4, w0
    25ec:	70 85 57    	sub.w     w15, #0x10, w10
    25ee:	69 00 44    	add.w     w8, #0x9, w0
    25f0:	03 00 09    	repeat    #0x3
    25f2:	30 5d 78    	mov.b     [w0++], [w10++]
    25f4:	4a 00 b1    	sub.w     #0x4, w10
    25f6:	40 00 b1    	sub.w     #0x4, w0
    25f8:	2f b9 97    	mov.w     [w15-12], w2
    25fa:	bf b9 97    	mov.w     [w15-10], w3
    25fc:	e0 70 80    	mov.w     0xe1c, w0
    25fe:	f1 70 80    	mov.w     0xe1e, w1
    2600:	80 0f 51    	sub.w     w2, w0, [w15]
    2602:	81 8f 59    	subb.w    w3, w1, [w15]
    2604:	6b 00 32    	bra       Z, 0x26dc <.L183>
    2606:	0f b9 97    	mov.w     [w15-16], w2
    2608:	9f b9 97    	mov.w     [w15-14], w3
    260a:	00 71 80    	mov.w     0xe20, w0
    260c:	11 71 80    	mov.w     0xe22, w1
    260e:	80 0f 51    	sub.w     w2, w0, [w15]
    2610:	81 8f 59    	subb.w    w3, w1, [w15]
    2612:	64 00 32    	bra       Z, 0x26dc <.L183>
    2614:	80 44 eb    	clr.b     w9
    2616:	d0 70 80    	mov.w     0xe1a, w0
    2618:	7f b1 97    	mov.w     [w15-18], w2
    261a:	80 0f 51    	sub.w     w2, w0, [w15]
    261c:	5f 00 32    	bra       Z, 0x26dc <.L183>

0000261e <.L186>:
    261e:	00 e0 20    	mov.w     #0xe00, w0
    2620:	e7 1a 07    	rcall     0x5bf0 <_list_iter_next>
    2622:	00 04 78    	mov.w     w0, w8
    2624:	89 44 e8    	inc.b     w9, w9
    2626:	63 00 40    	add.w     w0, #0x3, w0
    2628:	90 40 78    	mov.b     [w0], w1
    262a:	e1 ef 9f    	mov.b     w1, [w15-18]
    262c:	10 40 90    	mov.b     [w0+1], w0
    262e:	f0 ef 9f    	mov.b     w0, [w15-17]
    2630:	65 00 44    	add.w     w8, #0x5, w0
    2632:	03 00 09    	repeat    #0x3
    2634:	b0 5d 78    	mov.b     [w0++], [w11++]
    2636:	4b 00 b1    	sub.w     #0x4, w11
    2638:	40 00 b1    	sub.w     #0x4, w0
    263a:	69 00 44    	add.w     w8, #0x9, w0
    263c:	03 00 09    	repeat    #0x3
    263e:	30 5d 78    	mov.b     [w0++], [w10++]
    2640:	4a 00 b1    	sub.w     #0x4, w10
    2642:	40 00 b1    	sub.w     #0x4, w0
    2644:	2f b9 97    	mov.w     [w15-12], w2
    2646:	bf b9 97    	mov.w     [w15-10], w3
    2648:	e0 70 80    	mov.w     0xe1c, w0
    264a:	f1 70 80    	mov.w     0xe1e, w1
    264c:	80 0f 51    	sub.w     w2, w0, [w15]
    264e:	81 8f 59    	subb.w    w3, w1, [w15]
    2650:	0b 00 32    	bra       Z, 0x2668 <.L206>
    2652:	0f b9 97    	mov.w     [w15-16], w2
    2654:	9f b9 97    	mov.w     [w15-14], w3
    2656:	00 71 80    	mov.w     0xe20, w0
    2658:	11 71 80    	mov.w     0xe22, w1
    265a:	80 0f 51    	sub.w     w2, w0, [w15]
    265c:	81 8f 59    	subb.w    w3, w1, [w15]
    265e:	04 00 32    	bra       Z, 0x2668 <.L206>
    2660:	d0 70 80    	mov.w     0xe1a, w0
    2662:	7f b1 97    	mov.w     [w15-18], w2
    2664:	80 0f 51    	sub.w     w2, w0, [w15]
    2666:	db ff 3a    	bra       NZ, 0x261e <.L186>

00002668 <.L206>:
    2668:	89 80 fb    	ze        w9, w1

0000266a <.L189>:
    266a:	00 e0 20    	mov.w     #0xe00, w0
    266c:	74 1a 07    	rcall     0x5b56 <_list_extract>
    266e:	18 0e a9    	bclr.b    0xe18, #0x0
    2670:	56 ff 37    	bra       0x251e <.L193>

00002672 <.L122>:
    2672:	48 20 de    	lsr.w     w4, #0x8, w0
    2674:	63 40 40    	add.b     w0, #0x3, w0
    2676:	63 00 60    	and.w     w0, #0x3, w0
    2678:	48 00 dd    	sl.w      w0, #0x8, w0
    267a:	f1 cf 2f    	mov.w     #0xfcff, w1
    267c:	81 00 62    	and.w     w4, w1, w1
    267e:	00 82 70    	ior.w     w1, w0, w4
    2680:	e4 77 88    	mov.w     w4, 0xefc
    2682:	48 20 de    	lsr.w     w4, #0x8, w0
    2684:	63 00 60    	and.w     w0, #0x3, w0
    2686:	42 40 a9    	bclr.b    0x42, #0x2
    2688:	47 fe 3c    	bra       GT, 0x2318 <.L202>
    268a:	18 0e ab    	btst.b    0xe18, #0x0
    268c:	3a ff 32    	bra       Z, 0x2502 <.L181>
    268e:	00 e0 20    	mov.w     #0xe00, w0
    2690:	a4 1a 07    	rcall     0x5bda <_list_iter_front>
    2692:	00 04 78    	mov.w     w0, w8
    2694:	63 00 40    	add.w     w0, #0x3, w0
    2696:	10 41 78    	mov.b     [w0], w2
    2698:	e2 ef 9f    	mov.b     w2, [w15-18]
    269a:	10 40 90    	mov.b     [w0+1], w0
    269c:	f0 ef 9f    	mov.b     w0, [w15-17]
    269e:	ec 85 57    	sub.w     w15, #0xc, w11
    26a0:	65 00 44    	add.w     w8, #0x5, w0
    26a2:	03 00 09    	repeat    #0x3
    26a4:	b0 5d 78    	mov.b     [w0++], [w11++]
    26a6:	4b 00 b1    	sub.w     #0x4, w11
    26a8:	40 00 b1    	sub.w     #0x4, w0
    26aa:	70 85 57    	sub.w     w15, #0x10, w10
    26ac:	69 00 44    	add.w     w8, #0x9, w0
    26ae:	03 00 09    	repeat    #0x3
    26b0:	30 5d 78    	mov.b     [w0++], [w10++]
    26b2:	4a 00 b1    	sub.w     #0x4, w10
    26b4:	40 00 b1    	sub.w     #0x4, w0
    26b6:	e2 70 80    	mov.w     0xe1c, w2
    26b8:	f3 70 80    	mov.w     0xe1e, w3
    26ba:	2f b8 97    	mov.w     [w15-12], w0
    26bc:	bf b8 97    	mov.w     [w15-10], w1
    26be:	80 0f 51    	sub.w     w2, w0, [w15]
    26c0:	81 8f 59    	subb.w    w3, w1, [w15]
    26c2:	0c 00 32    	bra       Z, 0x26dc <.L183>
    26c4:	02 71 80    	mov.w     0xe20, w2
    26c6:	13 71 80    	mov.w     0xe22, w3
    26c8:	0f b8 97    	mov.w     [w15-16], w0
    26ca:	9f b8 97    	mov.w     [w15-14], w1
    26cc:	80 0f 51    	sub.w     w2, w0, [w15]
    26ce:	81 8f 59    	subb.w    w3, w1, [w15]
    26d0:	05 00 32    	bra       Z, 0x26dc <.L183>
    26d2:	80 44 eb    	clr.b     w9
    26d4:	d0 70 80    	mov.w     0xe1a, w0
    26d6:	ff b0 97    	mov.w     [w15-18], w1
    26d8:	81 0f 50    	sub.w     w0, w1, [w15]
    26da:	0b 00 3a    	bra       NZ, 0x26f2 <.L137>

000026dc <.L183>:
    26dc:	80 00 eb    	clr.w     w1
    26de:	00 e0 20    	mov.w     #0xe00, w0
    26e0:	3a 1a 07    	rcall     0x5b56 <_list_extract>
    26e2:	18 0e a9    	bclr.b    0xe18, #0x0
    26e4:	1c ff 37    	bra       0x251e <.L193>

000026e6 <.L233>:
    26e6:	18 0e ab    	btst.b    0xe18, #0x0
    26e8:	17 fe 32    	bra       Z, 0x2318 <.L202>
    26ea:	fd 4e a9    	bclr.b    0xefd, #0x2
    26ec:	fd 6e a8    	bset.b    0xefd, #0x3
    26ee:	e4 77 80    	mov.w     0xefc, w4
    26f0:	f6 fe 37    	bra       0x24de <.L238>

000026f2 <.L137>:
    26f2:	00 e0 20    	mov.w     #0xe00, w0
    26f4:	7d 1a 07    	rcall     0x5bf0 <_list_iter_next>
    26f6:	00 04 78    	mov.w     w0, w8
    26f8:	89 44 e8    	inc.b     w9, w9
    26fa:	63 00 40    	add.w     w0, #0x3, w0
    26fc:	90 40 78    	mov.b     [w0], w1
    26fe:	e1 ef 9f    	mov.b     w1, [w15-18]
    2700:	10 40 90    	mov.b     [w0+1], w0
    2702:	f0 ef 9f    	mov.b     w0, [w15-17]
    2704:	65 00 44    	add.w     w8, #0x5, w0
    2706:	03 00 09    	repeat    #0x3
    2708:	b0 5d 78    	mov.b     [w0++], [w11++]
    270a:	4b 00 b1    	sub.w     #0x4, w11
    270c:	40 00 b1    	sub.w     #0x4, w0
    270e:	69 00 44    	add.w     w8, #0x9, w0
    2710:	03 00 09    	repeat    #0x3
    2712:	30 5d 78    	mov.b     [w0++], [w10++]
    2714:	4a 00 b1    	sub.w     #0x4, w10
    2716:	40 00 b1    	sub.w     #0x4, w0
    2718:	e2 70 80    	mov.w     0xe1c, w2
    271a:	f3 70 80    	mov.w     0xe1e, w3
    271c:	2f b8 97    	mov.w     [w15-12], w0
    271e:	bf b8 97    	mov.w     [w15-10], w1
    2720:	80 0f 51    	sub.w     w2, w0, [w15]
    2722:	81 8f 59    	subb.w    w3, w1, [w15]
    2724:	a1 ff 32    	bra       Z, 0x2668 <.L206>
    2726:	02 71 80    	mov.w     0xe20, w2
    2728:	13 71 80    	mov.w     0xe22, w3
    272a:	0f b8 97    	mov.w     [w15-16], w0
    272c:	9f b8 97    	mov.w     [w15-14], w1
    272e:	80 0f 51    	sub.w     w2, w0, [w15]
    2730:	81 8f 59    	subb.w    w3, w1, [w15]
    2732:	9a ff 32    	bra       Z, 0x2668 <.L206>
    2734:	d0 70 80    	mov.w     0xe1a, w0
    2736:	7f b1 97    	mov.w     [w15-18], w2
    2738:	82 0f 50    	sub.w     w0, w2, [w15]
    273a:	db ff 3a    	bra       NZ, 0x26f2 <.L137>

0000273c <.bb>:
    273c:	89 80 fb    	ze        w9, w1
    273e:	95 ff 37    	bra       0x266a <.L189>

00002740 <.L198>:
    2740:	08 40 91    	mov.b     [w8+128], w0
    2742:	60 11 b8    	mul.uu    w2, #0x0, w2
    2744:	11 0e 20    	mov.w     #0xe1, w1
    2746:	49 19 07    	rcall     0x59da <_uwl_MCPS_DATA_confirm>
    2748:	fd 4e a9    	bclr.b    0xefd, #0x2
    274a:	fd 6e a9    	bclr.b    0xefd, #0x3
    274c:	f6 fe 37    	bra       0x253a <.L239>

0000274e <.L108>:
    274e:	72 70 80    	mov.w     0xe0e, w2
    2750:	a0 70 80    	mov.w     0xe14, w0
    2752:	00 91 b9    	mul.ss    w2, w0, w2
    2754:	b0 70 80    	mov.w     0xe16, w0
    2756:	00 04 41    	add.w     w2, w0, w8
    2758:	88 04 78    	mov.w     w8, w9
    275a:	fe fe 37    	bra       0x2558 <.L110>

0000275c <.L115>:
    275c:	20 77 80    	mov.w     0xee4, w0

0000275e <.eb>:
    275e:	00 01 41    	add.w     w2, w0, w2
    2760:	e0 81 49    	addc.w    w3, #0x0, w3
    2762:	80 77 80    	mov.w     0xef0, w0
    2764:	91 77 80    	mov.w     0xef2, w1
    2766:	80 0f 51    	sub.w     w2, w0, [w15]
    2768:	81 8f 59    	subb.w    w3, w1, [w15]
    276a:	fe fd 3e    	bra       GTU, 0x2368 <.L179>
    276c:	0e ff 37    	bra       0x258a <.L118>

0000276e <.L111>:
    276e:	18 0e ab    	btst.b    0xe18, #0x0
    2770:	d3 fd 32    	bra       Z, 0x2318 <.L202>
    2772:	fd 4e a9    	bclr.b    0xefd, #0x2
    2774:	fd 6e a8    	bset.b    0xefd, #0x3
    2776:	e4 77 80    	mov.w     0xefc, w4
    2778:	0b ff 37    	bra       0x2590 <.L240>

0000277a <_uwl_mac_superframe_stop>:
    277a:	20 00 20    	mov.w     #0x2, w0
    277c:	cb 26 07    	rcall     0x7514 <_EE_alarm_CancelAlarm>

0000277e <.bb>:
    277e:	30 00 20    	mov.w     #0x3, w0
    2780:	c9 26 07    	rcall     0x7514 <_EE_alarm_CancelAlarm>

00002782 <.bb>:
    2782:	40 00 20    	mov.w     #0x4, w0

00002784 <.eb>:
    2784:	c7 26 37    	bra       0x7514 <_EE_alarm_CancelAlarm>

00002786 <_on_timeslot_start>:
    2786:	08 00 fa    	lnk       #0x8
    2788:	88 9f be    	mov.d     w8, [w15++]
    278a:	8a 9f be    	mov.d     w10, [w15++]
    278c:	8c 9f be    	mov.d     w12, [w15++]
    278e:	36 cf bf    	mov.b     0xf36, WREG
    2790:	00 80 fb    	ze        w0, w0
    2792:	00 00 e8    	inc.w     w0, w0
    2794:	02 01 20    	mov.w     #0x10, w2
    2796:	11 00 09    	repeat    #0x11
    2798:	02 00 d8    	div.sw    w0, w2
    279a:	01 00 78    	mov.w     w1, w0
    279c:	36 ef b7    	mov.b     WREG, 0xf36
    279e:	01 04 e0    	cp0.b     w1
    27a0:	74 00 3a    	bra       NZ, 0x288a <.L248>
    27a2:	a0 79 80    	mov.w     0xf34, w0
    27a4:	00 08 a3    	btst.z    w0, #0x0
    27a6:	b7 01 3a    	bra       NZ, 0x2b16 <.L352>
    27a8:	00 38 a3    	btst.z    w0, #0x3
    27aa:	41 01 32    	bra       Z, 0x2a2e <.L266>

000027ac <.bb>:
    27ac:	43 71 80    	mov.w     0xe28, w3
    27ae:	66 84 61    	and.w     w3, #0x6, w8
    27b0:	a6 02 3a    	bra       NZ, 0x2cfe <.L353>
    27b2:	48 19 de    	lsr.w     w3, #0x8, w2
    27b4:	6f 41 61    	and.b     w2, #0xf, w2
    27b6:	82 40 e8    	inc.b     w2, w1
    27b8:	ef 80 60    	and.w     w1, #0xf, w1
    27ba:	c8 08 dd    	sl.w      w1, #0x8, w1
    27bc:	f0 0f 2f    	mov.w     #0xf0ff, w0
    27be:	00 80 61    	and.w     w3, w0, w0
    27c0:	01 00 70    	ior.w     w0, w1, w0
    27c2:	40 71 88    	mov.w     w0, 0xe28
    27c4:	02 81 fb    	ze        w2, w2
    27c6:	e4 0f 51    	sub.w     w2, #0x4, [w15]
    27c8:	c7 02 3c    	bra       GT, 0x2d58 <.L354>

000027ca <.L270>:
    27ca:	34 af a9    	bclr.b    0xf34, #0x5
    27cc:	34 4f ab    	btst.b    0xf34, #0x2
    27ce:	02 00 32    	bra       Z, 0x27d4 <.L272>
    27d0:	29 ae ab    	btst.b    0xe29, #0x5
    27d2:	ea 02 32    	bra       Z, 0x2da8 <.L355>

000027d4 <.L272>:
    27d4:	30 00 20    	mov.w     #0x3, w0
    27d6:	23 26 07    	rcall     0x741e <_EE_fp_GetResource>

000027d8 <.eb>:
    27d8:	40 71 80    	mov.w     0xe28, w0
    27da:	66 00 60    	and.w     w0, #0x6, w0
    27dc:	63 02 32    	bra       Z, 0x2ca4 <.L276>

000027de <.bb>:
    27de:	b8 c8 bf    	mov.b     0x8b8, WREG
    27e0:	00 80 fb    	ze        w0, w0
    27e2:	3c 00 20    	mov.w     #0x3, w12
    27e4:	0d 00 20    	mov.w     #0x0, w13

000027e6 <.LB1531>:
    27e6:	00 00 e9    	dec.w     w0, w0
    27e8:	03 00 33    	bra       N, 0x27f0 <.LE1531>
    27ea:	0c 06 46    	add.w     w12, w12, w12
    27ec:	8d 86 4e    	addc.w    w13, w13, w13
    27ee:	fb ff 37    	bra       0x27e6 <.LB1531>

000027f0 <.LE1531>:
    27f0:	20 77 80    	mov.w     0xee4, w0
    27f2:	61 01 b8    	mul.uu    w0, #0x1, w2
    27f4:	82 bf 9f    	mov.w     w2, [w15-16]
    27f6:	93 bf 9f    	mov.w     w3, [w15-14]
    27f8:	00 05 eb    	clr.w     w10
    27fa:	c9 16 23    	mov.w     #0x316c, w9
    27fc:	0b 6a 28    	mov.w     #0x86a0, w11
    27fe:	68 f5 20    	mov.w     #0xf56, w8

00002800 <.L278>:
    2800:	18 00 78    	mov.w     [w8], w0
    2802:	66 04 44    	add.w     w8, #0x6, w8
    2804:	44 00 de    	lsr.w     w0, #0x4, w0
    2806:	6f 40 60    	and.b     w0, #0xf, w0

00002808 <.bb>:
    2808:	37 02 32    	bra       Z, 0x2c78 <.L279>
    280a:	00 80 fb    	ze        w0, w0
    280c:	01 00 20    	mov.w     #0x0, w1
    280e:	0c 01 b8    	mul.uu    w0, w12, w2
    2810:	0d 80 b9    	mul.ss    w0, w13, w0
    2812:	80 81 41    	add.w     w3, w0, w3

00002814 <.bb>:
    2814:	0b 10 b8    	mul.uu    w2, w11, w0
    2816:	01 02 41    	add.w     w2, w1, w4
    2818:	0b 99 b9    	mul.ss    w3, w11, w2
    281a:	82 00 42    	add.w     w4, w2, w1

0000281c <.eb>:
    281c:	02 71 22    	mov.w     #0x2710, w2
    281e:	03 00 20    	mov.w     #0x0, w3
    2820:	19 ee 07    	rcall     0x454
    2822:	0f b9 97    	mov.w     [w15-16], w2
    2824:	9f b9 97    	mov.w     [w15-14], w3
    2826:	82 1c 50    	sub.w     w0, w2, [w9++]
    2828:	83 94 58    	subb.w    w1, w3, [w9--]
    282a:	0a 05 e8    	inc.w     w10, w10
    282c:	e4 84 44    	add.w     w9, #0x4, w9

0000282e <.eb>:
    282e:	e7 0f 55    	sub.w     w10, #0x7, [w15]
    2830:	e7 ff 3a    	bra       NZ, 0x2800 <.L278>

00002832 <.L282>:
    2832:	30 00 20    	mov.w     #0x3, w0
    2834:	cf 25 07    	rcall     0x73d4 <_EE_fp_ReleaseResource>

00002836 <.L275>:
    2836:	88 8b 20    	mov.w     #0x8b8, w8
    2838:	18 44 78    	mov.b     [w8], w8
    283a:	33 89 20    	mov.w     #0x893, w3
    283c:	93 41 78    	mov.b     [w3], w3
    283e:	03 44 e1    	cp.b      w8, w3
    2840:	02 00 31    	bra       C, 0x2846 <.L285>
    2842:	34 0f a8    	bset.b    0xf34, #0x0
    2844:	34 2f a8    	bset.b    0xf34, #0x1

00002846 <.L285>:
    2846:	22 71 80    	mov.w     0xe24, w2
    2848:	43 11 de    	lsr.w     w2, #0x3, w2
    284a:	7f 41 61    	and.b     w2, #0x1f, w2
    284c:	02 81 fb    	ze        w2, w2
    284e:	03 00 20    	mov.w     #0x0, w3

00002850 <.bb>:
    2850:	04 6a 28    	mov.w     #0x86a0, w4
    2852:	04 10 b8    	mul.uu    w2, w4, w0
    2854:	82 80 40    	add.w     w1, w2, w1

00002856 <.eb>:
    2856:	02 71 22    	mov.w     #0x2710, w2
    2858:	03 00 20    	mov.w     #0x0, w3
    285a:	fc ed 07    	rcall     0x454
    285c:	08 82 fb    	ze        w8, w4
    285e:	32 00 20    	mov.w     #0x3, w2
    2860:	03 00 20    	mov.w     #0x0, w3

00002862 <.LB1624>:
    2862:	04 02 e9    	dec.w     w4, w4
    2864:	03 00 33    	bra       N, 0x286c <.LE1624>
    2866:	02 01 41    	add.w     w2, w2, w2
    2868:	83 81 49    	addc.w    w3, w3, w3
    286a:	fb ff 37    	bra       0x2862 <.LB1624>

0000286c <.LE1624>:
    286c:	00 13 b8    	mul.uu    w2, w0, w6
    286e:	03 82 b9    	mul.ss    w0, w3, w4
    2870:	07 02 42    	add.w     w4, w7, w4
    2872:	01 91 b9    	mul.ss    w2, w1, w2
    2874:	82 03 42    	add.w     w4, w2, w7
    2876:	86 77 88    	mov.w     w6, 0xef0
    2878:	97 77 88    	mov.w     w7, 0xef2
    287a:	28 ce a8    	bset.b    0xe28, #0x6
    287c:	28 ee a9    	bclr.b    0xe28, #0x7
    287e:	29 ae a9    	bclr.b    0xe29, #0x5

00002880 <.L346>:
    2880:	4f 06 be    	mov.d     [--w15], w12
    2882:	4f 05 be    	mov.d     [--w15], w10
    2884:	4f 04 be    	mov.d     [--w15], w8
    2886:	00 80 fa    	ulnk      
    2888:	00 00 06    	return    

0000288a <.L248>:
    288a:	e1 cf 50    	sub.b     w1, #0x1, [w15]
    288c:	96 01 32    	bra       Z, 0x2bba <.L356>

0000288e <.L300>:
    288e:	a5 48 e2    	cp0.b     0x8a5
    2890:	f7 ff 32    	bra       Z, 0x2880 <.L346>

00002892 <.L365>:
    2892:	61 f3 20    	mov.w     #0xf36, w1
    2894:	91 40 78    	mov.b     [w1], w1
    2896:	81 80 fb    	ze        w1, w1
    2898:	a0 79 80    	mov.w     0xf34, w0
    289a:	4a 00 de    	lsr.w     w0, #0xa, w0
    289c:	7f 00 60    	and.w     w0, #0x1f, w0
    289e:	80 8f 50    	sub.w     w1, w0, [w15]
    28a0:	af 01 32    	bra       Z, 0x2c00 <.L357>

000028a2 <.L322>:
    28a2:	41 71 80    	mov.w     0xe28, w1
    28a4:	66 80 60    	and.w     w1, #0x6, w0
    28a6:	85 00 32    	bra       Z, 0x29b2 <.L324>

000028a8 <.bb>:
    28a8:	01 0c b2    	and.w     #0xc0, w1
    28aa:	00 08 20    	mov.w     #0x80, w0
    28ac:	80 8f 50    	sub.w     w1, w0, [w15]
    28ae:	e8 ff 3a    	bra       NZ, 0x2880 <.L346>
    28b0:	a3 79 80    	mov.w     0xf34, w3
    28b2:	47 18 de    	lsr.w     w3, #0x7, w0
    28b4:	67 00 60    	and.w     w0, #0x7, w0
    28b6:	66 00 b9    	mul.su    w0, #0x6, w0
    28b8:	62 f5 20    	mov.w     #0xf56, w2
    28ba:	00 05 41    	add.w     w2, w0, w10
    28bc:	36 cf bf    	mov.b     0xf36, WREG
    28be:	00 81 fb    	ze        w0, w2
    28c0:	ca 19 de    	lsr.w     w3, #0xa, w3
    28c2:	ff 81 61    	and.w     w3, #0x1f, w3
    28c4:	83 0f 51    	sub.w     w2, w3, [w15]
    28c6:	45 00 32    	bra       Z, 0x2952 <.L327>
    28c8:	1a 00 78    	mov.w     [w10], w0
    28ca:	ef 00 60    	and.w     w0, #0xf, w1
    28cc:	44 00 de    	lsr.w     w0, #0x4, w0
    28ce:	6f 00 60    	and.w     w0, #0xf, w0
    28d0:	80 80 40    	add.w     w1, w0, w1
    28d2:	81 0f 51    	sub.w     w2, w1, [w15]
    28d4:	d5 ff 3a    	bra       NZ, 0x2880 <.L346>

000028d6 <.bb>:
    28d6:	20 00 20    	mov.w     #0x2, w0
    28d8:	a2 25 07    	rcall     0x741e <_EE_fp_GetResource>

000028da <.eb>:
    28da:	34 8f ab    	btst.b    0xf34, #0x4
    28dc:	eb 02 3a    	bra       NZ, 0x2eb4 <.L358>

000028de <.L330>:
    28de:	30 00 20    	mov.w     #0x3, w0
    28e0:	9e 25 07    	rcall     0x741e <_EE_fp_GetResource>

000028e2 <.eb>:
    28e2:	a0 79 80    	mov.w     0xf34, w0
    28e4:	47 00 de    	lsr.w     w0, #0x7, w0
    28e6:	67 44 60    	and.b     w0, #0x7, w8
    28e8:	1a 00 78    	mov.w     [w10], w0
    28ea:	44 00 de    	lsr.w     w0, #0x4, w0
    28ec:	6f 40 60    	and.b     w0, #0xf, w0

000028ee <.bb>:
    28ee:	35 03 32    	bra       Z, 0x2f5a <.L332>
    28f0:	00 83 fb    	ze        w0, w6
    28f2:	07 00 20    	mov.w     #0x0, w7
    28f4:	82 8b 20    	mov.w     #0x8b8, w2
    28f6:	12 41 78    	mov.b     [w2], w2
    28f8:	02 81 fb    	ze        w2, w2
    28fa:	30 00 20    	mov.w     #0x3, w0
    28fc:	01 00 20    	mov.w     #0x0, w1

000028fe <.LB1751>:
    28fe:	02 01 e9    	dec.w     w2, w2
    2900:	03 00 33    	bra       N, 0x2908 <.LE1751>
    2902:	00 00 40    	add.w     w0, w0, w0
    2904:	81 80 48    	addc.w    w1, w1, w1
    2906:	fb ff 37    	bra       0x28fe <.LB1751>

00002908 <.LE1751>:
    2908:	00 32 b8    	mul.uu    w6, w0, w4
    290a:	01 b3 b9    	mul.ss    w6, w1, w6
    290c:	86 82 42    	add.w     w5, w6, w5

0000290e <.bb>:
    290e:	02 6a 28    	mov.w     #0x86a0, w2
    2910:	02 20 b8    	mul.uu    w4, w2, w0
    2912:	01 03 42    	add.w     w4, w1, w6
    2914:	02 a9 b9    	mul.ss    w5, w2, w2
    2916:	82 00 43    	add.w     w6, w2, w1

00002918 <.eb>:
    2918:	08 84 fb    	ze        w8, w8
    291a:	42 44 dd    	sl.w      w8, #0x2, w8
    291c:	c2 16 23    	mov.w     #0x316c, w2
    291e:	02 04 44    	add.w     w8, w2, w8
    2920:	02 71 22    	mov.w     #0x2710, w2
    2922:	03 00 20    	mov.w     #0x0, w3
    2924:	97 ed 07    	rcall     0x454
    2926:	22 77 80    	mov.w     0xee4, w2
    2928:	02 00 50    	sub.w     w0, w2, w0
    292a:	e0 80 58    	subb.w    w1, #0x0, w1
    292c:	00 8c be    	mov.d     w0, [w8]

0000292e <.bb>:
    292e:	30 00 20    	mov.w     #0x3, w0
    2930:	51 25 07    	rcall     0x73d4 <_EE_fp_ReleaseResource>

00002932 <.eb>:
    2932:	a0 79 80    	mov.w     0xf34, w0
    2934:	47 00 de    	lsr.w     w0, #0x7, w0
    2936:	67 40 60    	and.b     w0, #0x7, w0
    2938:	1d 07 07    	rcall     0x3774 <_uwl_gts_queue_flush>
    293a:	a2 79 80    	mov.w     0xf34, w2
    293c:	47 10 de    	lsr.w     w2, #0x7, w0
    293e:	00 40 e8    	inc.b     w0, w0
    2940:	67 00 60    	and.w     w0, #0x7, w0
    2942:	47 00 dd    	sl.w      w0, #0x7, w0
    2944:	f1 c7 2f    	mov.w     #0xfc7f, w1
    2946:	01 01 61    	and.w     w2, w1, w2
    2948:	00 01 71    	ior.w     w2, w0, w2
    294a:	a2 79 88    	mov.w     w2, 0xf34
    294c:	66 05 45    	add.w     w10, #0x6, w10

0000294e <.bb>:
    294e:	20 00 20    	mov.w     #0x2, w0
    2950:	41 25 07    	rcall     0x73d4 <_EE_fp_ReleaseResource>

00002952 <.L327>:
    2952:	00 10 20    	mov.w     #0x100, w0
    2954:	1a 00 60    	and.w     w0, [w10], w0
    2956:	3e 02 32    	bra       Z, 0x2dd4 <.L359>
    2958:	34 af a8    	bset.b    0xf34, #0x5
    295a:	34 8f a8    	bset.b    0xf34, #0x4

0000295c <.bb>:
    295c:	68 7a 80    	mov.w     0xf4c, w8
    295e:	79 7a 80    	mov.w     0xf4e, w9

00002960 <.eb>:
    2960:	22 71 80    	mov.w     0xe24, w2
    2962:	4c 11 de    	lsr.w     w2, #0xc, w2
    2964:	02 81 fb    	ze        w2, w2
    2966:	03 00 20    	mov.w     #0x0, w3
    2968:	b8 c8 bf    	mov.b     0x8b8, WREG
    296a:	00 80 fb    	ze        w0, w0
    296c:	34 00 20    	mov.w     #0x3, w4
    296e:	05 00 20    	mov.w     #0x0, w5

00002970 <.LB1833>:
    2970:	00 00 e9    	dec.w     w0, w0
    2972:	03 00 33    	bra       N, 0x297a <.LE1833>
    2974:	04 02 42    	add.w     w4, w4, w4
    2976:	85 82 4a    	addc.w    w5, w5, w5
    2978:	fb ff 37    	bra       0x2970 <.LB1833>

0000297a <.LE1833>:
    297a:	04 10 b8    	mul.uu    w2, w4, w0
    297c:	05 91 b9    	mul.ss    w2, w5, w2
    297e:	82 80 40    	add.w     w1, w2, w1
    2980:	00 04 44    	add.w     w8, w0, w8
    2982:	81 84 4c    	addc.w    w9, w1, w9
    2984:	48 77 88    	mov.w     w8, 0xee8
    2986:	59 77 88    	mov.w     w9, 0xeea

00002988 <.bb>:
    2988:	50 00 20    	mov.w     #0x5, w0
    298a:	c4 25 07    	rcall     0x7514 <_EE_alarm_CancelAlarm>
    298c:	60 22 b8    	mul.uu    w4, #0x0, w4
    298e:	22 00 20    	mov.w     #0x2, w2
    2990:	03 00 20    	mov.w     #0x0, w3
    2992:	50 00 20    	mov.w     #0x5, w0
    2994:	a1 26 07    	rcall     0x76d8 <_EE_alarm_SetRelAlarm>

00002996 <.eb>:
    2996:	1a 00 78    	mov.w     [w10], w0
    2998:	ef 00 60    	and.w     w0, #0xf, w1
    299a:	44 00 de    	lsr.w     w0, #0x4, w0
    299c:	6f 00 60    	and.w     w0, #0xf, w0
    299e:	80 80 40    	add.w     w1, w0, w1
    29a0:	ef 8f 50    	sub.w     w1, #0xf, [w15]
    29a2:	6e ff 3a    	bra       NZ, 0x2880 <.L346>

000029a4 <.L349>:
    29a4:	34 cf a8    	bset.b    0xf34, #0x6

000029a6 <.eb>:
    29a6:	4f 06 be    	mov.d     [--w15], w12
    29a8:	4f 05 be    	mov.d     [--w15], w10
    29aa:	4f 04 be    	mov.d     [--w15], w8
    29ac:	00 80 fa    	ulnk      
    29ae:	00 00 06    	return    
    29b0:	6c ff 37    	bra       0x288a <.L248>

000029b2 <.L324>:
    29b2:	21 71 80    	mov.w     0xe24, w1
    29b4:	00 00 2f    	mov.w     #0xf000, w0
    29b6:	00 80 60    	and.w     w1, w0, w0
    29b8:	63 ff 32    	bra       Z, 0x2880 <.L346>
    29ba:	36 cf bf    	mov.b     0xf36, WREG
    29bc:	80 81 fb    	ze        w0, w3
    29be:	48 08 de    	lsr.w     w1, #0x8, w0
    29c0:	6f 01 60    	and.w     w0, #0xf, w2
    29c2:	82 8f 51    	sub.w     w3, w2, [w15]
    29c4:	95 02 32    	bra       Z, 0x2ef0 <.L360>
    29c6:	4c 08 de    	lsr.w     w1, #0xc, w0
    29c8:	02 00 40    	add.w     w0, w2, w0
    29ca:	83 0f 50    	sub.w     w0, w3, [w15]
    29cc:	59 ff 3c    	bra       GT, 0x2880 <.L346>
    29ce:	34 af a9    	bclr.b    0xf34, #0x5
    29d0:	34 8f a9    	bclr.b    0xf34, #0x4

000029d2 <.bb>:
    29d2:	30 00 20    	mov.w     #0x3, w0
    29d4:	24 25 07    	rcall     0x741e <_EE_fp_GetResource>

000029d6 <.eb>:
    29d6:	20 71 80    	mov.w     0xe24, w0
    29d8:	4c 00 de    	lsr.w     w0, #0xc, w0

000029da <.bb>:
    29da:	00 04 e0    	cp0.b     w0
    29dc:	b4 02 32    	bra       Z, 0x2f46 <.L343>
    29de:	00 83 fb    	ze        w0, w6
    29e0:	07 00 20    	mov.w     #0x0, w7
    29e2:	82 8b 20    	mov.w     #0x8b8, w2
    29e4:	12 41 78    	mov.b     [w2], w2
    29e6:	02 81 fb    	ze        w2, w2
    29e8:	30 00 20    	mov.w     #0x3, w0
    29ea:	01 00 20    	mov.w     #0x0, w1

000029ec <.LB1931>:
    29ec:	02 01 e9    	dec.w     w2, w2
    29ee:	03 00 33    	bra       N, 0x29f6 <.LE1931>
    29f0:	00 00 40    	add.w     w0, w0, w0
    29f2:	81 80 48    	addc.w    w1, w1, w1
    29f4:	fb ff 37    	bra       0x29ec <.LB1931>

000029f6 <.LE1931>:
    29f6:	00 32 b8    	mul.uu    w6, w0, w4
    29f8:	01 b3 b9    	mul.ss    w6, w1, w6
    29fa:	86 82 42    	add.w     w5, w6, w5

000029fc <.bb>:
    29fc:	02 6a 28    	mov.w     #0x86a0, w2
    29fe:	02 20 b8    	mul.uu    w4, w2, w0
    2a00:	01 03 42    	add.w     w4, w1, w6
    2a02:	02 a9 b9    	mul.ss    w5, w2, w2
    2a04:	82 00 43    	add.w     w6, w2, w1

00002a06 <.eb>:
    2a06:	02 71 22    	mov.w     #0x2710, w2
    2a08:	03 00 20    	mov.w     #0x0, w3
    2a0a:	24 ed 07    	rcall     0x454
    2a0c:	22 77 80    	mov.w     0xee4, w2
    2a0e:	02 00 50    	sub.w     w0, w2, w0
    2a10:	e0 80 58    	subb.w    w1, #0x0, w1
    2a12:	60 8b 89    	mov.w     w0, 0x316c
    2a14:	71 8b 89    	mov.w     w1, 0x316e

00002a16 <.bb>:
    2a16:	30 00 20    	mov.w     #0x3, w0
    2a18:	dd 24 07    	rcall     0x73d4 <_EE_fp_ReleaseResource>

00002a1a <.eb>:
    2a1a:	00 40 eb    	clr.b     w0
    2a1c:	ab 06 07    	rcall     0x3774 <_uwl_gts_queue_flush>

00002a1e <.bb>:
    2a1e:	50 00 20    	mov.w     #0x5, w0
    2a20:	79 25 07    	rcall     0x7514 <_EE_alarm_CancelAlarm>

00002a22 <.L372>:
    2a22:	4f 06 be    	mov.d     [--w15], w12
    2a24:	4f 05 be    	mov.d     [--w15], w10
    2a26:	4f 04 be    	mov.d     [--w15], w8
    2a28:	00 80 fa    	ulnk      
    2a2a:	00 00 06    	return    
    2a2c:	2e ff 37    	bra       0x288a <.L248>

00002a2e <.L266>:
    2a2e:	34 6f a8    	bset.b    0xf34, #0x3

00002a30 <.bb>:
    2a30:	34 cf ab    	btst.b    0xf34, #0x6
    2a32:	ed 00 3a    	bra       NZ, 0x2c0e <.L361>

00002a34 <.L287>:
    2a34:	60 7a 80    	mov.w     0xf4c, w0
    2a36:	71 7a 80    	mov.w     0xf4e, w1
    2a38:	40 77 88    	mov.w     w0, 0xee8
    2a3a:	51 77 88    	mov.w     w1, 0xeea

00002a3c <.bb>:
    2a3c:	43 71 80    	mov.w     0xe28, w3
    2a3e:	66 84 61    	and.w     w3, #0x6, w8
    2a40:	4d 01 3a    	bra       NZ, 0x2cdc <.L362>
    2a42:	48 19 de    	lsr.w     w3, #0x8, w2
    2a44:	6f 41 61    	and.b     w2, #0xf, w2
    2a46:	82 40 e8    	inc.b     w2, w1
    2a48:	ef 80 60    	and.w     w1, #0xf, w1
    2a4a:	c8 08 dd    	sl.w      w1, #0x8, w1
    2a4c:	f0 0f 2f    	mov.w     #0xf0ff, w0
    2a4e:	00 80 61    	and.w     w3, w0, w0
    2a50:	01 00 70    	ior.w     w0, w1, w0
    2a52:	40 71 88    	mov.w     w0, 0xe28
    2a54:	02 81 fb    	ze        w2, w2
    2a56:	e4 0f 51    	sub.w     w2, #0x4, [w15]
    2a58:	5a 01 3c    	bra       GT, 0x2d0e <.L363>

00002a5a <.L298>:
    2a5a:	34 af a9    	bclr.b    0xf34, #0x5
    2a5c:	34 4f ab    	btst.b    0xf34, #0x2
    2a5e:	02 00 32    	bra       Z, 0x2a64 <.L301>
    2a60:	29 ae ab    	btst.b    0xe29, #0x5
    2a62:	ad 01 32    	bra       Z, 0x2dbe <.L364>

00002a64 <.L301>:
    2a64:	30 00 20    	mov.w     #0x3, w0
    2a66:	db 24 07    	rcall     0x741e <_EE_fp_GetResource>

00002a68 <.eb>:
    2a68:	40 71 80    	mov.w     0xe28, w0
    2a6a:	66 00 60    	and.w     w0, #0x6, w0
    2a6c:	11 01 32    	bra       Z, 0x2c90 <.L305>

00002a6e <.bb>:
    2a6e:	b8 c8 bf    	mov.b     0x8b8, WREG
    2a70:	00 80 fb    	ze        w0, w0
    2a72:	3c 00 20    	mov.w     #0x3, w12
    2a74:	0d 00 20    	mov.w     #0x0, w13

00002a76 <.LB2055>:
    2a76:	00 00 e9    	dec.w     w0, w0
    2a78:	03 00 33    	bra       N, 0x2a80 <.LE2055>
    2a7a:	0c 06 46    	add.w     w12, w12, w12
    2a7c:	8d 86 4e    	addc.w    w13, w13, w13
    2a7e:	fb ff 37    	bra       0x2a76 <.LB2055>

00002a80 <.LE2055>:
    2a80:	20 77 80    	mov.w     0xee4, w0
    2a82:	61 01 b8    	mul.uu    w0, #0x1, w2
    2a84:	e2 b7 9f    	mov.w     w2, [w15-20]
    2a86:	f3 b7 9f    	mov.w     w3, [w15-18]
    2a88:	00 05 eb    	clr.w     w10
    2a8a:	c9 16 23    	mov.w     #0x316c, w9
    2a8c:	0b 6a 28    	mov.w     #0x86a0, w11
    2a8e:	68 f5 20    	mov.w     #0xf56, w8

00002a90 <.L307>:
    2a90:	18 00 78    	mov.w     [w8], w0
    2a92:	66 04 44    	add.w     w8, #0x6, w8
    2a94:	44 00 de    	lsr.w     w0, #0x4, w0
    2a96:	6f 40 60    	and.b     w0, #0xf, w0

00002a98 <.bb>:
    2a98:	e8 00 32    	bra       Z, 0x2c6a <.L308>
    2a9a:	00 80 fb    	ze        w0, w0
    2a9c:	01 00 20    	mov.w     #0x0, w1
    2a9e:	0c 01 b8    	mul.uu    w0, w12, w2
    2aa0:	0d 80 b9    	mul.ss    w0, w13, w0
    2aa2:	80 81 41    	add.w     w3, w0, w3

00002aa4 <.bb>:
    2aa4:	0b 10 b8    	mul.uu    w2, w11, w0
    2aa6:	01 02 41    	add.w     w2, w1, w4
    2aa8:	0b 99 b9    	mul.ss    w3, w11, w2
    2aaa:	82 00 42    	add.w     w4, w2, w1

00002aac <.eb>:
    2aac:	02 71 22    	mov.w     #0x2710, w2
    2aae:	03 00 20    	mov.w     #0x0, w3
    2ab0:	d1 ec 07    	rcall     0x454
    2ab2:	6f b1 97    	mov.w     [w15-20], w2
    2ab4:	ff b1 97    	mov.w     [w15-18], w3
    2ab6:	82 1c 50    	sub.w     w0, w2, [w9++]
    2ab8:	83 94 58    	subb.w    w1, w3, [w9--]
    2aba:	0a 05 e8    	inc.w     w10, w10
    2abc:	e4 84 44    	add.w     w9, #0x4, w9

00002abe <.eb>:
    2abe:	e7 0f 55    	sub.w     w10, #0x7, [w15]
    2ac0:	e7 ff 3a    	bra       NZ, 0x2a90 <.L307>

00002ac2 <.L311>:
    2ac2:	30 00 20    	mov.w     #0x3, w0
    2ac4:	87 24 07    	rcall     0x73d4 <_EE_fp_ReleaseResource>

00002ac6 <.L304>:
    2ac6:	88 8b 20    	mov.w     #0x8b8, w8
    2ac8:	18 44 78    	mov.b     [w8], w8
    2aca:	33 89 20    	mov.w     #0x893, w3
    2acc:	93 41 78    	mov.b     [w3], w3
    2ace:	03 44 e1    	cp.b      w8, w3
    2ad0:	02 00 31    	bra       C, 0x2ad6 <.L314>
    2ad2:	34 0f a8    	bset.b    0xf34, #0x0
    2ad4:	34 2f a8    	bset.b    0xf34, #0x1

00002ad6 <.L314>:
    2ad6:	22 71 80    	mov.w     0xe24, w2
    2ad8:	43 11 de    	lsr.w     w2, #0x3, w2
    2ada:	7f 41 61    	and.b     w2, #0x1f, w2
    2adc:	02 81 fb    	ze        w2, w2
    2ade:	03 00 20    	mov.w     #0x0, w3

00002ae0 <.bb>:
    2ae0:	04 6a 28    	mov.w     #0x86a0, w4
    2ae2:	04 10 b8    	mul.uu    w2, w4, w0
    2ae4:	82 80 40    	add.w     w1, w2, w1

00002ae6 <.eb>:
    2ae6:	02 71 22    	mov.w     #0x2710, w2
    2ae8:	03 00 20    	mov.w     #0x0, w3
    2aea:	b4 ec 07    	rcall     0x454
    2aec:	08 82 fb    	ze        w8, w4
    2aee:	32 00 20    	mov.w     #0x3, w2
    2af0:	03 00 20    	mov.w     #0x0, w3

00002af2 <.LB2148>:
    2af2:	04 02 e9    	dec.w     w4, w4
    2af4:	03 00 33    	bra       N, 0x2afc <.LE2148>
    2af6:	02 01 41    	add.w     w2, w2, w2
    2af8:	83 81 49    	addc.w    w3, w3, w3
    2afa:	fb ff 37    	bra       0x2af2 <.LB2148>

00002afc <.LE2148>:
    2afc:	00 13 b8    	mul.uu    w2, w0, w6
    2afe:	03 82 b9    	mul.ss    w0, w3, w4
    2b00:	07 02 42    	add.w     w4, w7, w4
    2b02:	01 91 b9    	mul.ss    w2, w1, w2
    2b04:	82 03 42    	add.w     w4, w2, w7
    2b06:	86 77 88    	mov.w     w6, 0xef0
    2b08:	97 77 88    	mov.w     w7, 0xef2
    2b0a:	28 ce a8    	bset.b    0xe28, #0x6
    2b0c:	28 ee a9    	bclr.b    0xe28, #0x7
    2b0e:	29 ae a9    	bclr.b    0xe29, #0x5

00002b10 <.eb>:
    2b10:	a5 48 e2    	cp0.b     0x8a5
    2b12:	bf fe 3a    	bra       NZ, 0x2892 <.L365>
    2b14:	b5 fe 37    	bra       0x2880 <.L346>

00002b16 <.L352>:
    2b16:	28 ce a8    	bset.b    0xe28, #0x6
    2b18:	28 ee a8    	bset.b    0xe28, #0x7
    2b1a:	34 2f a9    	bclr.b    0xf34, #0x1
    2b1c:	32 89 20    	mov.w     #0x893, w2
    2b1e:	12 41 78    	mov.b     [w2], w2
    2b20:	02 81 fb    	ze        w2, w2
    2b22:	00 03 20    	mov.w     #0x30, w0
    2b24:	01 00 20    	mov.w     #0x0, w1
    2b26:	00 02 be    	mov.d     w0, w4

00002b28 <.LB2182>:
    2b28:	02 01 e9    	dec.w     w2, w2
    2b2a:	03 00 33    	bra       N, 0x2b32 <.LE2182>
    2b2c:	04 02 42    	add.w     w4, w4, w4
    2b2e:	85 82 4a    	addc.w    w5, w5, w5
    2b30:	fb ff 37    	bra       0x2b28 <.LB2182>

00002b32 <.LE2182>:
    2b32:	82 8b 20    	mov.w     #0x8b8, w2
    2b34:	12 41 78    	mov.b     [w2], w2
    2b36:	02 81 fb    	ze        w2, w2

00002b38 <.LB2185>:
    2b38:	02 01 e9    	dec.w     w2, w2
    2b3a:	03 00 33    	bra       N, 0x2b42 <.LE2185>
    2b3c:	00 00 40    	add.w     w0, w0, w0
    2b3e:	81 80 48    	addc.w    w1, w1, w1
    2b40:	fb ff 37    	bra       0x2b38 <.LB2185>

00002b42 <.LE2185>:
    2b42:	00 06 52    	sub.w     w4, w0, w12
    2b44:	81 86 5a    	subb.w    w5, w1, w13

00002b46 <.bb>:
    2b46:	20 00 20    	mov.w     #0x2, w0
    2b48:	e5 24 07    	rcall     0x7514 <_EE_alarm_CancelAlarm>

00002b4a <.bb>:
    2b4a:	30 00 20    	mov.w     #0x3, w0
    2b4c:	e3 24 07    	rcall     0x7514 <_EE_alarm_CancelAlarm>

00002b4e <.bb>:
    2b4e:	40 00 20    	mov.w     #0x4, w0
    2b50:	e1 24 07    	rcall     0x7514 <_EE_alarm_CancelAlarm>

00002b52 <.bb>:
    2b52:	e0 0f 56    	sub.w     w12, #0x0, [w15]
    2b54:	e0 8f 5e    	subb.w    w13, #0x0, [w15]
    2b56:	02 00 3a    	bra       NZ, 0x2b5c <.L252>
    2b58:	2c 00 20    	mov.w     #0x2, w12
    2b5a:	0d 00 20    	mov.w     #0x0, w13

00002b5c <.L252>:
    2b5c:	b8 c8 bf    	mov.b     0x8b8, WREG
    2b5e:	00 80 fb    	ze        w0, w0
    2b60:	3a 00 20    	mov.w     #0x3, w10
    2b62:	0b 00 20    	mov.w     #0x0, w11

00002b64 <.LB2222>:
    2b64:	00 00 e9    	dec.w     w0, w0
    2b66:	03 00 33    	bra       N, 0x2b6e <.LE2222>
    2b68:	0a 05 45    	add.w     w10, w10, w10
    2b6a:	8b 85 4d    	addc.w    w11, w11, w11
    2b6c:	fb ff 37    	bra       0x2b64 <.LB2222>

00002b6e <.LE2222>:
    2b6e:	0c 00 45    	add.w     w10, w12, w0
    2b70:	8d 80 4d    	addc.w    w11, w13, w1
    2b72:	62 04 50    	sub.w     w0, #0x2, w8
    2b74:	e0 84 58    	subb.w    w1, #0x0, w9

00002b76 <.bb>:
    2b76:	a2 01 3a    	bra       NZ, 0x2ebc <.L366>
    2b78:	e0 0f 55    	sub.w     w10, #0x0, [w15]
    2b7a:	e0 8f 5d    	subb.w    w11, #0x0, [w15]
    2b7c:	b7 00 3a    	bra       NZ, 0x2cec <.L257>
    2b7e:	80 00 20    	mov.w     #0x8, w0
    2b80:	98 24 07    	rcall     0x74b2 <_EE_fp_ActivateTask>

00002b82 <.L256>:
    2b82:	e0 0f 56    	sub.w     w12, #0x0, [w15]
    2b84:	e0 8f 5e    	subb.w    w13, #0x0, [w15]
    2b86:	a1 01 3a    	bra       NZ, 0x2eca <.L367>
    2b88:	e0 0f 55    	sub.w     w10, #0x0, [w15]
    2b8a:	e0 8f 5d    	subb.w    w11, #0x0, [w15]
    2b8c:	95 00 3a    	bra       NZ, 0x2cb8 <.L262>
    2b8e:	70 00 20    	mov.w     #0x7, w0
    2b90:	90 24 07    	rcall     0x74b2 <_EE_fp_ActivateTask>

00002b92 <.bb>:
    2b92:	90 00 20    	mov.w     #0x9, w0
    2b94:	8e 24 07    	rcall     0x74b2 <_EE_fp_ActivateTask>
    2b96:	40 00 20    	mov.w     #0x4, w0
    2b98:	bd 24 07    	rcall     0x7514 <_EE_alarm_CancelAlarm>
    2b9a:	14 00 20    	mov.w     #0x1, w4
    2b9c:	05 00 20    	mov.w     #0x0, w5
    2b9e:	04 01 be    	mov.d     w4, w2
    2ba0:	40 00 20    	mov.w     #0x4, w0
    2ba2:	9a 25 07    	rcall     0x76d8 <_EE_alarm_SetRelAlarm>

00002ba4 <.L261>:
    2ba4:	f0 c0 b3    	mov.b     #0xf, w0
    2ba6:	36 ef b7    	mov.b     WREG, 0xf36
    2ba8:	34 af a9    	bclr.b    0xf34, #0x5
    2baa:	34 2f a9    	bclr.b    0xf34, #0x1
    2bac:	34 0f a9    	bclr.b    0xf34, #0x0

00002bae <.L371>:
    2bae:	4f 06 be    	mov.d     [--w15], w12
    2bb0:	4f 05 be    	mov.d     [--w15], w10
    2bb2:	4f 04 be    	mov.d     [--w15], w8
    2bb4:	00 80 fa    	ulnk      
    2bb6:	00 00 06    	return    
    2bb8:	68 fe 37    	bra       0x288a <.L248>

00002bba <.L356>:
    2bba:	34 6f a9    	bclr.b    0xf34, #0x3

00002bbc <.bb>:
    2bbc:	62 7a 80    	mov.w     0xf4c, w2
    2bbe:	73 7a 80    	mov.w     0xf4e, w3

00002bc0 <.eb>:
    2bc0:	40 77 80    	mov.w     0xee8, w0
    2bc2:	51 77 80    	mov.w     0xeea, w1
    2bc4:	80 0f 51    	sub.w     w2, w0, [w15]
    2bc6:	81 8f 59    	subb.w    w3, w1, [w15]
    2bc8:	5e 00 39    	bra       NC, 0x2c86 <.L317>
    2bca:	00 02 51    	sub.w     w2, w0, w4
    2bcc:	81 82 59    	subb.w    w3, w1, w5

00002bce <.L319>:
    2bce:	b8 c8 bf    	mov.b     0x8b8, WREG
    2bd0:	00 80 fb    	ze        w0, w0
    2bd2:	32 00 20    	mov.w     #0x3, w2
    2bd4:	03 00 20    	mov.w     #0x0, w3

00002bd6 <.LB2325>:
    2bd6:	00 00 e9    	dec.w     w0, w0
    2bd8:	03 00 33    	bra       N, 0x2be0 <.LE2325>
    2bda:	02 01 41    	add.w     w2, w2, w2
    2bdc:	83 81 49    	addc.w    w3, w3, w3
    2bde:	fb ff 37    	bra       0x2bd6 <.LB2325>

00002be0 <.LE2325>:
    2be0:	4e 1b dd    	sl.w      w3, #0xe, w6
    2be2:	42 10 de    	lsr.w     w2, #0x2, w0
    2be4:	00 00 73    	ior.w     w6, w0, w0
    2be6:	c2 18 de    	lsr.w     w3, #0x2, w1
    2be8:	00 01 51    	sub.w     w2, w0, w2
    2bea:	81 81 59    	subb.w    w3, w1, w3
    2bec:	82 0f 52    	sub.w     w4, w2, [w15]
    2bee:	83 8f 5a    	subb.w    w5, w3, [w15]
    2bf0:	4e fe 31    	bra       C, 0x288e <.L300>
    2bf2:	36 6f ef    	clr.b     0xf36
    2bf4:	4f 06 be    	mov.d     [--w15], w12
    2bf6:	4f 05 be    	mov.d     [--w15], w10
    2bf8:	4f 04 be    	mov.d     [--w15], w8
    2bfa:	00 80 fa    	ulnk      
    2bfc:	00 00 06    	return    
    2bfe:	45 fe 37    	bra       0x288a <.L248>

00002c00 <.L357>:
    2c00:	28 ce a9    	bclr.b    0xe28, #0x6
    2c02:	28 ee a8    	bset.b    0xe28, #0x7
    2c04:	34 4f a8    	bset.b    0xf34, #0x2
    2c06:	34 cf a9    	bclr.b    0xf34, #0x6

00002c08 <.bb>:
    2c08:	40 00 20    	mov.w     #0x4, w0
    2c0a:	84 24 07    	rcall     0x7514 <_EE_alarm_CancelAlarm>
    2c0c:	4a fe 37    	bra       0x28a2 <.L322>

00002c0e <.L361>:
    2c0e:	30 00 20    	mov.w     #0x3, w0
    2c10:	06 24 07    	rcall     0x741e <_EE_fp_GetResource>

00002c12 <.eb>:
    2c12:	40 71 80    	mov.w     0xe28, w0
    2c14:	66 04 60    	and.w     w0, #0x6, w8
    2c16:	24 01 3a    	bra       NZ, 0x2e60 <.L368>
    2c18:	20 71 80    	mov.w     0xe24, w0
    2c1a:	4c 00 de    	lsr.w     w0, #0xc, w0

00002c1c <.bb>:
    2c1c:	00 04 e0    	cp0.b     w0
    2c1e:	b6 01 32    	bra       Z, 0x2f8c
    2c20:	00 83 fb    	ze        w0, w6
    2c22:	07 00 20    	mov.w     #0x0, w7
    2c24:	82 8b 20    	mov.w     #0x8b8, w2
    2c26:	12 41 78    	mov.b     [w2], w2
    2c28:	02 81 fb    	ze        w2, w2
    2c2a:	30 00 20    	mov.w     #0x3, w0
    2c2c:	01 00 20    	mov.w     #0x0, w1

00002c2e <.LB2395>:
    2c2e:	02 01 e9    	dec.w     w2, w2
    2c30:	03 00 33    	bra       N, 0x2c38 <.LE2395>
    2c32:	00 00 40    	add.w     w0, w0, w0
    2c34:	81 80 48    	addc.w    w1, w1, w1
    2c36:	fb ff 37    	bra       0x2c2e <.LB2395>

00002c38 <.LE2395>:
    2c38:	00 32 b8    	mul.uu    w6, w0, w4
    2c3a:	01 b3 b9    	mul.ss    w6, w1, w6
    2c3c:	86 82 42    	add.w     w5, w6, w5

00002c3e <.bb>:
    2c3e:	02 6a 28    	mov.w     #0x86a0, w2
    2c40:	02 20 b8    	mul.uu    w4, w2, w0
    2c42:	01 03 42    	add.w     w4, w1, w6
    2c44:	02 a9 b9    	mul.ss    w5, w2, w2
    2c46:	82 00 43    	add.w     w6, w2, w1

00002c48 <.eb>:
    2c48:	02 71 22    	mov.w     #0x2710, w2
    2c4a:	03 00 20    	mov.w     #0x0, w3
    2c4c:	03 ec 07    	rcall     0x454
    2c4e:	22 77 80    	mov.w     0xee4, w2
    2c50:	02 00 50    	sub.w     w0, w2, w0
    2c52:	e0 80 58    	subb.w    w1, #0x0, w1
    2c54:	60 8b 89    	mov.w     w0, 0x316c
    2c56:	71 8b 89    	mov.w     w1, 0x316e

00002c58 <.bb>:
    2c58:	30 00 20    	mov.w     #0x3, w0
    2c5a:	bc 23 07    	rcall     0x73d4 <_EE_fp_ReleaseResource>

00002c5c <.eb>:
    2c5c:	34 af a9    	bclr.b    0xf34, #0x5
    2c5e:	34 8f a9    	bclr.b    0xf34, #0x4
    2c60:	08 40 78    	mov.b     w8, w0
    2c62:	88 05 07    	rcall     0x3774 <_uwl_gts_queue_flush>

00002c64 <.bb>:
    2c64:	50 00 20    	mov.w     #0x5, w0
    2c66:	56 24 07    	rcall     0x7514 <_EE_alarm_CancelAlarm>
    2c68:	e5 fe 37    	bra       0x2a34 <.L287>

00002c6a <.L308>:
    2c6a:	80 0c eb    	clr.w     [w9]
    2c6c:	b9 14 78    	mov.w     [w9++], [w9--]
    2c6e:	0a 05 e8    	inc.w     w10, w10
    2c70:	e4 84 44    	add.w     w9, #0x4, w9

00002c72 <.eb>:
    2c72:	e7 0f 55    	sub.w     w10, #0x7, [w15]
    2c74:	0d ff 3a    	bra       NZ, 0x2a90 <.L307>
    2c76:	25 ff 37    	bra       0x2ac2 <.L311>

00002c78 <.L279>:
    2c78:	80 0c eb    	clr.w     [w9]
    2c7a:	b9 14 78    	mov.w     [w9++], [w9--]
    2c7c:	0a 05 e8    	inc.w     w10, w10
    2c7e:	e4 84 44    	add.w     w9, #0x4, w9

00002c80 <.eb>:
    2c80:	e7 0f 55    	sub.w     w10, #0x7, [w15]
    2c82:	be fd 3a    	bra       NZ, 0x2800 <.L278>
    2c84:	d6 fd 37    	bra       0x2832 <.L282>

00002c86 <.L317>:
    2c86:	00 00 51    	sub.w     w2, w0, w0
    2c88:	81 80 59    	subb.w    w3, w1, w1
    2c8a:	61 02 50    	sub.w     w0, #0x1, w4
    2c8c:	e0 82 58    	subb.w    w1, #0x0, w5
    2c8e:	9f ff 37    	bra       0x2bce <.L319>

00002c90 <.L305>:
    2c90:	20 71 80    	mov.w     0xe24, w0
    2c92:	4c 00 de    	lsr.w     w0, #0xc, w0

00002c94 <.bb>:
    2c94:	00 04 e0    	cp0.b     w0
    2c96:	c5 00 3a    	bra       NZ, 0x2e22 <.L369>
    2c98:	c0 16 23    	mov.w     #0x316c, w0
    2c9a:	00 08 eb    	clr.w     [w0]
    2c9c:	30 10 78    	mov.w     [w0++], [w0--]

00002c9e <.bb>:
    2c9e:	30 00 20    	mov.w     #0x3, w0
    2ca0:	99 23 07    	rcall     0x73d4 <_EE_fp_ReleaseResource>
    2ca2:	11 ff 37    	bra       0x2ac6 <.L304>

00002ca4 <.L276>:
    2ca4:	20 71 80    	mov.w     0xe24, w0
    2ca6:	4c 00 de    	lsr.w     w0, #0xc, w0

00002ca8 <.bb>:
    2ca8:	00 04 e0    	cp0.b     w0
    2caa:	9c 00 3a    	bra       NZ, 0x2de4 <.L370>
    2cac:	c0 16 23    	mov.w     #0x316c, w0
    2cae:	00 08 eb    	clr.w     [w0]
    2cb0:	30 10 78    	mov.w     [w0++], [w0--]

00002cb2 <.bb>:
    2cb2:	30 00 20    	mov.w     #0x3, w0
    2cb4:	8f 23 07    	rcall     0x73d4 <_EE_fp_ReleaseResource>
    2cb6:	bf fd 37    	bra       0x2836 <.L275>

00002cb8 <.L262>:
    2cb8:	70 00 20    	mov.w     #0x7, w0
    2cba:	fb 23 07    	rcall     0x74b2 <_EE_fp_ActivateTask>
    2cbc:	20 00 20    	mov.w     #0x2, w0
    2cbe:	2a 24 07    	rcall     0x7514 <_EE_alarm_CancelAlarm>
    2cc0:	0a 02 be    	mov.d     w10, w4
    2cc2:	0a 01 be    	mov.d     w10, w2
    2cc4:	20 00 20    	mov.w     #0x2, w0
    2cc6:	08 25 07    	rcall     0x76d8 <_EE_alarm_SetRelAlarm>

00002cc8 <.bb>:
    2cc8:	90 00 20    	mov.w     #0x9, w0
    2cca:	f3 23 07    	rcall     0x74b2 <_EE_fp_ActivateTask>
    2ccc:	40 00 20    	mov.w     #0x4, w0
    2cce:	22 24 07    	rcall     0x7514 <_EE_alarm_CancelAlarm>
    2cd0:	14 00 20    	mov.w     #0x1, w4
    2cd2:	05 00 20    	mov.w     #0x0, w5
    2cd4:	04 01 be    	mov.d     w4, w2
    2cd6:	40 00 20    	mov.w     #0x4, w0
    2cd8:	ff 24 07    	rcall     0x76d8 <_EE_alarm_SetRelAlarm>
    2cda:	64 ff 37    	bra       0x2ba4 <.L261>

00002cdc <.L362>:
    2cdc:	20 00 20    	mov.w     #0x2, w0
    2cde:	9f 23 07    	rcall     0x741e <_EE_fp_GetResource>

00002ce0 <.eb>:
    2ce0:	f0 c7 2f    	mov.w     #0xfc7f, w0
    2ce2:	34 2f b6    	and.w     0xf34

00002ce4 <.bb>:
    2ce4:	20 00 20    	mov.w     #0x2, w0
    2ce6:	76 23 07    	rcall     0x73d4 <_EE_fp_ReleaseResource>

00002ce8 <.eb>:
    2ce8:	4d 22 07    	rcall     0x7184 <_uwl_radio_mac_send_beacon>
    2cea:	b7 fe 37    	bra       0x2a5a <.L298>

00002cec <.L257>:
    2cec:	80 00 20    	mov.w     #0x8, w0
    2cee:	e1 23 07    	rcall     0x74b2 <_EE_fp_ActivateTask>
    2cf0:	30 00 20    	mov.w     #0x3, w0
    2cf2:	10 24 07    	rcall     0x7514 <_EE_alarm_CancelAlarm>
    2cf4:	0a 02 be    	mov.d     w10, w4
    2cf6:	0a 01 be    	mov.d     w10, w2
    2cf8:	30 00 20    	mov.w     #0x3, w0
    2cfa:	ee 24 07    	rcall     0x76d8 <_EE_alarm_SetRelAlarm>
    2cfc:	42 ff 37    	bra       0x2b82 <.L256>

00002cfe <.L353>:
    2cfe:	20 00 20    	mov.w     #0x2, w0
    2d00:	8e 23 07    	rcall     0x741e <_EE_fp_GetResource>

00002d02 <.eb>:
    2d02:	f0 c7 2f    	mov.w     #0xfc7f, w0
    2d04:	34 2f b6    	and.w     0xf34

00002d06 <.bb>:
    2d06:	20 00 20    	mov.w     #0x2, w0
    2d08:	65 23 07    	rcall     0x73d4 <_EE_fp_ReleaseResource>

00002d0a <.eb>:
    2d0a:	3c 22 07    	rcall     0x7184 <_uwl_radio_mac_send_beacon>
    2d0c:	5e fd 37    	bra       0x27ca <.L270>

00002d0e <.L363>:
    2d0e:	34 8f a9    	bclr.b    0xf34, #0x4

00002d10 <.bb>:
    2d10:	30 00 20    	mov.w     #0x3, w0
    2d12:	85 23 07    	rcall     0x741e <_EE_fp_GetResource>

00002d14 <.eb>:
    2d14:	c0 16 23    	mov.w     #0x316c, w0
    2d16:	00 08 eb    	clr.w     [w0]
    2d18:	30 10 78    	mov.w     [w0++], [w0--]
    2d1a:	00 17 23    	mov.w     #0x3170, w0
    2d1c:	00 08 eb    	clr.w     [w0]
    2d1e:	30 10 78    	mov.w     [w0++], [w0--]
    2d20:	40 17 23    	mov.w     #0x3174, w0
    2d22:	00 08 eb    	clr.w     [w0]
    2d24:	30 10 78    	mov.w     [w0++], [w0--]
    2d26:	80 17 23    	mov.w     #0x3178, w0
    2d28:	00 08 eb    	clr.w     [w0]
    2d2a:	30 10 78    	mov.w     [w0++], [w0--]
    2d2c:	c0 17 23    	mov.w     #0x317c, w0
    2d2e:	00 08 eb    	clr.w     [w0]
    2d30:	30 10 78    	mov.w     [w0++], [w0--]
    2d32:	00 18 23    	mov.w     #0x3180, w0
    2d34:	00 08 eb    	clr.w     [w0]
    2d36:	30 10 78    	mov.w     [w0++], [w0--]
    2d38:	40 18 23    	mov.w     #0x3184, w0
    2d3a:	00 08 eb    	clr.w     [w0]
    2d3c:	30 10 78    	mov.w     [w0++], [w0--]

00002d3e <.bb>:
    2d3e:	30 00 20    	mov.w     #0x3, w0
    2d40:	49 23 07    	rcall     0x73d4 <_EE_fp_ReleaseResource>

00002d42 <.eb>:
    2d42:	08 40 78    	mov.b     w8, w0
    2d44:	17 05 07    	rcall     0x3774 <_uwl_gts_queue_flush>

00002d46 <.bb>:
    2d46:	20 00 20    	mov.w     #0x2, w0
    2d48:	e5 23 07    	rcall     0x7514 <_EE_alarm_CancelAlarm>

00002d4a <.bb>:
    2d4a:	30 00 20    	mov.w     #0x3, w0
    2d4c:	e3 23 07    	rcall     0x7514 <_EE_alarm_CancelAlarm>

00002d4e <.bb>:
    2d4e:	40 00 20    	mov.w     #0x4, w0
    2d50:	e1 23 07    	rcall     0x7514 <_EE_alarm_CancelAlarm>

00002d52 <.eb>:
    2d52:	a5 48 e2    	cp0.b     0x8a5
    2d54:	9e fd 3a    	bra       NZ, 0x2892 <.L365>
    2d56:	94 fd 37    	bra       0x2880 <.L346>

00002d58 <.L354>:
    2d58:	34 8f a9    	bclr.b    0xf34, #0x4

00002d5a <.bb>:
    2d5a:	30 00 20    	mov.w     #0x3, w0
    2d5c:	60 23 07    	rcall     0x741e <_EE_fp_GetResource>

00002d5e <.eb>:
    2d5e:	c0 16 23    	mov.w     #0x316c, w0
    2d60:	00 08 eb    	clr.w     [w0]
    2d62:	30 10 78    	mov.w     [w0++], [w0--]
    2d64:	00 17 23    	mov.w     #0x3170, w0
    2d66:	00 08 eb    	clr.w     [w0]
    2d68:	30 10 78    	mov.w     [w0++], [w0--]
    2d6a:	40 17 23    	mov.w     #0x3174, w0
    2d6c:	00 08 eb    	clr.w     [w0]
    2d6e:	30 10 78    	mov.w     [w0++], [w0--]
    2d70:	80 17 23    	mov.w     #0x3178, w0
    2d72:	00 08 eb    	clr.w     [w0]
    2d74:	30 10 78    	mov.w     [w0++], [w0--]
    2d76:	c0 17 23    	mov.w     #0x317c, w0
    2d78:	00 08 eb    	clr.w     [w0]
    2d7a:	30 10 78    	mov.w     [w0++], [w0--]
    2d7c:	00 18 23    	mov.w     #0x3180, w0
    2d7e:	00 08 eb    	clr.w     [w0]
    2d80:	30 10 78    	mov.w     [w0++], [w0--]
    2d82:	40 18 23    	mov.w     #0x3184, w0
    2d84:	00 08 eb    	clr.w     [w0]
    2d86:	30 10 78    	mov.w     [w0++], [w0--]

00002d88 <.bb>:
    2d88:	30 00 20    	mov.w     #0x3, w0
    2d8a:	24 23 07    	rcall     0x73d4 <_EE_fp_ReleaseResource>

00002d8c <.eb>:
    2d8c:	08 40 78    	mov.b     w8, w0
    2d8e:	f2 04 07    	rcall     0x3774 <_uwl_gts_queue_flush>

00002d90 <.bb>:
    2d90:	20 00 20    	mov.w     #0x2, w0
    2d92:	c0 23 07    	rcall     0x7514 <_EE_alarm_CancelAlarm>

00002d94 <.bb>:
    2d94:	30 00 20    	mov.w     #0x3, w0
    2d96:	be 23 07    	rcall     0x7514 <_EE_alarm_CancelAlarm>

00002d98 <.bb>:
    2d98:	40 00 20    	mov.w     #0x4, w0
    2d9a:	bc 23 07    	rcall     0x7514 <_EE_alarm_CancelAlarm>

00002d9c <.eb>:
    2d9c:	4f 06 be    	mov.d     [--w15], w12
    2d9e:	4f 05 be    	mov.d     [--w15], w10
    2da0:	4f 04 be    	mov.d     [--w15], w8
    2da2:	00 80 fa    	ulnk      
    2da4:	00 00 06    	return    
    2da6:	71 fd 37    	bra       0x288a <.L248>

00002da8 <.L355>:
    2da8:	34 4f a9    	bclr.b    0xf34, #0x2

00002daa <.bb>:
    2daa:	90 00 20    	mov.w     #0x9, w0
    2dac:	82 23 07    	rcall     0x74b2 <_EE_fp_ActivateTask>
    2dae:	40 00 20    	mov.w     #0x4, w0
    2db0:	b1 23 07    	rcall     0x7514 <_EE_alarm_CancelAlarm>
    2db2:	14 00 20    	mov.w     #0x1, w4
    2db4:	05 00 20    	mov.w     #0x0, w5
    2db6:	04 01 be    	mov.d     w4, w2
    2db8:	40 00 20    	mov.w     #0x4, w0
    2dba:	8e 24 07    	rcall     0x76d8 <_EE_alarm_SetRelAlarm>
    2dbc:	3c fd 37    	bra       0x2836 <.L275>

00002dbe <.L364>:
    2dbe:	34 4f a9    	bclr.b    0xf34, #0x2

00002dc0 <.bb>:
    2dc0:	90 00 20    	mov.w     #0x9, w0
    2dc2:	77 23 07    	rcall     0x74b2 <_EE_fp_ActivateTask>
    2dc4:	40 00 20    	mov.w     #0x4, w0
    2dc6:	a6 23 07    	rcall     0x7514 <_EE_alarm_CancelAlarm>
    2dc8:	14 00 20    	mov.w     #0x1, w4
    2dca:	05 00 20    	mov.w     #0x0, w5
    2dcc:	04 01 be    	mov.d     w4, w2
    2dce:	40 00 20    	mov.w     #0x4, w0
    2dd0:	83 24 07    	rcall     0x76d8 <_EE_alarm_SetRelAlarm>
    2dd2:	79 fe 37    	bra       0x2ac6 <.L304>

00002dd4 <.L359>:
    2dd4:	34 af a9    	bclr.b    0xf34, #0x5
    2dd6:	a8 21 07    	rcall     0x7128 <_uwl_radio_phy_set_rx_on>

00002dd8 <.eb>:
    2dd8:	4f 06 be    	mov.d     [--w15], w12
    2dda:	4f 05 be    	mov.d     [--w15], w10
    2ddc:	4f 04 be    	mov.d     [--w15], w8
    2dde:	00 80 fa    	ulnk      
    2de0:	00 00 06    	return    
    2de2:	53 fd 37    	bra       0x288a <.L248>

00002de4 <.L370>:
    2de4:	00 83 fb    	ze        w0, w6
    2de6:	07 00 20    	mov.w     #0x0, w7
    2de8:	82 8b 20    	mov.w     #0x8b8, w2
    2dea:	12 41 78    	mov.b     [w2], w2
    2dec:	02 81 fb    	ze        w2, w2
    2dee:	30 00 20    	mov.w     #0x3, w0
    2df0:	01 00 20    	mov.w     #0x0, w1

00002df2 <.LB2896>:
    2df2:	02 01 e9    	dec.w     w2, w2
    2df4:	03 00 33    	bra       N, 0x2dfc <.LE2896>
    2df6:	00 00 40    	add.w     w0, w0, w0
    2df8:	81 80 48    	addc.w    w1, w1, w1
    2dfa:	fb ff 37    	bra       0x2df2 <.LB2896>

00002dfc <.LE2896>:
    2dfc:	00 32 b8    	mul.uu    w6, w0, w4
    2dfe:	01 b3 b9    	mul.ss    w6, w1, w6
    2e00:	86 82 42    	add.w     w5, w6, w5

00002e02 <.bb>:
    2e02:	02 6a 28    	mov.w     #0x86a0, w2
    2e04:	02 20 b8    	mul.uu    w4, w2, w0
    2e06:	01 03 42    	add.w     w4, w1, w6
    2e08:	02 a9 b9    	mul.ss    w5, w2, w2
    2e0a:	82 00 43    	add.w     w6, w2, w1

00002e0c <.eb>:
    2e0c:	02 71 22    	mov.w     #0x2710, w2
    2e0e:	03 00 20    	mov.w     #0x0, w3
    2e10:	21 eb 07    	rcall     0x454
    2e12:	22 77 80    	mov.w     0xee4, w2
    2e14:	02 00 50    	sub.w     w0, w2, w0
    2e16:	e0 80 58    	subb.w    w1, #0x0, w1
    2e18:	60 8b 89    	mov.w     w0, 0x316c
    2e1a:	71 8b 89    	mov.w     w1, 0x316e

00002e1c <.bb>:
    2e1c:	30 00 20    	mov.w     #0x3, w0
    2e1e:	da 22 07    	rcall     0x73d4 <_EE_fp_ReleaseResource>
    2e20:	0a fd 37    	bra       0x2836 <.L275>

00002e22 <.L369>:
    2e22:	00 83 fb    	ze        w0, w6
    2e24:	07 00 20    	mov.w     #0x0, w7
    2e26:	82 8b 20    	mov.w     #0x8b8, w2
    2e28:	12 41 78    	mov.b     [w2], w2
    2e2a:	02 81 fb    	ze        w2, w2
    2e2c:	30 00 20    	mov.w     #0x3, w0
    2e2e:	01 00 20    	mov.w     #0x0, w1

00002e30 <.LB2940>:
    2e30:	02 01 e9    	dec.w     w2, w2
    2e32:	03 00 33    	bra       N, 0x2e3a <.LE2940>
    2e34:	00 00 40    	add.w     w0, w0, w0
    2e36:	81 80 48    	addc.w    w1, w1, w1
    2e38:	fb ff 37    	bra       0x2e30 <.LB2940>

00002e3a <.LE2940>:
    2e3a:	00 32 b8    	mul.uu    w6, w0, w4
    2e3c:	01 b3 b9    	mul.ss    w6, w1, w6
    2e3e:	86 82 42    	add.w     w5, w6, w5

00002e40 <.bb>:
    2e40:	02 6a 28    	mov.w     #0x86a0, w2
    2e42:	02 20 b8    	mul.uu    w4, w2, w0
    2e44:	01 03 42    	add.w     w4, w1, w6
    2e46:	02 a9 b9    	mul.ss    w5, w2, w2
    2e48:	82 00 43    	add.w     w6, w2, w1

00002e4a <.eb>:
    2e4a:	02 71 22    	mov.w     #0x2710, w2
    2e4c:	03 00 20    	mov.w     #0x0, w3
    2e4e:	02 eb 07    	rcall     0x454
    2e50:	22 77 80    	mov.w     0xee4, w2
    2e52:	02 00 50    	sub.w     w0, w2, w0
    2e54:	e0 80 58    	subb.w    w1, #0x0, w1
    2e56:	60 8b 89    	mov.w     w0, 0x316c
    2e58:	71 8b 89    	mov.w     w1, 0x316e

00002e5a <.bb>:
    2e5a:	30 00 20    	mov.w     #0x3, w0
    2e5c:	bb 22 07    	rcall     0x73d4 <_EE_fp_ReleaseResource>
    2e5e:	33 fe 37    	bra       0x2ac6 <.L304>

00002e60 <.L368>:
    2e60:	d0 7b 80    	mov.w     0xf7a, w0
    2e62:	44 00 de    	lsr.w     w0, #0x4, w0
    2e64:	6f 40 60    	and.b     w0, #0xf, w0

00002e66 <.bb>:
    2e66:	9e 00 32    	bra       Z, 0x2fa4 <.L291>
    2e68:	00 83 fb    	ze        w0, w6
    2e6a:	07 00 20    	mov.w     #0x0, w7
    2e6c:	82 8b 20    	mov.w     #0x8b8, w2
    2e6e:	12 41 78    	mov.b     [w2], w2
    2e70:	02 81 fb    	ze        w2, w2
    2e72:	30 00 20    	mov.w     #0x3, w0
    2e74:	01 00 20    	mov.w     #0x0, w1

00002e76 <.LB2992>:
    2e76:	02 01 e9    	dec.w     w2, w2
    2e78:	03 00 33    	bra       N, 0x2e80 <.LE2992>
    2e7a:	00 00 40    	add.w     w0, w0, w0
    2e7c:	81 80 48    	addc.w    w1, w1, w1
    2e7e:	fb ff 37    	bra       0x2e76 <.LB2992>

00002e80 <.LE2992>:
    2e80:	00 32 b8    	mul.uu    w6, w0, w4
    2e82:	01 b3 b9    	mul.ss    w6, w1, w6
    2e84:	86 82 42    	add.w     w5, w6, w5

00002e86 <.bb>:
    2e86:	02 6a 28    	mov.w     #0x86a0, w2
    2e88:	02 20 b8    	mul.uu    w4, w2, w0
    2e8a:	01 03 42    	add.w     w4, w1, w6
    2e8c:	02 a9 b9    	mul.ss    w5, w2, w2
    2e8e:	82 00 43    	add.w     w6, w2, w1

00002e90 <.eb>:
    2e90:	02 71 22    	mov.w     #0x2710, w2
    2e92:	03 00 20    	mov.w     #0x0, w3
    2e94:	df ea 07    	rcall     0x454
    2e96:	22 77 80    	mov.w     0xee4, w2
    2e98:	02 00 50    	sub.w     w0, w2, w0
    2e9a:	e0 80 58    	subb.w    w1, #0x0, w1
    2e9c:	20 8c 89    	mov.w     w0, 0x3184
    2e9e:	31 8c 89    	mov.w     w1, 0x3186
    2ea0:	68 c0 b3    	mov.b     #0x6, w8

00002ea2 <.bb>:
    2ea2:	30 00 20    	mov.w     #0x3, w0
    2ea4:	97 22 07    	rcall     0x73d4 <_EE_fp_ReleaseResource>

00002ea6 <.eb>:
    2ea6:	34 af a9    	bclr.b    0xf34, #0x5
    2ea8:	34 8f a9    	bclr.b    0xf34, #0x4
    2eaa:	08 40 78    	mov.b     w8, w0
    2eac:	63 04 07    	rcall     0x3774 <_uwl_gts_queue_flush>

00002eae <.bb>:
    2eae:	50 00 20    	mov.w     #0x5, w0
    2eb0:	31 23 07    	rcall     0x7514 <_EE_alarm_CancelAlarm>
    2eb2:	c0 fd 37    	bra       0x2a34 <.L287>

00002eb4 <.L358>:
    2eb4:	34 8f a9    	bclr.b    0xf34, #0x4

00002eb6 <.bb>:
    2eb6:	50 00 20    	mov.w     #0x5, w0
    2eb8:	2d 23 07    	rcall     0x7514 <_EE_alarm_CancelAlarm>
    2eba:	11 fd 37    	bra       0x28de <.L330>

00002ebc <.L366>:
    2ebc:	30 00 20    	mov.w     #0x3, w0
    2ebe:	2a 23 07    	rcall     0x7514 <_EE_alarm_CancelAlarm>
    2ec0:	0a 02 be    	mov.d     w10, w4
    2ec2:	08 01 be    	mov.d     w8, w2
    2ec4:	30 00 20    	mov.w     #0x3, w0
    2ec6:	08 24 07    	rcall     0x76d8 <_EE_alarm_SetRelAlarm>
    2ec8:	5c fe 37    	bra       0x2b82 <.L256>

00002eca <.L367>:
    2eca:	20 00 20    	mov.w     #0x2, w0
    2ecc:	23 23 07    	rcall     0x7514 <_EE_alarm_CancelAlarm>
    2ece:	0a 02 be    	mov.d     w10, w4
    2ed0:	0c 01 be    	mov.d     w12, w2
    2ed2:	20 00 20    	mov.w     #0x2, w0
    2ed4:	01 24 07    	rcall     0x76d8 <_EE_alarm_SetRelAlarm>

00002ed6 <.bb>:
    2ed6:	40 00 20    	mov.w     #0x4, w0
    2ed8:	1d 23 07    	rcall     0x7514 <_EE_alarm_CancelAlarm>
    2eda:	14 00 20    	mov.w     #0x1, w4
    2edc:	05 00 20    	mov.w     #0x0, w5
    2ede:	0c 01 be    	mov.d     w12, w2
    2ee0:	40 00 20    	mov.w     #0x4, w0
    2ee2:	fa 23 07    	rcall     0x76d8 <_EE_alarm_SetRelAlarm>

00002ee4 <.eb>:
    2ee4:	f0 c0 b3    	mov.b     #0xf, w0
    2ee6:	36 ef b7    	mov.b     WREG, 0xf36
