
pic30.cof:     file format coff-pic30

Disassembly of section .reset:

00000000 <.reset>:
   0:	00 02 04    	goto      0x200 <__reset>
   2:	00 00 00 
Disassembly of section .text:

00000200 <__reset>:
     200:	af 39 23    	mov.w     #0x339a, w15
     202:	0e f7 27    	mov.w     #0x7f70, w14
     204:	0e 01 88    	mov.w     w14, 0x20
     206:	00 00 00    	nop       
     208:	0c 00 07    	rcall     0x222
     20a:	20 3d 26    	mov.w     #0x63d2, w0
     20c:	01 00 20    	mov.w     #0x0, w1
     20e:	11 00 07    	rcall     0x232
     210:	00 00 20    	mov.w     #0x0, w0
     212:	00 00 e0    	cp0.w     w0
     214:	02 00 32    	bra       Z, 0x21a
     216:	00 00 02    	call      0x0 <__reset-0x200>
     218:	00 00 00 

0000021a <L11>:
     21a:	ce 4b 02    	call      0x4bce <_main>
     21c:	00 00 00 
     21e:	00 40 da    	.pword 0xda4000
     220:	00 00 fe    	reset     

00000222 <__psv_init>:
     222:	44 40 a9    	bclr.b    0x44, #0x2
     224:	00 6d 20    	mov.w     #0x6d0, w0
     226:	00 00 e0    	cp0.w     w0
     228:	03 00 32    	bra       Z, 0x230
     22a:	00 00 20    	mov.w     #0x0, w0
     22c:	a0 01 88    	mov.w     w0, 0x34
     22e:	44 40 a8    	bset.b    0x44, #0x2

00000230 <L12>:
     230:	00 00 06    	return    

00000232 <__data_init>:
     232:	91 01 88    	mov.w     w1, 0x32
     234:	80 00 78    	mov.w     w0, w1
     236:	00 00 eb    	clr.w     w0
     238:	15 00 37    	bra       0x264

0000023a <L11>:
     23a:	e2 80 40    	add.w     w1, #0x2, w1
     23c:	32 a0 b4    	addc.w    0x32
     23e:	91 01 ba    	tblrdl.w  [w1], w3
     240:	e2 80 40    	add.w     w1, #0x2, w1
     242:	32 a0 b4    	addc.w    0x32
     244:	91 02 ba    	tblrdl.w  [w1], w5
     246:	e2 80 40    	add.w     w1, #0x2, w1
     248:	32 a0 b4    	addc.w    0x32
     24a:	00 02 eb    	clr.w     w4
     24c:	47 2b de    	lsr.w     w5, #0x7, w6
     24e:	f5 07 b2    	and.w     #0x7f, w5
     250:	60 2c e1    	cp.b      w5, #0x0
     252:	04 00 3a    	bra       NZ, 0x25c <L21>

00000254 <L91>:
     254:	00 59 eb    	clr.b     [w2++]
     256:	83 01 e9    	dec.w     w3, w3
     258:	fd ff 3e    	bra       GTU, 0x254 <L91>
     25a:	04 00 37    	bra       0x264

0000025c <L21>:
     25c:	61 28 e1    	cp.w      w5, #0x1
     25e:	01 00 32    	bra       Z, 0x262
     260:	00 82 eb    	setm.w    w4

00000262 <L31>:
     262:	04 00 07    	rcall     0x26c <L12>

00000264 <L41>:
     264:	11 01 ba    	tblrdl.w  [w1], w2
     266:	02 00 e0    	cp0.w     w2
     268:	e8 ff 3a    	bra       NZ, 0x23a <L11>
     26a:	00 00 06    	return    

0000026c <L12>:
     26c:	31 59 ba    	tblrdl.b  [w1++], [w2++]
     26e:	83 01 e9    	dec.w     w3, w3
     270:	0c 00 32    	bra       Z, 0x28a <L22>
     272:	21 59 ba    	tblrdl.b  [w1--], [w2++]
     274:	83 01 e9    	dec.w     w3, w3
     276:	08 00 32    	bra       Z, 0x288 <L42>
     278:	04 00 e0    	cp0.w     w4
     27a:	03 00 3a    	bra       NZ, 0x282 <L13>

0000027c <L32>:
     27c:	e2 80 40    	add.w     w1, #0x2, w1
     27e:	32 a0 b4    	addc.w    0x32
     280:	f5 ff 37    	bra       0x26c <L12>

00000282 <L13>:
     282:	11 d9 ba    	tblrdh.b  [w1], [w2++]
     284:	83 01 e9    	dec.w     w3, w3
     286:	fa ff 3a    	bra       NZ, 0x27c <L32>

00000288 <L42>:
     288:	81 00 e8    	inc.w     w1, w1

0000028a <L22>:
     28a:	e1 80 40    	add.w     w1, #0x1, w1
     28c:	32 a0 b4    	addc.w    0x32
     28e:	00 00 06    	return    

00000290 <.handle>:
     290:	b4 49 04    	goto      0x49b4 <_FuncCHAT_SEND>
     292:	00 00 00 
     294:	22 4a 04    	goto      0x4a22 <_FuncCHAT_RECEIVE>
     296:	00 00 00 
     298:	7a 4b 04    	goto      0x4b7a <_FuncLCD_WRITE>
     29a:	00 00 00 
     29c:	cc 5d 04    	goto      0x5dcc <_FuncUWL_EE_TASK_PHY_READ_DISPATCHER>
     29e:	00 00 00 
     2a0:	2a 33 04    	goto      0x332a <_FuncUWL_EE_TASK_MAC_PROCESS_RX_BEACON>
     2a2:	00 00 00 
     2a4:	34 33 04    	goto      0x3334 <_FuncUWL_EE_TASK_MAC_PROCESS_RX_DATA>
     2a6:	00 00 00 
     2a8:	3e 33 04    	goto      0x333e <_FuncUWL_EE_TASK_MAC_PROCESS_RX_COMMAND>
     2aa:	00 00 00 
     2ac:	94 21 04    	goto      0x2194 <_FuncUWL_EE_TASK_MAC_TIMESLOT>
     2ae:	00 00 00 
     2b0:	9e 21 04    	goto      0x219e <_FuncUWL_EE_TASK_MAC_BEFORE_TIMESLOT>
     2b2:	00 00 00 
     2b4:	a8 21 04    	goto      0x21a8 <_FuncUWL_EE_TASK_MAC_BACKOFF_PERIOD>
     2b6:	00 00 00 
     2b8:	b2 21 04    	goto      0x21b2 <_FuncUWL_EE_TASK_MAC_GTS_SEND>
     2ba:	00 00 00 
     2bc:	52 4b 04    	goto      0x4b52 <_button_action>
     2be:	00 00 00 
     2c0:	4e 49 04    	goto      0x494e <_rx_data>
     2c2:	00 00 00 
     2c4:	d6 5d 04    	goto      0x5dd6 <_phy_read_dispatcher>
     2c6:	00 00 00 
     2c8:	2e 5e 04    	goto      0x5e2e <_phy_read_isr>
     2ca:	00 00 00 
     2cc:	98 38 04    	goto      0x3898 <_process_rx_beacon>
     2ce:	00 00 00 
     2d0:	7a 39 04    	goto      0x397a <_process_rx_data>
     2d2:	00 00 00 
     2d4:	68 34 04    	goto      0x3468 <_process_rx_command>
     2d6:	00 00 00 
     2d8:	0e 77 04    	goto      0x770e <_uwl_kal_external_timer_action>
     2da:	00 00 00 
     2dc:	86 27 04    	goto      0x2786 <_on_timeslot_start>
     2de:	00 00 00 
     2e0:	bc 21 04    	goto      0x21bc <_before_timeslot_start>
     2e2:	00 00 00 
     2e4:	00 23 04    	goto      0x2300 <_on_backoff_period_start>
     2e6:	00 00 00 
     2e8:	be 2f 04    	goto      0x2fbe <_on_gts_send>
     2ea:	00 00 00 
     2ec:	44 74 04    	goto      0x7444 <_console_serial_open>
     2ee:	00 00 00 
     2f0:	52 74 04    	goto      0x7452 <_console_serial_close>
     2f2:	00 00 00 
     2f4:	5a 74 04    	goto      0x745a <_console_serial_write>
     2f6:	00 00 00 
     2f8:	62 74 04    	goto      0x7462 <_console_serial_read>
     2fa:	00 00 00 

000002fc <__DefaultInterrupt>:
     2fc:	00 40 da    	.pword 0xda4000
     2fe:	00 00 fe    	reset     

00000300 <_write>:
     300:	0a 00 fa    	lnk       #0xa
     302:	80 01 78    	mov.w     w0, w3
     304:	e2 0f 50    	sub.w     w0, #0x2, [w15]
     306:	28 00 3e    	bra       GTU, 0x358 <.L2>
     308:	c0 8c 81    	mov.w     0x3198, w0
     30a:	e1 0f 50    	sub.w     w0, #0x1, [w15]
     30c:	08 00 32    	bra       Z, 0x31e <.L7>
     30e:	80 23 20    	mov.w     #0x238, w0
     310:	00 00 e0    	cp0.w     w0
     312:	05 00 32    	bra       Z, 0x31e <.L7>
     314:	04 23 20    	mov.w     #0x230, w4
     316:	25 23 20    	mov.w     #0x232, w5
     318:	46 23 20    	mov.w     #0x234, w6
     31a:	80 01 78    	mov.w     w0, w3
     31c:	04 00 37    	bra       0x326

0000031e <.L7>:
     31e:	04 22 20    	mov.w     #0x220, w4
     320:	25 22 20    	mov.w     #0x222, w5
     322:	46 22 20    	mov.w     #0x224, w6
     324:	83 22 20    	mov.w     #0x228, w3

00000326 <.L6>:
     326:	14 40 90    	mov.b     [w4+1], w0
     328:	00 04 e0    	cp0.b     w0
     32a:	04 00 35    	bra       LT, 0x334 <.L9>
     32c:	80 09 eb    	clr.w     [w3]
     32e:	14 40 90    	mov.b     [w4+1], w0
     330:	00 74 a0    	bset.b    w0, #0x7
     332:	10 42 98    	mov.b     w0, [w4+1]

00000334 <.L9>:
     334:	15 40 90    	mov.b     [w5+1], w0
     336:	00 28 a3    	btst.z    w0, #0x2
     338:	03 00 3a    	bra       NZ, 0x340
     33a:	15 40 90    	mov.b     [w5+1], w0
     33c:	00 24 a0    	bset.b    w0, #0x2
     33e:	90 42 98    	mov.b     w0, [w5+1]

00000340 <.L11>:
     340:	80 01 eb    	clr.w     w3
     342:	07 00 37    	bra       0x352 <.L13>

00000344 <.L18>:
     344:	15 40 90    	mov.b     [w5+1], w0
     346:	00 08 a3    	btst.z    w0, #0x0
     348:	fd ff 32    	bra       Z, 0x344 <.L18>
     34a:	63 c0 78    	mov.b     [w3+w1], w0
     34c:	00 00 fb    	se        w0, w0
     34e:	00 0b 78    	mov.w     w0, [w6]
     350:	83 01 e8    	inc.w     w3, w3

00000352 <.L13>:
     352:	82 8f 51    	sub.w     w3, w2, [w15]
     354:	f7 ff 3a    	bra       NZ, 0x344 <.L18>
     356:	08 00 37    	bra       0x368

00000358 <.L2>:
     358:	30 00 20    	mov.w     #0x3, w0
     35a:	b0 bf 9f    	mov.w     w0, [w15-10]
     35c:	c3 bf 9f    	mov.w     w3, [w15-8]
     35e:	d1 bf 9f    	mov.w     w1, [w15-6]
     360:	e2 bf 9f    	mov.w     w2, [w15-4]

00000362 <.bb>:
     362:	6a 80 57    	sub.w     w15, #0xa, w0
     364:	00 c0 da    	.pword 0xdac000

00000366 <.eb>:
     366:	6f b9 97    	mov.w     [w15-4], w2

00000368 <.L16>:
     368:	02 00 78    	mov.w     w2, w0
     36a:	00 80 fa    	ulnk      
     36c:	00 00 06    	return    

0000036e <___mulp32eds3>:
     36e:	02 0a b9    	mul.su    w1, w2, w4
     370:	00 1b b9    	mul.su    w3, w0, w6
     372:	02 00 b8    	mul.uu    w0, w2, w0
     374:	81 00 42    	add.w     w4, w1, w1
     376:	81 00 43    	add.w     w6, w1, w1
     378:	00 00 06    	return    

0000037a <___floatsisf>:
     37a:	88 9f be    	mov.d     w8, [w15++]
     37c:	8a 9f be    	mov.d     w10, [w15++]
     37e:	01 05 78    	mov.w     w1, w10
     380:	01 00 e0    	cp0.w     w1
     382:	04 00 35    	bra       LT, 0x38c
     384:	08 00 3c    	bra       GT, 0x396
     386:	00 00 e0    	cp0.w     w0
     388:	20 00 32    	bra       Z, 0x3ca
     38a:	05 00 37    	bra       0x396

0000038c <negative>:
     38c:	60 00 10    	subr.w    w0, #0x0, w0
     38e:	e0 80 18    	subbr.w   w1, #0x0, w1
     390:	02 00 3b    	bra       NN, 0x396
     392:	01 f0 2c    	mov.w     #0xcf00, w1
     394:	1a 00 37    	bra       0x3ca

00000396 <notspecial>:
     396:	00 04 be    	mov.d     w0, w8
     398:	60 11 b8    	mul.uu    w2, #0x0, w2
     39a:	6b 09 20    	mov.w     #0x96, w11
     39c:	09 82 cf    	ff1l      w9, w4
     39e:	02 00 39    	bra       NC, 0x3a4
     3a0:	08 82 cf    	ff1l      w8, w4
     3a2:	04 41 b0    	add.b     #0x10, w4

000003a4 <fixshift>:
     3a4:	69 42 52    	sub.b     w4, #0x9, w4
     3a6:	0e 00 32    	bra       Z, 0x3c4
     3a8:	08 00 3b    	bra       NN, 0x3ba

000003aa <shiftright>:
     3aa:	82 81 71    	ior.w     w3, w2, w3
     3ac:	61 01 64    	and.w     w8, #0x1, w2
     3ae:	89 04 d1    	lsr.w     w9, w9
     3b0:	08 84 d3    	rrc.w     w8, w8
     3b2:	8b 05 e8    	inc.w     w11, w11
     3b4:	04 42 e8    	inc.b     w4, w4
     3b6:	f9 ff 3a    	bra       NZ, 0x3aa
     3b8:	05 00 37    	bra       0x3c4

000003ba <shiftleft>:
     3ba:	08 04 44    	add.w     w8, w8, w8
     3bc:	89 84 4c    	addc.w    w9, w9, w9
     3be:	8b 05 e9    	dec.w     w11, w11
     3c0:	04 42 e9    	dec.b     w4, w4
     3c2:	fb ff 3a    	bra       NZ, 0x3ba

000003c4 <round>:
     3c4:	08 01 07    	rcall     0x5d6 <__fpack>
     3c6:	0a f0 a7    	btsc.w    w10, #0xf
     3c8:	01 f0 a0    	bset.w    w1, #0xf

000003ca <return0>:
     3ca:	4f 05 be    	mov.d     [--w15], w10
     3cc:	4f 04 be    	mov.d     [--w15], w8
     3ce:	00 00 06    	return    

000003d0 <___divsf3>:
     3d0:	88 9f be    	mov.d     w8, [w15++]
     3d2:	8a 9f be    	mov.d     w10, [w15++]
     3d4:	8c 1f 78    	mov.w     w12, [w15++]
     3d6:	25 01 07    	rcall     0x622 <__funpack2>
     3d8:	2c 01 33    	bra       N, 0x632 <__fPropagateNaN>
     3da:	03 86 6c    	xor.w     w9, w3, w12
     3dc:	64 50 e1    	cp.w      w10, #0x4
     3de:	2e 00 32    	bra       Z, 0x43c <aisinfinite>
     3e0:	64 20 e1    	cp.w      w4, #0x4
     3e2:	33 00 32    	bra       Z, 0x44a
     3e4:	61 50 e1    	cp.w      w10, #0x1
     3e6:	2f 00 32    	bra       Z, 0x446
     3e8:	61 20 e1    	cp.w      w4, #0x1
     3ea:	31 00 32    	bra       Z, 0x44e

000003ec <finitenonzero>:
     3ec:	85 85 55    	sub.w     w11, w5, w11
     3ee:	eb 07 b0    	add.w     #0x7e, w11
     3f0:	09 00 20    	mov.w     #0x0, w9
     3f2:	08 04 20    	mov.w     #0x40, w8
     3f4:	05 00 37    	bra       0x400

000003f6 <divnext>:
     3f6:	08 04 44    	add.w     w8, w8, w8
     3f8:	89 84 4c    	addc.w    w9, w9, w9
     3fa:	0a 00 31    	bra       C, 0x410

000003fc <divloop>:
     3fc:	06 03 43    	add.w     w6, w6, w6
     3fe:	87 83 4b    	addc.w    w7, w7, w7

00000400 <diventry>:
     400:	00 01 53    	sub.w     w6, w0, w2
     402:	81 81 5b    	subb.w    w7, w1, w3
     404:	f8 ff 33    	bra       N, 0x3f6 <divnext>
     406:	02 03 be    	mov.d     w2, w6
     408:	08 00 a0    	bset.w    w8, #0x0
     40a:	08 04 44    	add.w     w8, w8, w8
     40c:	89 84 4c    	addc.w    w9, w9, w9
     40e:	f6 ff 39    	bra       NC, 0x3fc <divloop>

00000410 <divdone>:
     410:	c6 39 dd    	sl.w      w7, #0x6, w3
     412:	83 01 73    	ior.w     w6, w3, w3
     414:	01 00 32    	bra       Z, 0x418
     416:	13 00 20    	mov.w     #0x1, w3

00000418 <stickyok>:
     418:	89 04 d1    	lsr.w     w9, w9
     41a:	08 84 d3    	rrc.w     w8, w8
     41c:	09 98 a3    	btst.z    w9, #0x9
     41e:	05 00 32    	bra       Z, 0x42a
     420:	08 00 a7    	btsc.w    w8, #0x0
     422:	03 00 a0    	bset.w    w3, #0x0
     424:	89 04 d1    	lsr.w     w9, w9
     426:	08 84 d3    	rrc.w     w8, w8
     428:	8b 05 e8    	inc.w     w11, w11

0000042a <guardused>:
     42a:	89 04 d1    	lsr.w     w9, w9
     42c:	08 84 d3    	rrc.w     w8, w8
     42e:	00 01 eb    	clr.w     w2
     430:	02 81 d2    	rlc.w     w2, w2
     432:	d1 00 07    	rcall     0x5d6 <__fpack>

00000434 <return0>:
     434:	01 f0 a1    	bclr.w    w1, #0xf
     436:	0c f0 a7    	btsc.w    w12, #0xf
     438:	01 f0 a0    	bset.w    w1, #0xf
     43a:	04 01 37    	bra       0x644 <__fbopExit>

0000043c <aisinfinite>:
     43c:	64 20 e1    	cp.w      w4, #0x4
     43e:	06 01 32    	bra       Z, 0x64c <__fbopReturnNaN>

00000440 <return8>:
     440:	08 01 be    	mov.d     w8, w2

00000442 <return2>:
     442:	02 00 be    	mov.d     w2, w0
     444:	f7 ff 37    	bra       0x434

00000446 <aiszero>:
     446:	61 20 e1    	cp.w      w4, #0x1
     448:	01 01 32    	bra       Z, 0x64c <__fbopReturnNaN>

0000044a <returnZero>:
     44a:	60 00 b8    	mul.uu    w0, #0x0, w0
     44c:	f3 ff 37    	bra       0x434

0000044e <returnInf>:
     44e:	00 00 20    	mov.w     #0x0, w0
     450:	01 f8 27    	mov.w     #0x7f80, w1
     452:	f0 ff 37    	bra       0x434

00000454 <___udivsi3>:
     454:	60 22 b8    	mul.uu    w4, #0x0, w4
     456:	06 02 20    	mov.w     #0x20, w6

00000458 <nextbit>:
     458:	00 00 d0    	sl.w      w0, w0
     45a:	81 80 d2    	rlc.w     w1, w1
     45c:	04 82 d2    	rlc.w     w4, w4
     45e:	85 82 d2    	rlc.w     w5, w5
     460:	00 00 a0    	bset.w    w0, #0x0
     462:	02 02 52    	sub.w     w4, w2, w4
     464:	83 82 5a    	subb.w    w5, w3, w5
     466:	03 00 31    	bra       C, 0x46e
     468:	02 02 42    	add.w     w4, w2, w4
     46a:	83 82 4a    	addc.w    w5, w3, w5
     46c:	00 00 a1    	bclr.w    w0, #0x0

0000046e <iterate>:
     46e:	06 03 e9    	dec.w     w6, w6
     470:	f3 ff 3a    	bra       NZ, 0x458
     472:	00 00 06    	return    

00000474 <___eqsf2>:
     474:	14 00 20    	mov.w     #0x1, w4
     476:	ed 00 37    	bra       0x652 <__fcompare>

00000478 <___gesf2>:
     478:	f4 ff 2f    	mov.w     #0xffff, w4
     47a:	eb 00 37    	bra       0x652 <__fcompare>

0000047c <___mulsf3>:
     47c:	88 9f be    	mov.d     w8, [w15++]
     47e:	8a 9f be    	mov.d     w10, [w15++]
     480:	8c 1f 78    	mov.w     w12, [w15++]
     482:	cf 00 07    	rcall     0x622 <__funpack2>
     484:	d6 00 33    	bra       N, 0x632 <__fPropagateNaN>
     486:	03 86 6c    	xor.w     w9, w3, w12
     488:	64 50 e1    	cp.w      w10, #0x4
     48a:	24 00 32    	bra       Z, 0x4d4 <aisinfinite>
     48c:	64 20 e1    	cp.w      w4, #0x4
     48e:	27 00 32    	bra       Z, 0x4de <bisinfinite>
     490:	61 50 e1    	cp.w      w10, #0x1
     492:	22 00 32    	bra       Z, 0x4d8 <return8>
     494:	61 20 e1    	cp.w      w4, #0x1
     496:	21 00 32    	bra       Z, 0x4da <return2>
     498:	8b 85 42    	add.w     w5, w11, w11
     49a:	eb 07 b1    	sub.w     #0x7e, w11
     49c:	01 34 b8    	mul.uu    w6, w1, w8
     49e:	00 3a b8    	mul.uu    w7, w0, w4
     4a0:	08 04 42    	add.w     w4, w8, w8
     4a2:	89 84 4a    	addc.w    w5, w9, w9
     4a4:	01 3a b8    	mul.uu    w7, w1, w4
     4a6:	00 30 b8    	mul.uu    w6, w0, w0
     4a8:	88 80 40    	add.w     w1, w8, w1
     4aa:	09 01 4a    	addc.w    w4, w9, w2
     4ac:	04 00 33    	bra       N, 0x4b6 <formsticky>
     4ae:	00 00 40    	add.w     w0, w0, w0
     4b0:	81 80 48    	addc.w    w1, w1, w1
     4b2:	02 01 49    	addc.w    w2, w2, w2
     4b4:	8b 05 e9    	dec.w     w11, w11

000004b6 <formsticky>:
     4b6:	c9 09 dd    	sl.w      w1, #0x9, w3
     4b8:	83 01 70    	ior.w     w0, w3, w3
     4ba:	01 00 32    	bra       Z, 0x4be <formRandSig>
     4bc:	13 00 20    	mov.w     #0x1, w3

000004be <formRandSig>:
     4be:	c8 14 de    	lsr.w     w2, #0x8, w9
     4c0:	48 14 dd    	sl.w      w2, #0x8, w8
     4c2:	47 09 de    	lsr.w     w1, #0x7, w2
     4c4:	12 00 b2    	and.w     #0x1, w2
     4c6:	c8 08 de    	lsr.w     w1, #0x8, w1
     4c8:	08 84 70    	ior.w     w1, w8, w8
     4ca:	85 00 07    	rcall     0x5d6 <__fpack>

000004cc <return0>:
     4cc:	01 f0 a1    	bclr.w    w1, #0xf
     4ce:	0c f0 a7    	btsc.w    w12, #0xf
     4d0:	01 f0 a0    	bset.w    w1, #0xf
     4d2:	b8 00 37    	bra       0x644 <__fbopExit>

000004d4 <aisinfinite>:
     4d4:	61 20 e1    	cp.w      w4, #0x1
     4d6:	ba 00 32    	bra       Z, 0x64c <__fbopReturnNaN>

000004d8 <return8>:
     4d8:	08 01 be    	mov.d     w8, w2

000004da <return2>:
     4da:	02 00 be    	mov.d     w2, w0
     4dc:	f7 ff 37    	bra       0x4cc <return0>

000004de <bisinfinite>:
     4de:	61 50 e1    	cp.w      w10, #0x1
     4e0:	fc ff 3a    	bra       NZ, 0x4da <return2>
     4e2:	b4 00 37    	bra       0x64c <__fbopReturnNaN>

000004e4 <___fixunssfsi>:
     4e4:	00 01 be    	mov.d     w0, w2
     4e6:	d0 00 07    	rcall     0x688 <__funpack>
     4e8:	04 70 a7    	btsc.w    w4, #0x7
     4ea:	03 f0 a1    	bclr.w    w3, #0xf
     4ec:	03 f8 a3    	btst.z    w3, #0xf
     4ee:	13 00 3a    	bra       NZ, 0x516 <returnzero>
     4f0:	65 09 b1    	sub.w     #0x96, w5
     4f2:	10 00 32    	bra       Z, 0x514
     4f4:	09 00 35    	bra       LT, 0x508
     4f6:	69 28 e1    	cp.w      w5, #0x9
     4f8:	02 00 35    	bra       LT, 0x4fe <shiftleft>
     4fa:	01 00 28    	mov.w     #0x8000, w1
     4fc:	00 00 05    	retlw.w   #0x0, w0

000004fe <shiftleft>:
     4fe:	00 00 40    	add.w     w0, w0, w0
     500:	81 80 48    	addc.w    w1, w1, w1
     502:	85 02 e9    	dec.w     w5, w5
     504:	fc ff 3a    	bra       NZ, 0x4fe <shiftleft>
     506:	00 00 06    	return    

00000508 <shiftright>:
     508:	f8 8f 42    	add.w     w5, #0x18, [w15]
     50a:	05 00 35    	bra       LT, 0x516 <returnzero>

0000050c <shiftrightloop>:
     50c:	81 00 d1    	lsr.w     w1, w1
     50e:	00 80 d3    	rrc.w     w0, w0
     510:	85 02 e8    	inc.w     w5, w5
     512:	fc ff 3a    	bra       NZ, 0x50c

00000514 <exit>:
     514:	00 00 06    	return    

00000516 <returnzero>:
     516:	80 00 eb    	clr.w     w1
     518:	00 00 05    	retlw.w   #0x0, w0

0000051a <___subsf3>:
     51a:	03 f0 a2    	btg.w     w3, #0xf

0000051c <___addsf3>:
     51c:	88 9f be    	mov.d     w8, [w15++]
     51e:	8a 9f be    	mov.d     w10, [w15++]
     520:	8c 1f 78    	mov.w     w12, [w15++]
     522:	7f 00 07    	rcall     0x622 <__funpack2>
     524:	86 00 33    	bra       N, 0x632 <__fPropagateNaN>
     526:	64 50 e1    	cp.w      w10, #0x4
     528:	4f 00 32    	bra       Z, 0x5c8 <aisinfinite>

0000052a <checkspecialb>:
     52a:	64 20 e1    	cp.w      w4, #0x4
     52c:	52 00 32    	bra       Z, 0x5d2 <return2>
     52e:	03 82 6c    	xor.w     w9, w3, w4
     530:	07 00 3b    	bra       NN, 0x540
     532:	09 05 d0    	sl.w      w9, w10
     534:	03 06 d0    	sl.w      w3, w12
     536:	82 0f 54    	sub.w     w8, w2, [w15]
     538:	0c 06 5d    	subb.w    w10, w12, w12
     53a:	02 00 39    	bra       NC, 0x540
     53c:	02 00 32    	bra       Z, 0x542
     53e:	89 01 78    	mov.w     w9, w3

00000540 <getsign>:
     540:	03 06 78    	mov.w     w3, w12

00000542 <gotsign>:
     542:	85 82 55    	sub.w     w11, w5, w5
     544:	04 00 3d    	bra       GE, 0x54e
     546:	00 03 fd    	exch      w0, w6
     548:	81 03 fd    	exch      w1, w7
     54a:	85 02 ea    	neg.w     w5, w5
     54c:	8b 85 42    	add.w     w5, w11, w11

0000054e <expcanonical>:
     54e:	84 0f 72    	ior.w     w4, w4, [w15]
     550:	02 00 3b    	bra       NN, 0x556
     552:	60 00 10    	subr.w    w0, #0x0, w0
     554:	e0 80 18    	subbr.w   w1, #0x0, w1

00000556 <nonegate>:
     556:	60 11 b8    	mul.uu    w2, #0x0, w2
     558:	00 05 eb    	clr.w     w10
     55a:	7a 28 e1    	cp.w      w5, #0x1a
     55c:	0a 00 39    	bra       NC, 0x572
     55e:	06 00 78    	mov.w     w6, w0
     560:	c7 5d dd    	sl.w      w11, #0x7, w11
     562:	f7 07 b2    	and.w     #0x7f, w7
     564:	87 80 75    	ior.w     w11, w7, w1
     566:	2d 00 37    	bra       0x5c2 <signoff>

00000568 <align>:
     568:	82 81 71    	ior.w     w3, w2, w3
     56a:	0a 01 78    	mov.w     w10, w2
     56c:	61 05 60    	and.w     w0, #0x1, w10
     56e:	81 80 d1    	asr.w     w1, w1
     570:	00 80 d3    	rrc.w     w0, w0

00000572 <aligniter>:
     572:	85 02 e9    	dec.w     w5, w5
     574:	f9 ff 3b    	bra       NN, 0x568

00000576 <aligned>:
     576:	06 04 40    	add.w     w0, w6, w8
     578:	87 84 48    	addc.w    w1, w7, w9
     57a:	02 00 3b    	bra       NN, 0x580 <normalizesum>
     57c:	60 04 14    	subr.w    w8, #0x0, w8
     57e:	e0 84 1c    	subbr.w   w9, #0x0, w9

00000580 <normalizesum>:
     580:	09 88 a3    	btst.z    w9, #0x8
     582:	07 00 32    	bra       Z, 0x592 <checknormal>
     584:	8a 81 71    	ior.w     w3, w10, w3
     586:	82 81 71    	ior.w     w3, w2, w3
     588:	61 01 64    	and.w     w8, #0x1, w2
     58a:	89 04 d1    	lsr.w     w9, w9
     58c:	08 84 d3    	rrc.w     w8, w8
     58e:	8b 05 e8    	inc.w     w11, w11
     590:	17 00 37    	bra       0x5c0 <round>

00000592 <checknormal>:
     592:	09 78 a3    	btst.z    w9, #0x7
     594:	13 00 3a    	bra       NZ, 0x5bc <discardguard>

00000596 <underflow>:
     596:	0b 00 e0    	cp0.w     w11
     598:	13 00 34    	bra       LE, 0x5c0 <round>
     59a:	8b 05 e9    	dec.w     w11, w11
     59c:	08 04 44    	add.w     w8, w8, w8
     59e:	89 84 4c    	addc.w    w9, w9, w9
     5a0:	0a 44 74    	ior.b     w8, w10, w8
     5a2:	09 78 a3    	btst.z    w9, #0x7
     5a4:	0d 00 3a    	bra       NZ, 0x5c0 <round>

000005a6 <normalizeloop>:
     5a6:	0b 00 e0    	cp0.w     w11
     5a8:	07 00 34    	bra       LE, 0x5b8 <normalizeexit>
     5aa:	8b 05 e9    	dec.w     w11, w11
     5ac:	08 04 44    	add.w     w8, w8, w8
     5ae:	89 84 4c    	addc.w    w9, w9, w9
     5b0:	01 00 3a    	bra       NZ, 0x5b4 <normalizetest>
     5b2:	0b 00 20    	mov.w     #0x0, w11

000005b4 <normalizetest>:
     5b4:	09 78 a3    	btst.z    w9, #0x7
     5b6:	f7 ff 32    	bra       Z, 0x5a6 <normalizeloop>

000005b8 <normalizeexit>:
     5b8:	00 01 eb    	clr.w     w2
     5ba:	02 00 37    	bra       0x5c0 <round>

000005bc <discardguard>:
     5bc:	82 81 71    	ior.w     w3, w2, w3
     5be:	0a 01 78    	mov.w     w10, w2

000005c0 <round>:
     5c0:	0a 00 07    	rcall     0x5d6 <__fpack>

000005c2 <signoff>:
     5c2:	0c f0 a7    	btsc.w    w12, #0xf
     5c4:	01 f0 a0    	bset.w    w1, #0xf
     5c6:	3e 00 37    	bra       0x644 <__fbopExit>

000005c8 <aisinfinite>:
     5c8:	64 20 e1    	cp.w      w4, #0x4
     5ca:	02 00 3a    	bra       NZ, 0x5d0 <return8>
     5cc:	83 8f 6c    	xor.w     w9, w3, [w15]
     5ce:	3e 00 33    	bra       N, 0x64c <__fbopReturnNaN>

000005d0 <return8>:
     5d0:	08 01 be    	mov.d     w8, w2

000005d2 <return2>:
     5d2:	02 00 be    	mov.d     w2, w0
     5d4:	37 00 37    	bra       0x644 <__fbopExit>

000005d6 <__fpack>:
     5d6:	81 00 20    	mov.w     #0x8, w1
     5d8:	61 80 55    	sub.w     w11, #0x1, w0
     5da:	0b 00 3d    	bra       GE, 0x5f2 <notsubnormal>
     5dc:	0b 00 20    	mov.w     #0x0, w11
     5de:	61 fe 2f    	mov.w     #0xffe6, w1
     5e0:	01 00 e1    	cp.w      w0, w1
     5e2:	1d 00 34    	bra       LE, 0x61e <zerosig>

000005e4 <subnormal>:
     5e4:	82 81 71    	ior.w     w3, w2, w3
     5e6:	61 01 64    	and.w     w8, #0x1, w2
     5e8:	89 04 d1    	lsr.w     w9, w9
     5ea:	08 84 d3    	rrc.w     w8, w8
     5ec:	00 00 e8    	inc.w     w0, w0
     5ee:	fa ff 3a    	bra       NZ, 0x5e4 <subnormal>
     5f0:	71 00 20    	mov.w     #0x7, w1

000005f2 <notsubnormal>:
     5f2:	61 00 64    	and.w     w8, #0x1, w0
     5f4:	03 00 70    	ior.w     w0, w3, w0
     5f6:	02 00 60    	and.w     w0, w2, w0
     5f8:	09 00 32    	bra       Z, 0x60c <packupandgo>
     5fa:	61 04 44    	add.w     w8, #0x1, w8
     5fc:	e0 84 4c    	addc.w    w9, #0x0, w9
     5fe:	09 88 a5    	btst.z    w9, w1
     600:	05 00 32    	bra       Z, 0x60c <packupandgo>
     602:	8b 05 e8    	inc.w     w11, w11
     604:	68 08 e1    	cp.w      w1, #0x8
     606:	02 00 3a    	bra       NZ, 0x60c <packupandgo>
     608:	89 04 d1    	lsr.w     w9, w9
     60a:	08 84 d3    	rrc.w     w8, w8

0000060c <packupandgo>:
     60c:	f2 0f 20    	mov.w     #0xff, w2
     60e:	02 58 e1    	cp.w      w11, w2
     610:	05 00 3d    	bra       GE, 0x61c <overflow>
     612:	c7 5d dd    	sl.w      w11, #0x7, w11
     614:	f9 07 b2    	and.w     #0x7f, w9
     616:	89 80 75    	ior.w     w11, w9, w1
     618:	08 00 78    	mov.w     w8, w0
     61a:	00 00 06    	return    

0000061c <overflow>:
     61c:	0b f8 27    	mov.w     #0x7f80, w11

0000061e <zerosig>:
     61e:	8b 00 78    	mov.w     w11, w1
     620:	00 00 05    	retlw.w   #0x0, w0

00000622 <__funpack2>:
     622:	00 04 be    	mov.d     w0, w8
     624:	31 00 07    	rcall     0x688 <__funpack>
     626:	00 03 be    	mov.d     w0, w6
     628:	04 05 be    	mov.d     w4, w10
     62a:	02 00 be    	mov.d     w2, w0
     62c:	2d 00 07    	rcall     0x688 <__funpack>
     62e:	84 4f 75    	ior.b     w10, w4, [w15]
     630:	00 00 06    	return    

00000632 <__fPropagateNaN>:
     632:	02 00 be    	mov.d     w2, w0
     634:	64 50 e1    	cp.w      w10, #0x4
     636:	05 00 36    	bra       LEU, 0x642 <return0>
     638:	64 20 e1    	cp.w      w4, #0x4
     63a:	02 00 36    	bra       LEU, 0x640 <return8>
     63c:	09 68 a3    	btst.z    w9, #0x6
     63e:	01 00 3a    	bra       NZ, 0x642 <return0>

00000640 <return8>:
     640:	08 00 be    	mov.d     w8, w0

00000642 <return0>:
     642:	01 60 a0    	bset.w    w1, #0x6

00000644 <__fbopExit>:
     644:	4f 06 78    	mov.w     [--w15], w12
     646:	4f 05 be    	mov.d     [--w15], w10
     648:	4f 04 be    	mov.d     [--w15], w8
     64a:	00 00 06    	return    

0000064c <__fbopReturnNaN>:
     64c:	f0 ff 2f    	mov.w     #0xffff, w0
     64e:	f1 ff 27    	mov.w     #0x7fff, w1
     650:	f9 ff 37    	bra       0x644 <__fbopExit>

00000652 <__fcompare>:
     652:	88 9f be    	mov.d     w8, [w15++]
     654:	8a 9f be    	mov.d     w10, [w15++]
     656:	84 1f 78    	mov.w     w4, [w15++]
     658:	e4 ff 07    	rcall     0x622 <__funpack2>
     65a:	4f 00 78    	mov.w     [--w15], w0
     65c:	11 00 33    	bra       N, 0x680 <exit>
     65e:	f0 ff 2f    	mov.w     #0xffff, w0
     660:	83 8f 6c    	xor.w     w9, w3, [w15]
     662:	06 00 3b    	bra       NN, 0x670 <comparemag>
     664:	04 05 65    	and.w     w10, w4, w10
     666:	0a 00 a7    	btsc.w    w10, #0x0
     668:	08 00 37    	bra       0x67a <returnEqual>
     66a:	09 f0 a6    	btss.w    w9, #0xf
     66c:	10 00 20    	mov.w     #0x1, w0
     66e:	08 00 37    	bra       0x680 <exit>

00000670 <comparemag>:
     670:	82 0f 54    	sub.w     w8, w2, [w15]
     672:	83 8f 5c    	subb.w    w9, w3, [w15]
     674:	03 00 39    	bra       NC, 0x67c <adjust>
     676:	10 00 20    	mov.w     #0x1, w0
     678:	01 00 3e    	bra       GTU, 0x67c <adjust>

0000067a <returnEqual>:
     67a:	00 00 20    	mov.w     #0x0, w0

0000067c <adjust>:
     67c:	09 f0 a7    	btsc.w    w9, #0xf
     67e:	00 00 ea    	neg.w     w0, w0

00000680 <exit>:
     680:	4f 05 be    	mov.d     [--w15], w10
     682:	4f 04 be    	mov.d     [--w15], w8
     684:	00 00 e0    	cp0.w     w0
     686:	00 00 06    	return    

00000688 <__funpack>:
     688:	c7 0a de    	lsr.w     w1, #0x7, w5
     68a:	f1 07 b2    	and.w     #0x7f, w1
     68c:	f5 0f b2    	and.w     #0xff, w5
     68e:	08 00 32    	bra       Z, 0x6a0 <zeroorsub>
     690:	e1 cf 42    	add.b     w5, #0x1, [w15]
     692:	02 00 32    	bra       Z, 0x698 <nanorinf>

00000694 <finitereturn>:
     694:	01 70 a0    	bset.w    w1, #0x7
     696:	24 00 05    	retlw.w   #0x2, w4

00000698 <nanorinf>:
     698:	81 0f 70    	ior.w     w0, w1, [w15]
     69a:	01 00 32    	bra       Z, 0x69e <infinite>
     69c:	04 08 05    	retlw.w   #0x80, w4

0000069e <infinite>:
     69e:	44 00 05    	retlw.w   #0x4, w4

000006a0 <zeroorsub>:
     6a0:	81 0f 70    	ior.w     w0, w1, [w15]
     6a2:	02 00 3a    	bra       NZ, 0x6a8 <subnormal>
     6a4:	14 00 05    	retlw.w   #0x1, w4

000006a6 <normalize>:
     6a6:	85 02 e9    	dec.w     w5, w5

000006a8 <subnormal>:
     6a8:	00 00 40    	add.w     w0, w0, w0
     6aa:	81 c0 48    	addc.b    w1, w1, w1
     6ac:	fc ff 3b    	bra       NN, 0x6a6 <normalize>
     6ae:	01 70 a0    	bset.w    w1, #0x7
     6b0:	24 00 05    	retlw.w   #0x2, w4

000006b2 <___muldf3>:
     6b2:	28 00 fa    	lnk       #0x28
     6b4:	88 9f be    	mov.d     w8, [w15++]
     6b6:	8a 9f be    	mov.d     w10, [w15++]
     6b8:	8c 9f be    	mov.d     w12, [w15++]
     6ba:	03 86 6b    	xor.w     w7, w3, w12
     6bc:	17 03 07    	rcall     0xcec <__dunpack2>
     6be:	00 28 a3    	btst.z    w0, #0x2
     6c0:	64 00 3a    	bra       NZ, 0x78a <aisinfinite>
     6c2:	01 28 a3    	btst.z    w1, #0x2
     6c4:	67 00 3a    	bra       NZ, 0x794 <bisinfinite>
     6c6:	00 08 a3    	btst.z    w0, #0x0
     6c8:	62 00 3a    	bra       NZ, 0x78e <returna>
     6ca:	01 08 a3    	btst.z    w1, #0x0
     6cc:	65 00 3a    	bra       NZ, 0x798 <returnb>
     6ce:	1e 00 90    	mov.w     [w14+2], w0
     6d0:	be 08 90    	mov.w     [w14+22], w1
     6d2:	81 06 40    	add.w     w0, w1, w13
     6d4:	ed 3f b1    	sub.w     #0x3fe, w13
     6d6:	f4 80 57    	sub.w     w15, #0x14, w1
     6d8:	ee 01 90    	mov.w     [w14+12], w3
     6da:	11 1a b8    	mul.uu    w3, [w1], w4
     6dc:	8e 09 90    	mov.w     [w14+16], w3
     6de:	31 1b b8    	mul.uu    w3, [w1++], w6
     6e0:	9e 09 90    	mov.w     [w14+18], w3
     6e2:	31 1c b8    	mul.uu    w3, [w1++], w8
     6e4:	51 1d b8    	mul.uu    w3, [++w1], w10
     6e6:	f4 85 57    	sub.w     w15, #0x14, w11
     6e8:	46 00 07    	rcall     0x776 <muladd7>
     6ea:	fe 01 90    	mov.w     [w14+14], w3
     6ec:	3a 00 07    	rcall     0x762 <muladd5>
     6ee:	8b 85 e8    	inc2.w    w11, w11
     6f0:	3e 00 07    	rcall     0x76e <muladd6>
     6f2:	8e 09 90    	mov.w     [w14+16], w3
     6f4:	40 00 07    	rcall     0x776 <muladd7>
     6f6:	ee 01 90    	mov.w     [w14+12], w3
     6f8:	34 00 07    	rcall     0x762 <muladd5>
     6fa:	8b 85 e8    	inc2.w    w11, w11
     6fc:	38 00 07    	rcall     0x76e <muladd6>
     6fe:	8e 09 90    	mov.w     [w14+16], w3
     700:	40 00 07    	rcall     0x782 <muladd8>
     702:	9e 09 90    	mov.w     [w14+18], w3
     704:	1b 18 b8    	mul.uu    w3, [w11], w0
     706:	89 04 40    	add.w     w0, w9, w9
     708:	0a 85 48    	addc.w    w1, w10, w10
     70a:	fe 01 90    	mov.w     [w14+14], w3
     70c:	34 00 07    	rcall     0x776 <muladd7>
     70e:	8b 85 e8    	inc2.w    w11, w11
     710:	38 00 07    	rcall     0x782 <muladd8>
     712:	ee 01 90    	mov.w     [w14+12], w3
     714:	30 00 07    	rcall     0x776 <muladd7>
     716:	8e 09 90    	mov.w     [w14+16], w3
     718:	1b 18 b8    	mul.uu    w3, [w11], w0
     71a:	89 04 40    	add.w     w0, w9, w9
     71c:	0a 85 48    	addc.w    w1, w10, w10
     71e:	0a 98 a3    	btst.z    w10, #0x9
     720:	08 00 3a    	bra       NZ, 0x732 <formsticky>
     722:	04 02 42    	add.w     w4, w4, w4
     724:	85 82 4a    	addc.w    w5, w5, w5
     726:	06 03 4b    	addc.w    w6, w6, w6
     728:	87 83 4b    	addc.w    w7, w7, w7
     72a:	08 04 4c    	addc.w    w8, w8, w8
     72c:	89 84 4c    	addc.w    w9, w9, w9
     72e:	0a 05 4d    	addc.w    w10, w10, w10
     730:	8d 06 e9    	dec.w     w13, w13

00000732 <formsticky>:
     732:	84 82 72    	ior.w     w5, w4, w5
     734:	85 02 73    	ior.w     w6, w5, w5
     736:	4c 3a dd    	sl.w      w7, #0xc, w4
     738:	85 02 72    	ior.w     w4, w5, w5
     73a:	01 00 32    	bra       Z, 0x73e <formRandSig>
     73c:	15 00 20    	mov.w     #0x1, w5

0000073e <formRandSig>:
     73e:	44 3a de    	lsr.w     w7, #0x4, w4
     740:	14 00 b2    	and.w     #0x1, w4
     742:	45 38 de    	lsr.w     w7, #0x5, w0
     744:	cb 45 dd    	sl.w      w8, #0xb, w11
     746:	0b 00 70    	ior.w     w0, w11, w0
     748:	c5 40 de    	lsr.w     w8, #0x5, w1
     74a:	cb 4d dd    	sl.w      w9, #0xb, w11
     74c:	8b 80 70    	ior.w     w1, w11, w1
     74e:	45 49 de    	lsr.w     w9, #0x5, w2
     750:	cb 55 dd    	sl.w      w10, #0xb, w11
     752:	0b 01 71    	ior.w     w2, w11, w2
     754:	c5 51 de    	lsr.w     w10, #0x5, w3
     756:	0d 03 78    	mov.w     w13, w6
     758:	e2 02 07    	rcall     0xd1e <__dpack>

0000075a <signoff>:
     75a:	03 f0 a1    	bclr.w    w3, #0xf
     75c:	0c f0 a7    	btsc.w    w12, #0xf
     75e:	03 f0 a0    	bset.w    w3, #0xf
     760:	d9 02 37    	bra       0xd14 <__dunpack2exit>

00000762 <muladd5>:
     762:	1b 18 b8    	mul.uu    w3, [w11], w0
     764:	85 02 40    	add.w     w0, w5, w5
     766:	06 83 48    	addc.w    w1, w6, w6
     768:	e0 83 4b    	addc.w    w7, #0x0, w7

0000076a <carry8>:
     76a:	60 04 4c    	addc.w    w8, #0x0, w8
     76c:	07 00 37    	bra       0x77c <carry9>

0000076e <muladd6>:
     76e:	1b 18 b8    	mul.uu    w3, [w11], w0
     770:	06 03 40    	add.w     w0, w6, w6
     772:	87 83 48    	addc.w    w1, w7, w7
     774:	fa ff 37    	bra       0x76a <carry8>

00000776 <muladd7>:
     776:	1b 18 b8    	mul.uu    w3, [w11], w0
     778:	87 03 40    	add.w     w0, w7, w7
     77a:	08 84 48    	addc.w    w1, w8, w8

0000077c <carry9>:
     77c:	e0 84 4c    	addc.w    w9, #0x0, w9

0000077e <carrya>:
     77e:	60 05 4d    	addc.w    w10, #0x0, w10
     780:	00 00 06    	return    

00000782 <muladd8>:
     782:	1b 18 b8    	mul.uu    w3, [w11], w0
     784:	08 04 40    	add.w     w0, w8, w8
     786:	89 84 48    	addc.w    w1, w9, w9
     788:	fa ff 37    	bra       0x77e <carrya>

0000078a <aisinfinite>:
     78a:	01 08 a3    	btst.z    w1, #0x0
     78c:	c0 02 3a    	bra       NZ, 0xd0e <__dreturnNaN>

0000078e <returna>:
     78e:	58 00 be    	mov.d     [++w8], w0
     790:	58 01 be    	mov.d     [++w8], w2
     792:	e3 ff 37    	bra       0x75a <signoff>

00000794 <bisinfinite>:
     794:	00 08 a3    	btst.z    w0, #0x0
     796:	bb 02 3a    	bra       NZ, 0xd0e <__dreturnNaN>

00000798 <returnb>:
     798:	09 04 78    	mov.w     w9, w8
     79a:	f9 ff 37    	bra       0x78e <returna>

0000079c <___extendsfdf2>:
     79c:	81 03 78    	mov.w     w1, w7
     79e:	74 ff 07    	rcall     0x688 <__funpack>
     7a0:	00 01 be    	mov.d     w0, w2
     7a2:	60 00 b8    	mul.uu    w0, #0x0, w0
     7a4:	04 78 a3    	btst.z    w4, #0x7
     7a6:	13 00 3a    	bra       NZ, 0x7ce <xIsNaN>
     7a8:	62 20 e1    	cp.w      w4, #0x2
     7aa:	15 00 3e    	bra       GTU, 0x7d6 <xIsInf>
     7ac:	0d 00 39    	bra       NC, 0x7c8 <signoff>
     7ae:	83 01 d1    	lsr.w     w3, w3
     7b0:	02 81 d3    	rrc.w     w2, w2
     7b2:	81 80 d3    	rrc.w     w1, w1
     7b4:	83 01 d1    	lsr.w     w3, w3
     7b6:	02 81 d3    	rrc.w     w2, w2
     7b8:	81 80 d3    	rrc.w     w1, w1
     7ba:	83 01 d1    	lsr.w     w3, w3
     7bc:	02 81 d3    	rrc.w     w2, w2
     7be:	81 80 d3    	rrc.w     w1, w1
     7c0:	05 38 b0    	add.w     #0x380, w5
     7c2:	c4 2a dd    	sl.w      w5, #0x4, w5
     7c4:	f3 00 b2    	and.w     #0xf, w3
     7c6:	83 81 72    	ior.w     w5, w3, w3

000007c8 <signoff>:
     7c8:	07 f0 a7    	btsc.w    w7, #0xf
     7ca:	03 f0 a0    	bset.w    w3, #0xf

000007cc <exit>:
     7cc:	00 00 06    	return    

000007ce <xIsNaN>:
     7ce:	f3 ff 27    	mov.w     #0x7fff, w3
     7d0:	f2 ff 2f    	mov.w     #0xffff, w2
     7d2:	61 10 b9    	mul.su    w2, #0x1, w0
     7d4:	fb ff 37    	bra       0x7cc <exit>

000007d6 <xIsInf>:
     7d6:	03 ff 27    	mov.w     #0x7ff0, w3
     7d8:	f7 ff 37    	bra       0x7c8 <signoff>

000007da <___eqdf2>:
     7da:	8f 1f d1    	lsr.w     w15, [w15++]
     7dc:	cc 02 07    	rcall     0xd76 <__dcompare>
     7de:	8f 87 e9    	dec2.w    w15, w15
     7e0:	00 00 e0    	cp0.w     w0
     7e2:	00 00 06    	return    

000007e4 <___nedf2>:
     7e4:	80 1f eb    	clr.w     [w15++]
     7e6:	c7 02 07    	rcall     0xd76 <__dcompare>
     7e8:	8f 87 e9    	dec2.w    w15, w15
     7ea:	00 00 e0    	cp0.w     w0
     7ec:	00 00 06    	return    

000007ee <___truncdfsf2>:
     7ee:	14 00 fa    	lnk       #0x14
     7f0:	88 9f be    	mov.d     w8, [w15++]
     7f2:	8a 9f be    	mov.d     w10, [w15++]
     7f4:	8c 9f be    	mov.d     w12, [w15++]
     7f6:	00 05 be    	mov.d     w0, w10
     7f8:	02 06 be    	mov.d     w2, w12
     7fa:	68 00 47    	add.w     w14, #0x8, w0
     7fc:	0c 90 be    	mov.d     w12, [w0--]
     7fe:	0a 90 be    	mov.d     w10, [w0--]
     800:	e3 02 07    	rcall     0xdc8 <__dunpack>
     802:	64 00 e1    	cp.w      w0, #0x4
     804:	1a 00 32    	bra       Z, 0x83a <xIsInf>
     806:	16 00 3e    	bra       GTU, 0x834 <xIsNaN>
     808:	61 00 e1    	cp.w      w0, #0x1
     80a:	1a 00 32    	bra       Z, 0x840 <xIsZero>
     80c:	6e 04 90    	mov.w     [w14+12], w8
     80e:	fe 04 90    	mov.w     [w14+14], w9
     810:	0e 0b 90    	mov.w     [w14+16], w6
     812:	9e 0b 90    	mov.w     [w14+18], w7
     814:	60 11 b8    	mul.uu    w2, #0x0, w2
     816:	9e 05 90    	mov.w     [w14+2], w11
     818:	0b 38 b1    	sub.w     #0x380, w11
     81a:	d5 01 20    	mov.w     #0x1d, w5

0000081c <align>:
     81c:	82 81 71    	ior.w     w3, w2, w3
     81e:	61 01 64    	and.w     w8, #0x1, w2
     820:	87 03 d1    	lsr.w     w7, w7
     822:	06 83 d3    	rrc.w     w6, w6
     824:	89 84 d3    	rrc.w     w9, w9
     826:	08 84 d3    	rrc.w     w8, w8
     828:	85 02 e9    	dec.w     w5, w5
     82a:	f8 ff 3a    	bra       NZ, 0x81c <align>
     82c:	d4 fe 07    	rcall     0x5d6 <__fpack>

0000082e <signoff>:
     82e:	0d f0 a7    	btsc.w    w13, #0xf
     830:	01 f0 a0    	bset.w    w1, #0xf

00000832 <exit>:
     832:	70 02 37    	bra       0xd14 <__dunpack2exit>

00000834 <xIsNaN>:
     834:	f1 ff 27    	mov.w     #0x7fff, w1
     836:	f0 ff 2f    	mov.w     #0xffff, w0
     838:	6d 02 37    	bra       0xd14 <__dunpack2exit>

0000083a <xIsInf>:
     83a:	01 f8 27    	mov.w     #0x7f80, w1
     83c:	00 00 20    	mov.w     #0x0, w0
     83e:	f7 ff 37    	bra       0x82e <signoff>

00000840 <xIsZero>:
     840:	60 00 b8    	mul.uu    w0, #0x0, w0
     842:	f5 ff 37    	bra       0x82e <signoff>

00000844 <_frexpf>:
     844:	e8 02 07    	rcall     0xe16 <__frexpf>
     846:	05 09 78    	mov.w     w5, [w2]
     848:	00 00 06    	return    

0000084a <___gedf2>:
     84a:	80 9f eb    	setm.w    [w15++]
     84c:	94 02 07    	rcall     0xd76 <__dcompare>
     84e:	8f 87 e9    	dec2.w    w15, w15
     850:	00 00 e0    	cp0.w     w0
     852:	00 00 06    	return    

00000854 <___adddf3>:
     854:	28 00 fa    	lnk       #0x28
     856:	88 9f be    	mov.d     w8, [w15++]
     858:	8a 9f be    	mov.d     w10, [w15++]
     85a:	8c 9f be    	mov.d     w12, [w15++]
     85c:	07 06 78    	mov.w     w7, w12
     85e:	87 86 69    	xor.w     w3, w7, w13
     860:	0c 00 3b    	bra       NN, 0x87a <gotsign>
     862:	03 04 78    	mov.w     w3, w8
     864:	87 04 78    	mov.w     w7, w9
     866:	08 f0 a1    	bclr.w    w8, #0xf
     868:	09 f0 a1    	bclr.w    w9, #0xf
     86a:	84 0f 50    	sub.w     w0, w4, [w15]
     86c:	85 8f 58    	subb.w    w1, w5, [w15]
     86e:	86 0f 59    	subb.w    w2, w6, [w15]
     870:	89 0f 5c    	subb.w    w8, w9, [w15]
     872:	03 00 33    	bra       N, 0x87a <gotsign>
     874:	0c f0 a2    	btg.w     w12, #0xf
     876:	01 00 3a    	bra       NZ, 0x87a <gotsign>
     878:	0c f0 a1    	bclr.w    w12, #0xf

0000087a <gotsign>:
     87a:	38 02 07    	rcall     0xcec <__dunpack2>
     87c:	64 00 e1    	cp.w      w0, #0x4
     87e:	5f 00 32    	bra       Z, 0x93e <aisinfinite>
     880:	78 01 47    	add.w     w14, #0x18, w2
     882:	64 08 e1    	cp.w      w1, #0x4
     884:	61 00 32    	bra       Z, 0x948 <returnab>
     886:	6c 01 47    	add.w     w14, #0xc, w2
     888:	74 85 57    	sub.w     w15, #0x14, w10
     88a:	32 00 be    	mov.d     [w2++], w0
     88c:	12 01 be    	mov.d     [w2], w2
     88e:	3a 04 be    	mov.d     [w10++], w8
     890:	1a 05 be    	mov.d     [w10], w10
     892:	1e 03 90    	mov.w     [w14+2], w6
     894:	be 0a 90    	mov.w     [w14+22], w5
     896:	85 03 53    	sub.w     w6, w5, w7
     898:	06 00 3d    	bra       GE, 0x8a6 <expcanonical>
     89a:	00 04 fd    	exch      w0, w8
     89c:	81 04 fd    	exch      w1, w9
     89e:	02 05 fd    	exch      w2, w10
     8a0:	83 05 fd    	exch      w3, w11
     8a2:	87 03 ea    	neg.w     w7, w7
     8a4:	05 03 78    	mov.w     w5, w6

000008a6 <expcanonical>:
     8a6:	0d f8 a3    	btst.z    w13, #0xf
     8a8:	04 00 32    	bra       Z, 0x8b2 <bcanonical>
     8aa:	60 04 14    	subr.w    w8, #0x0, w8
     8ac:	e0 84 1c    	subbr.w   w9, #0x0, w9
     8ae:	60 05 1d    	subbr.w   w10, #0x0, w10
     8b0:	e0 85 1d    	subbr.w   w11, #0x0, w11

000008b2 <bcanonical>:
     8b2:	60 22 b8    	mul.uu    w4, #0x0, w4
     8b4:	7d 03 20    	mov.w     #0x37, w13
     8b6:	0d 38 e1    	cp.w      w7, w13
     8b8:	80 06 eb    	clr.w     w13
     8ba:	0b 00 39    	bra       NC, 0x8d2 <aligniter>
     8bc:	44 33 dd    	sl.w      w6, #0x4, w6
     8be:	f3 00 b2    	and.w     #0xf, w3
     8c0:	83 01 73    	ior.w     w6, w3, w3
     8c2:	39 00 37    	bra       0x936 <signoff>

000008c4 <align>:
     8c4:	84 82 72    	ior.w     w5, w4, w5
     8c6:	0d 02 78    	mov.w     w13, w4
     8c8:	e1 06 64    	and.w     w8, #0x1, w13
     8ca:	8b 85 d1    	asr.w     w11, w11
     8cc:	0a 85 d3    	rrc.w     w10, w10
     8ce:	89 84 d3    	rrc.w     w9, w9
     8d0:	08 84 d3    	rrc.w     w8, w8

000008d2 <aligniter>:
     8d2:	87 03 e9    	dec.w     w7, w7
     8d4:	f7 ff 3b    	bra       NN, 0x8c4 <align>

000008d6 <aligned>:
     8d6:	08 00 40    	add.w     w0, w8, w0
     8d8:	89 80 48    	addc.w    w1, w9, w1
     8da:	0a 01 49    	addc.w    w2, w10, w2
     8dc:	8b 81 49    	addc.w    w3, w11, w3
     8de:	04 00 3b    	bra       NN, 0x8e8 <normalizesum>
     8e0:	60 00 10    	subr.w    w0, #0x0, w0
     8e2:	e0 80 18    	subbr.w   w1, #0x0, w1
     8e4:	60 01 19    	subbr.w   w2, #0x0, w2
     8e6:	e0 81 19    	subbr.w   w3, #0x0, w3

000008e8 <normalizesum>:
     8e8:	03 58 a3    	btst.z    w3, #0x5
     8ea:	09 00 32    	bra       Z, 0x8fe <checknormal>
     8ec:	8d 82 72    	ior.w     w5, w13, w5
     8ee:	84 82 72    	ior.w     w5, w4, w5
     8f0:	61 02 60    	and.w     w0, #0x1, w4
     8f2:	83 01 d1    	lsr.w     w3, w3
     8f4:	02 81 d3    	rrc.w     w2, w2
     8f6:	81 80 d3    	rrc.w     w1, w1
     8f8:	00 80 d3    	rrc.w     w0, w0
     8fa:	06 03 e8    	inc.w     w6, w6
     8fc:	1b 00 37    	bra       0x934 <round>

000008fe <checknormal>:
     8fe:	03 48 a3    	btst.z    w3, #0x4
     900:	17 00 3a    	bra       NZ, 0x930 <discardguard>

00000902 <underflow>:
     902:	06 00 e0    	cp0.w     w6
     904:	17 00 34    	bra       LE, 0x934 <round>
     906:	06 03 e9    	dec.w     w6, w6
     908:	0d 00 a3    	btst.c    w13, #0x0
     90a:	00 00 48    	addc.w    w0, w0, w0
     90c:	81 80 48    	addc.w    w1, w1, w1
     90e:	02 01 49    	addc.w    w2, w2, w2
     910:	83 81 49    	addc.w    w3, w3, w3
     912:	03 48 a3    	btst.z    w3, #0x4
     914:	0f 00 3a    	bra       NZ, 0x934 <round>

00000916 <normalizeloop>:
     916:	06 00 e0    	cp0.w     w6
     918:	09 00 34    	bra       LE, 0x92c <normalizeexit>
     91a:	06 03 e9    	dec.w     w6, w6
     91c:	00 00 40    	add.w     w0, w0, w0
     91e:	81 80 48    	addc.w    w1, w1, w1
     920:	02 01 49    	addc.w    w2, w2, w2
     922:	83 81 49    	addc.w    w3, w3, w3
     924:	01 00 3a    	bra       NZ, 0x928 <normalizeexpok>
     926:	00 03 eb    	clr.w     w6

00000928 <normalizeexpok>:
     928:	03 48 a3    	btst.z    w3, #0x4
     92a:	f5 ff 32    	bra       Z, 0x916 <normalizeloop>

0000092c <normalizeexit>:
     92c:	60 22 b8    	mul.uu    w4, #0x0, w4
     92e:	02 00 37    	bra       0x934 <round>

00000930 <discardguard>:
     930:	84 82 72    	ior.w     w5, w4, w5
     932:	61 82 66    	and.w     w13, #0x1, w4

00000934 <round>:
     934:	f4 01 07    	rcall     0xd1e <__dpack>

00000936 <signoff>:
     936:	03 f0 a1    	bclr.w    w3, #0xf
     938:	0c f0 a7    	btsc.w    w12, #0xf
     93a:	03 f0 a0    	bset.w    w3, #0xf
     93c:	eb 01 37    	bra       0xd14 <__dunpack2exit>

0000093e <aisinfinite>:
     93e:	64 01 47    	add.w     w14, #0x4, w2
     940:	64 08 e1    	cp.w      w1, #0x4
     942:	02 00 3a    	bra       NZ, 0x948 <returnab>
     944:	0d f8 a3    	btst.z    w13, #0xf
     946:	e3 01 3a    	bra       NZ, 0xd0e <__dreturnNaN>

00000948 <returnab>:
     948:	32 00 be    	mov.d     [w2++], w0
     94a:	12 01 be    	mov.d     [w2], w2
     94c:	e3 01 37    	bra       0xd14 <__dunpack2exit>

0000094e <___fixunsdfdi>:
     94e:	14 00 fa    	lnk       #0x14
     950:	88 9f be    	mov.d     w8, [w15++]
     952:	8a 9f be    	mov.d     w10, [w15++]
     954:	8c 9f be    	mov.d     w12, [w15++]
     956:	00 04 be    	mov.d     w0, w8
     958:	02 05 be    	mov.d     w2, w10
     95a:	68 00 47    	add.w     w14, #0x8, w0
     95c:	0a 90 be    	mov.d     w10, [w0--]
     95e:	08 90 be    	mov.d     w8, [w0--]
     960:	33 02 07    	rcall     0xdc8 <__dunpack>
     962:	00 70 a7    	btsc.w    w0, #0x7
     964:	0b f0 a1    	bclr.w    w11, #0xf
     966:	0b f8 a3    	btst.z    w11, #0xf
     968:	20 00 3a    	bra       NZ, 0x9aa <underflow>
     96a:	9e 09 90    	mov.w     [w14+18], w3
     96c:	0e 09 90    	mov.w     [w14+16], w2
     96e:	fe 00 90    	mov.w     [w14+14], w1
     970:	6e 00 90    	mov.w     [w14+12], w0
     972:	9e 02 90    	mov.w     [w14+2], w5
     974:	34 43 20    	mov.w     #0x433, w4
     976:	84 82 52    	sub.w     w5, w4, w5
     978:	cd 01 32    	bra       Z, 0xd14 <__dunpack2exit>
     97a:	0a 00 3c    	bra       GT, 0x990 <shiftleft>
     97c:	b4 fc 2f    	mov.w     #0xffcb, w4
     97e:	04 28 e1    	cp.w      w5, w4
     980:	14 00 34    	bra       LE, 0x9aa <underflow>

00000982 <shiftrightloop>:
     982:	83 01 d1    	lsr.w     w3, w3
     984:	02 81 d3    	rrc.w     w2, w2
     986:	81 80 d3    	rrc.w     w1, w1
     988:	00 80 d3    	rrc.w     w0, w0
     98a:	85 02 e8    	inc.w     w5, w5
     98c:	fa ff 3a    	bra       NZ, 0x982 <shiftrightloop>
     98e:	c2 01 37    	bra       0xd14 <__dunpack2exit>

00000990 <shiftleft>:
     990:	b4 00 20    	mov.w     #0xb, w4
     992:	04 28 e1    	cp.w      w5, w4
     994:	07 00 3c    	bra       GT, 0x9a4 <overflow>

00000996 <shiftleftloop>:
     996:	00 00 40    	add.w     w0, w0, w0
     998:	81 80 48    	addc.w    w1, w1, w1
     99a:	02 01 49    	addc.w    w2, w2, w2
     99c:	83 81 49    	addc.w    w3, w3, w3
     99e:	85 02 e9    	dec.w     w5, w5
     9a0:	fa ff 3a    	bra       NZ, 0x996 <shiftleftloop>
     9a2:	b8 01 37    	bra       0xd14 <__dunpack2exit>

000009a4 <overflow>:
     9a4:	03 00 28    	mov.w     #0x8000, w3
     9a6:	02 00 20    	mov.w     #0x0, w2
     9a8:	01 00 37    	bra       0x9ac <returnz>

000009aa <underflow>:
     9aa:	60 11 b8    	mul.uu    w2, #0x0, w2

000009ac <returnz>:
     9ac:	60 00 b8    	mul.uu    w0, #0x0, w0
     9ae:	b2 01 37    	bra       0xd14 <__dunpack2exit>

000009b0 <___divdf3>:
     9b0:	28 00 fa    	lnk       #0x28
     9b2:	88 9f be    	mov.d     w8, [w15++]
     9b4:	8a 9f be    	mov.d     w10, [w15++]
     9b6:	8c 9f be    	mov.d     w12, [w15++]
     9b8:	03 86 6b    	xor.w     w7, w3, w12
     9ba:	98 01 07    	rcall     0xcec <__dunpack2>
     9bc:	64 00 e1    	cp.w      w0, #0x4
     9be:	44 00 32    	bra       Z, 0xa48 <aisinfinite>
     9c0:	64 08 e1    	cp.w      w1, #0x4
     9c2:	4a 00 32    	bra       Z, 0xa58 <returnZero>
     9c4:	61 00 e1    	cp.w      w0, #0x1
     9c6:	46 00 32    	bra       Z, 0xa54 <aiszero>
     9c8:	61 08 e1    	cp.w      w1, #0x1
     9ca:	49 00 32    	bra       Z, 0xa5e <returnInf>

000009cc <finitenonzero>:
     9cc:	ec 06 47    	add.w     w14, #0xc, w13
     9ce:	60 00 b8    	mul.uu    w0, #0x0, w0
     9d0:	3d 02 be    	mov.d     [w13++], w4
     9d2:	3d 03 be    	mov.d     [w13++], w6
     9d4:	f4 86 57    	sub.w     w15, #0x14, w13
     9d6:	60 11 b8    	mul.uu    w2, #0x0, w2
     9d8:	3d 04 be    	mov.d     [w13++], w8
     9da:	3d 05 be    	mov.d     [w13++], w10
     9dc:	7d 03 20    	mov.w     #0x37, w13
     9de:	0b 00 37    	bra       0x9f6 <diventry>

000009e0 <divnext>:
     9e0:	00 00 a0    	bset.w    w0, #0x0
     9e2:	8d 06 e9    	dec.w     w13, w13
     9e4:	13 00 32    	bra       Z, 0xa0c <divdone>

000009e6 <divloop>:
     9e6:	04 02 42    	add.w     w4, w4, w4
     9e8:	85 82 4a    	addc.w    w5, w5, w5
     9ea:	06 03 4b    	addc.w    w6, w6, w6
     9ec:	87 83 4b    	addc.w    w7, w7, w7
     9ee:	00 00 40    	add.w     w0, w0, w0
     9f0:	81 80 48    	addc.w    w1, w1, w1
     9f2:	02 01 49    	addc.w    w2, w2, w2
     9f4:	83 81 49    	addc.w    w3, w3, w3

000009f6 <diventry>:
     9f6:	08 02 52    	sub.w     w4, w8, w4
     9f8:	89 82 5a    	subb.w    w5, w9, w5
     9fa:	0a 03 5b    	subb.w    w6, w10, w6
     9fc:	8b 83 5b    	subb.w    w7, w11, w7
     9fe:	f0 ff 3b    	bra       NN, 0x9e0 <divnext>
     a00:	08 02 42    	add.w     w4, w8, w4
     a02:	89 82 4a    	addc.w    w5, w9, w5
     a04:	0a 03 4b    	addc.w    w6, w10, w6
     a06:	8b 83 4b    	addc.w    w7, w11, w7
     a08:	8d 06 e9    	dec.w     w13, w13
     a0a:	ed ff 3a    	bra       NZ, 0x9e6 <divloop>

00000a0c <divdone>:
     a0c:	84 82 72    	ior.w     w5, w4, w5
     a0e:	86 82 72    	ior.w     w5, w6, w5
     a10:	f7 07 b2    	and.w     #0x7f, w7
     a12:	87 82 72    	ior.w     w5, w7, w5
     a14:	01 00 32    	bra       Z, 0xa18 <stickyformed>
     a16:	15 00 20    	mov.w     #0x1, w5

00000a18 <stickyformed>:
     a18:	1e 04 90    	mov.w     [w14+2], w8
     a1a:	3e 0b 90    	mov.w     [w14+22], w6
     a1c:	06 03 54    	sub.w     w8, w6, w6
     a1e:	e6 3f b0    	add.w     #0x3fe, w6
     a20:	03 68 a3    	btst.z    w3, #0x6
     a22:	07 00 32    	bra       Z, 0xa32 <guardused>
     a24:	00 00 a7    	btsc.w    w0, #0x0
     a26:	05 00 a0    	bset.w    w5, #0x0
     a28:	83 01 d1    	lsr.w     w3, w3
     a2a:	02 81 d3    	rrc.w     w2, w2
     a2c:	81 80 d3    	rrc.w     w1, w1
     a2e:	00 80 d3    	rrc.w     w0, w0
     a30:	06 03 e8    	inc.w     w6, w6

00000a32 <guardused>:
     a32:	83 01 d1    	lsr.w     w3, w3
     a34:	02 81 d3    	rrc.w     w2, w2
     a36:	81 80 d3    	rrc.w     w1, w1
     a38:	00 80 d3    	rrc.w     w0, w0
     a3a:	00 02 eb    	clr.w     w4
     a3c:	04 82 d2    	rlc.w     w4, w4
     a3e:	6f 01 07    	rcall     0xd1e <__dpack>

00000a40 <signoff>:
     a40:	03 f0 a1    	bclr.w    w3, #0xf
     a42:	0c f0 a7    	btsc.w    w12, #0xf
     a44:	03 f0 a0    	bset.w    w3, #0xf
     a46:	66 01 37    	bra       0xd14 <__dunpack2exit>

00000a48 <aisinfinite>:
     a48:	64 02 47    	add.w     w14, #0x4, w4
     a4a:	64 08 e1    	cp.w      w1, #0x4
     a4c:	60 01 32    	bra       Z, 0xd0e <__dreturnNaN>
     a4e:	34 00 be    	mov.d     [w4++], w0
     a50:	34 01 be    	mov.d     [w4++], w2
     a52:	f6 ff 37    	bra       0xa40 <signoff>

00000a54 <aiszero>:
     a54:	61 08 e1    	cp.w      w1, #0x1
     a56:	5b 01 32    	bra       Z, 0xd0e <__dreturnNaN>

00000a58 <returnZero>:
     a58:	60 11 b8    	mul.uu    w2, #0x0, w2

00000a5a <returnZeroLo>:
     a5a:	60 00 b8    	mul.uu    w0, #0x0, w0
     a5c:	f1 ff 37    	bra       0xa40 <signoff>

00000a5e <returnInf>:
     a5e:	03 ff 27    	mov.w     #0x7ff0, w3
     a60:	02 00 20    	mov.w     #0x0, w2
     a62:	fb ff 37    	bra       0xa5a <returnZeroLo>

00000a64 <___floatdidf>:
     a64:	88 9f be    	mov.d     w8, [w15++]
     a66:	83 04 78    	mov.w     w3, w9
     a68:	03 00 e0    	cp0.w     w3
     a6a:	2c 00 35    	bra       LT, 0xac4 <negative>
     a6c:	03 00 3c    	bra       GT, 0xa74 <notspecial>
     a6e:	00 82 70    	ior.w     w1, w0, w4
     a70:	04 02 71    	ior.w     w2, w4, w4
     a72:	26 00 32    	bra       Z, 0xac0 <return0>

00000a74 <notspecial>:
     a74:	36 43 20    	mov.w     #0x433, w6
     a76:	c5 00 20    	mov.w     #0xc, w5
     a78:	83 83 cf    	ff1l      w3, w7
     a7a:	0a 00 39    	bra       NC, 0xa90 <fixshift>
     a7c:	05 41 b1    	sub.b     #0x10, w5
     a7e:	82 83 cf    	ff1l      w2, w7
     a80:	07 00 39    	bra       NC, 0xa90 <fixshift>
     a82:	05 41 b1    	sub.b     #0x10, w5
     a84:	81 83 cf    	ff1l      w1, w7
     a86:	04 00 39    	bra       NC, 0xa90 <fixshift>
     a88:	05 41 b1    	sub.b     #0x10, w5
     a8a:	80 83 cf    	ff1l      w0, w7
     a8c:	01 00 39    	bra       NC, 0xa90 <fixshift>
     a8e:	05 41 b1    	sub.b     #0x10, w5

00000a90 <fixshift>:
     a90:	85 c3 53    	sub.b     w7, w5, w7
     a92:	60 22 b8    	mul.uu    w4, #0x0, w4
     a94:	12 00 32    	bra       Z, 0xaba <round>
     a96:	0a 00 3b    	bra       NN, 0xaac <shiftleft>

00000a98 <shiftright>:
     a98:	84 82 72    	ior.w     w5, w4, w5
     a9a:	61 02 60    	and.w     w0, #0x1, w4
     a9c:	83 01 d1    	lsr.w     w3, w3
     a9e:	02 81 d3    	rrc.w     w2, w2
     aa0:	81 80 d3    	rrc.w     w1, w1
     aa2:	00 80 d3    	rrc.w     w0, w0
     aa4:	06 03 e8    	inc.w     w6, w6
     aa6:	87 43 e8    	inc.b     w7, w7
     aa8:	f7 ff 3a    	bra       NZ, 0xa98 <shiftright>
     aaa:	07 00 37    	bra       0xaba <round>

00000aac <shiftleft>:
     aac:	00 00 40    	add.w     w0, w0, w0
     aae:	81 80 48    	addc.w    w1, w1, w1
     ab0:	02 01 49    	addc.w    w2, w2, w2
     ab2:	83 81 49    	addc.w    w3, w3, w3
     ab4:	06 03 e9    	dec.w     w6, w6
     ab6:	87 43 e9    	dec.b     w7, w7
     ab8:	f9 ff 3a    	bra       NZ, 0xaac <shiftleft>

00000aba <round>:
     aba:	31 01 07    	rcall     0xd1e <__dpack>
     abc:	09 f0 a7    	btsc.w    w9, #0xf
     abe:	03 f0 a0    	bset.w    w3, #0xf

00000ac0 <return0>:
     ac0:	4f 04 be    	mov.d     [--w15], w8
     ac2:	00 00 06    	return    

00000ac4 <negative>:
     ac4:	60 00 10    	subr.w    w0, #0x0, w0
     ac6:	e0 80 18    	subbr.w   w1, #0x0, w1
     ac8:	60 01 19    	subbr.w   w2, #0x0, w2
     aca:	e0 81 19    	subbr.w   w3, #0x0, w3
     acc:	d3 ff 3b    	bra       NN, 0xa74 <notspecial>
     ace:	03 3e 2c    	mov.w     #0xc3e0, w3
     ad0:	f7 ff 37    	bra       0xac0 <return0>

00000ad2 <___subdf3>:
     ad2:	07 f0 a2    	btg.w     w7, #0xf
     ad4:	bf fe 37    	bra       0x854 <___adddf3>

00000ad6 <___PplusBdi>:
     ad6:	88 1f 78    	mov.w     w8, [w15++]
     ad8:	00 04 78    	mov.w     w0, w8
     ada:	50 01 be    	mov.d     [++w0], w2
     adc:	40 00 be    	mov.d     [--w0], w0
     ade:	04 00 40    	add.w     w0, w4, w0
     ae0:	85 80 48    	addc.w    w1, w5, w1
     ae2:	06 01 49    	addc.w    w2, w6, w2
     ae4:	87 81 49    	addc.w    w3, w7, w3
     ae6:	00 9c be    	mov.d     w0, [w8++]
     ae8:	02 94 be    	mov.d     w2, [w8--]
     aea:	04 00 e1    	cp.w      w0, w4
     aec:	05 88 e1    	cpb.w     w1, w5
     aee:	06 90 e1    	cpb.w     w2, w6
     af0:	07 98 e1    	cpb.w     w3, w7
     af2:	02 00 31    	bra       C, 0xaf8 <.L4>
     af4:	68 00 44    	add.w     w8, #0x8, w0
     af6:	10 08 e8    	inc.w     [w0], [w0]

00000af8 <.L4>:
     af8:	4f 04 78    	mov.w     [--w15], w8
     afa:	00 00 06    	return    

00000afc <___udivmoddi3>:
     afc:	f4 87 47    	add.w     w15, #0x14, w15
     afe:	88 9f be    	mov.d     w8, [w15++]
     b00:	8a 9f be    	mov.d     w10, [w15++]
     b02:	8c 9f be    	mov.d     w12, [w15++]
     b04:	8e 1f 78    	mov.w     w14, [w15++]
     b06:	02 05 be    	mov.d     w2, w10
     b08:	00 04 be    	mov.d     w0, w8
     b0a:	d4 b7 9f    	mov.w     w4, [w15-22]
     b0c:	e5 b7 9f    	mov.w     w5, [w15-20]
     b0e:	f6 b7 9f    	mov.w     w6, [w15-18]
     b10:	87 bf 9f    	mov.w     w7, [w15-16]
     b12:	00 00 eb    	clr.w     w0
     b14:	c0 b7 9f    	mov.w     w0, [w15-24]
     b16:	b0 b7 9f    	mov.w     w0, [w15-26]
     b18:	a0 b7 9f    	mov.w     w0, [w15-28]
     b1a:	90 b7 9f    	mov.w     w0, [w15-30]
     b1c:	80 b7 9f    	mov.w     w0, [w15-32]
     b1e:	0d 04 20    	mov.w     #0x40, w13

00000b20 <.L6>:
     b20:	bf b0 97    	mov.w     [w15-26], w1
     b22:	4f b0 97    	mov.w     [w15-24], w0
     b24:	00 01 40    	add.w     w0, w0, w2
     b26:	00 00 e0    	cp0.w     w0
     b28:	0f 00 3d    	bra       GE, 0xb48 <.L7>
     b2a:	4f 08 de    	lsr.w     w1, #0xf, w0
     b2c:	00 00 71    	ior.w     w2, w0, w0
     b2e:	c0 b7 9f    	mov.w     w0, [w15-24]
     b30:	9e 00 07    	rcall     0xc6e <.LPA5>
     b32:	01 00 3d    	bra       GE, 0xb36 <.L10>
     b34:	12 00 20    	mov.w     #0x1, w2

00000b36 <.L10>:
     b36:	a1 00 07    	rcall     0xc7a <.LPA2>
     b38:	01 00 3d    	bra       GE, 0xb3c <.L11>
     b3a:	12 00 20    	mov.w     #0x1, w2

00000b3c <.L11>:
     b3c:	a6 00 07    	rcall     0xc8a <.LPA0>
     b3e:	b1 00 07    	rcall     0xca2 <.LPA6>
     b40:	b6 00 07    	rcall     0xcae <.LPA7>
     b42:	0f 00 40    	add.w     w0, w15, w0
     b44:	c8 ff 07    	rcall     0xad6 <___PplusBdi>
     b46:	22 00 37    	bra       0xb8c <.L14>

00000b48 <.L7>:
     b48:	4f 08 de    	lsr.w     w1, #0xf, w0
     b4a:	00 06 71    	ior.w     w2, w0, w12
     b4c:	cc b7 9f    	mov.w     w12, [w15-24]
     b4e:	8f 00 07    	rcall     0xc6e <.LPA5>
     b50:	01 00 3d    	bra       GE, 0xb54 <.L16>
     b52:	12 00 20    	mov.w     #0x1, w2

00000b54 <.L16>:
     b54:	92 00 07    	rcall     0xc7a <.LPA2>
     b56:	01 00 3d    	bra       GE, 0xb5a <.L17>
     b58:	12 00 20    	mov.w     #0x1, w2

00000b5a <.L17>:
     b5a:	97 00 07    	rcall     0xc8a <.LPA0>
     b5c:	a2 00 07    	rcall     0xca2 <.LPA6>
     b5e:	0f b2 97    	mov.w     [w15-32], w4
     b60:	9f b2 97    	mov.w     [w15-30], w5
     b62:	2f b3 97    	mov.w     [w15-28], w6
     b64:	bf b3 97    	mov.w     [w15-26], w7
     b66:	a9 00 07    	rcall     0xcba <.LPA9>
     b68:	00 00 52    	sub.w     w4, w0, w0
     b6a:	81 80 5a    	subb.w    w5, w1, w1
     b6c:	02 01 5b    	subb.w    w6, w2, w2
     b6e:	83 81 5b    	subb.w    w7, w3, w3
     b70:	80 b7 9f    	mov.w     w0, [w15-32]
     b72:	91 b7 9f    	mov.w     w1, [w15-30]
     b74:	a2 b7 9f    	mov.w     w2, [w15-28]
     b76:	b3 b7 9f    	mov.w     w3, [w15-26]
     b78:	00 07 eb    	clr.w     w14
     b7a:	9f 00 07    	rcall     0xcba <.LPA9>
     b7c:	00 20 e1    	cp.w      w4, w0
     b7e:	01 a8 e1    	cpb.w     w5, w1
     b80:	02 b0 e1    	cpb.w     w6, w2
     b82:	03 b8 e1    	cpb.w     w7, w3
     b84:	01 00 31    	bra       C, 0xb88 <.L20>
     b86:	1e 00 20    	mov.w     #0x1, w14

00000b88 <.L20>:
     b88:	0e 00 56    	sub.w     w12, w14, w0
     b8a:	c0 b7 9f    	mov.w     w0, [w15-24]

00000b8c <.L14>:
     b8c:	4f b2 97    	mov.w     [w15-24], w4
     b8e:	04 00 e0    	cp0.w     w4
     b90:	07 00 35    	bra       LT, 0xba0 <.L21>
     b92:	10 00 20    	mov.w     #0x1, w0
     b94:	01 00 20    	mov.w     #0x0, w1
     b96:	60 11 b8    	mul.uu    w2, #0x0, w2
     b98:	08 04 70    	ior.w     w0, w8, w8
     b9a:	89 84 70    	ior.w     w1, w9, w9
     b9c:	0a 05 71    	ior.w     w2, w10, w10
     b9e:	8b 85 71    	ior.w     w3, w11, w11

00000ba0 <.L21>:
     ba0:	8d 06 e9    	dec.w     w13, w13
     ba2:	be ff 3a    	bra       NZ, 0xb20 <.L6>
     ba4:	04 00 e0    	cp0.w     w4
     ba6:	03 00 3d    	bra       GE, 0xbae <.L24>
     ba8:	82 00 07    	rcall     0xcae <.LPA7>
     baa:	0f 00 40    	add.w     w0, w15, w0
     bac:	94 ff 07    	rcall     0xad6 <___PplusBdi>

00000bae <.L24>:
     bae:	4f a8 97    	mov.w     [w15-40], w0
     bb0:	00 00 e0    	cp0.w     w0
     bb2:	04 00 3a    	bra       NZ, 0xbbc <.L26>
     bb4:	0f b4 97    	mov.w     [w15-32], w8
     bb6:	9f b4 97    	mov.w     [w15-30], w9
     bb8:	2f b5 97    	mov.w     [w15-28], w10
     bba:	bf b5 97    	mov.w     [w15-26], w11

00000bbc <.L26>:
     bbc:	94 00 07    	rcall     0xce6 <.LPA11>
     bbe:	4f 07 78    	mov.w     [--w15], w14
     bc0:	4f 06 be    	mov.d     [--w15], w12
     bc2:	4f 05 be    	mov.d     [--w15], w10
     bc4:	4f 04 be    	mov.d     [--w15], w8
     bc6:	4f 01 b1    	sub.w     #0x14, w15
     bc8:	00 00 06    	return    

00000bca <___udivdi3>:
     bca:	88 1f 78    	mov.w     w8, [w15++]
     bcc:	18 00 20    	mov.w     #0x1, w8
     bce:	88 1f 78    	mov.w     w8, [w15++]
     bd0:	95 ff 07    	rcall     0xafc <___udivmoddi3>
     bd2:	8f 87 e9    	dec2.w    w15, w15
     bd4:	4f 04 78    	mov.w     [--w15], w8
     bd6:	00 00 06    	return    

00000bd8 <___umoddi3>:
     bd8:	80 1f eb    	clr.w     [w15++]
     bda:	90 ff 07    	rcall     0xafc <___udivmoddi3>
     bdc:	8f 87 e9    	dec2.w    w15, w15
     bde:	00 00 06    	return    

00000be0 <___divdi3>:
     be0:	88 9f be    	mov.d     w8, [w15++]
     be2:	8a 9f be    	mov.d     w10, [w15++]
     be4:	8c 1f 78    	mov.w     w12, [w15++]
     be6:	6e 00 07    	rcall     0xcc4 <.LPA3>
     be8:	07 00 3d    	bra       GE, 0xbf8 <.L36>
     bea:	73 00 07    	rcall     0xcd2 <.LPA1>
     bec:	e0 0f 5b    	subb.w    w6, #0x0, [w15]
     bee:	e0 8f 5b    	subb.w    w7, #0x0, [w15]
     bf0:	07 00 3d    	bra       GE, 0xc00 <.L40>
     bf2:	32 00 07    	rcall     0xc58 <.LPA10>
     bf4:	00 06 eb    	clr.w     w12
     bf6:	04 00 37    	bra       0xc00 <.L40>

00000bf8 <.L36>:
     bf8:	34 00 07    	rcall     0xc62 <.LPA8>
     bfa:	02 00 3d    	bra       GE, 0xc00 <.L40>
     bfc:	2a 00 07    	rcall     0xc52 <.LPA4>
     bfe:	1c 00 20    	mov.w     #0x1, w12

00000c00 <.L40>:
     c00:	72 00 07    	rcall     0xce6 <.LPA11>
     c02:	e3 ff 07    	rcall     0xbca <___udivdi3>
     c04:	02 03 be    	mov.d     w2, w6
     c06:	00 02 be    	mov.d     w0, w4
     c08:	0c 00 e0    	cp0.w     w12
     c0a:	01 00 32    	bra       Z, 0xc0e <.L43>
     c0c:	22 00 07    	rcall     0xc52 <.LPA4>

00000c0e <.L43>:
     c0e:	04 00 be    	mov.d     w4, w0
     c10:	06 01 be    	mov.d     w6, w2
     c12:	4f 06 78    	mov.w     [--w15], w12
     c14:	4f 05 be    	mov.d     [--w15], w10
     c16:	4f 04 be    	mov.d     [--w15], w8
     c18:	00 00 06    	return    

00000c1a <___moddi3>:
     c1a:	88 9f be    	mov.d     w8, [w15++]
     c1c:	8a 9f be    	mov.d     w10, [w15++]
     c1e:	8c 1f 78    	mov.w     w12, [w15++]
     c20:	51 00 07    	rcall     0xcc4 <.LPA3>
     c22:	05 00 3d    	bra       GE, 0xc2e <.L47>
     c24:	56 00 07    	rcall     0xcd2 <.LPA1>
     c26:	e0 0f 5b    	subb.w    w6, #0x0, [w15]
     c28:	e0 8f 5b    	subb.w    w7, #0x0, [w15]
     c2a:	06 00 3d    	bra       GE, 0xc38 <.L51>
     c2c:	04 00 37    	bra       0xc36 <.L57>

00000c2e <.L47>:
     c2e:	19 00 07    	rcall     0xc62 <.LPA8>
     c30:	03 00 3d    	bra       GE, 0xc38 <.L51>
     c32:	60 00 b8    	mul.uu    w0, #0x0, w0
     c34:	60 11 b8    	mul.uu    w2, #0x0, w2

00000c36 <.L57>:
     c36:	10 00 07    	rcall     0xc58 <.LPA10>

00000c38 <.L51>:
     c38:	56 00 07    	rcall     0xce6 <.LPA11>
     c3a:	ce ff 07    	rcall     0xbd8 <___umoddi3>
     c3c:	02 03 be    	mov.d     w2, w6
     c3e:	00 02 be    	mov.d     w0, w4
     c40:	0c 00 e0    	cp0.w     w12
     c42:	01 00 32    	bra       Z, 0xc46 <.L54>
     c44:	06 00 07    	rcall     0xc52 <.LPA4>

00000c46 <.L54>:
     c46:	04 00 be    	mov.d     w4, w0
     c48:	06 01 be    	mov.d     w6, w2
     c4a:	4f 06 78    	mov.w     [--w15], w12
     c4c:	4f 05 be    	mov.d     [--w15], w10
     c4e:	4f 04 be    	mov.d     [--w15], w8
     c50:	00 00 06    	return    

00000c52 <.LPA4>:
     c52:	60 00 b8    	mul.uu    w0, #0x0, w0
     c54:	60 11 b8    	mul.uu    w2, #0x0, w2
     c56:	00 00 37    	bra       0xc58 <.LPA10>

00000c58 <.LPA10>:
     c58:	04 02 50    	sub.w     w0, w4, w4
     c5a:	85 82 58    	subb.w    w1, w5, w5
     c5c:	06 03 59    	subb.w    w2, w6, w6
     c5e:	87 83 59    	subb.w    w3, w7, w7
     c60:	00 00 06    	return    

00000c62 <.LPA8>:
     c62:	00 06 eb    	clr.w     w12
     c64:	e0 0f 52    	sub.w     w4, #0x0, [w15]
     c66:	e0 8f 5a    	subb.w    w5, #0x0, [w15]
     c68:	e0 0f 5b    	subb.w    w6, #0x0, [w15]
     c6a:	e0 8f 5b    	subb.w    w7, #0x0, [w15]
     c6c:	00 00 06    	return    

00000c6e <.LPA5>:
     c6e:	01 80 40    	add.w     w1, w1, w0
     c70:	90 b7 9f    	mov.w     w0, [w15-30]
     c72:	00 01 eb    	clr.w     w2
     c74:	8f b0 97    	mov.w     [w15-32], w1
     c76:	01 00 e0    	cp0.w     w1
     c78:	00 00 06    	return    

00000c7a <.LPA2>:
     c7a:	02 00 70    	ior.w     w0, w2, w0
     c7c:	90 b7 9f    	mov.w     w0, [w15-30]
     c7e:	01 80 40    	add.w     w1, w1, w0
     c80:	80 b7 9f    	mov.w     w0, [w15-32]
     c82:	00 01 eb    	clr.w     w2
     c84:	ff a8 97    	mov.w     [w15-34], w1
     c86:	01 00 e0    	cp0.w     w1
     c88:	00 00 06    	return    

00000c8a <.LPA0>:
     c8a:	02 00 70    	ior.w     w0, w2, w0
     c8c:	80 b7 9f    	mov.w     w0, [w15-32]
     c8e:	01 80 40    	add.w     w1, w1, w0
     c90:	6f aa 97    	mov.w     [w15-36], w4
     c92:	cf 20 de    	lsr.w     w4, #0xf, w1
     c94:	01 00 70    	ior.w     w0, w1, w0
     c96:	f0 af 9f    	mov.w     w0, [w15-34]
     c98:	04 02 42    	add.w     w4, w4, w4
     c9a:	25 00 07    	rcall     0xce6 <.LPA11>
     c9c:	4f 18 de    	lsr.w     w3, #0xf, w0
     c9e:	00 02 72    	ior.w     w4, w0, w4
     ca0:	00 00 06    	return    

00000ca2 <.LPA6>:
     ca2:	e4 af 9f    	mov.w     w4, [w15-36]
     ca4:	08 04 44    	add.w     w8, w8, w8
     ca6:	89 84 4c    	addc.w    w9, w9, w9
     ca8:	0a 05 4d    	addc.w    w10, w10, w10
     caa:	8b 85 4d    	addc.w    w11, w11, w11
     cac:	00 00 06    	return    

00000cae <.LPA7>:
     cae:	3f b2 97    	mov.w     [w15-26], w4
     cb0:	cf b2 97    	mov.w     [w15-24], w5
     cb2:	5f b3 97    	mov.w     [w15-22], w6
     cb4:	ef b3 97    	mov.w     [w15-20], w7
     cb6:	00 fe 2f    	mov.w     #0xffe0, w0
     cb8:	00 00 06    	return    

00000cba <.LPA9>:
     cba:	3f b0 97    	mov.w     [w15-26], w0
     cbc:	cf b0 97    	mov.w     [w15-24], w1
     cbe:	5f b1 97    	mov.w     [w15-22], w2
     cc0:	ef b1 97    	mov.w     [w15-20], w3
     cc2:	00 00 06    	return    

00000cc4 <.LPA3>:
     cc4:	02 05 be    	mov.d     w2, w10
     cc6:	00 04 be    	mov.d     w0, w8
     cc8:	e0 0f 50    	sub.w     w0, #0x0, [w15]
     cca:	e0 8f 58    	subb.w    w1, #0x0, [w15]
     ccc:	e0 0f 59    	subb.w    w2, #0x0, [w15]
     cce:	e0 8f 59    	subb.w    w3, #0x0, [w15]
     cd0:	00 00 06    	return    

00000cd2 <.LPA1>:
     cd2:	60 00 b8    	mul.uu    w0, #0x0, w0
     cd4:	60 11 b8    	mul.uu    w2, #0x0, w2
     cd6:	08 04 50    	sub.w     w0, w8, w8
     cd8:	89 84 58    	subb.w    w1, w9, w9
     cda:	0a 05 59    	subb.w    w2, w10, w10
     cdc:	8b 85 59    	subb.w    w3, w11, w11
     cde:	1c 00 20    	mov.w     #0x1, w12
     ce0:	e0 0f 52    	sub.w     w4, #0x0, [w15]
     ce2:	e0 8f 5a    	subb.w    w5, #0x0, [w15]
     ce4:	00 00 06    	return    

00000ce6 <.LPA11>:
     ce6:	08 00 be    	mov.d     w8, w0
     ce8:	0a 01 be    	mov.d     w10, w2
     cea:	00 00 06    	return    

00000cec <__dunpack2>:
     cec:	68 04 47    	add.w     w14, #0x8, w8
     cee:	02 94 be    	mov.d     w2, [w8--]
     cf0:	00 94 be    	mov.d     w0, [w8--]
     cf2:	fc 04 47    	add.w     w14, #0x1c, w9
     cf4:	86 94 be    	mov.d     w6, [w9--]
     cf6:	84 94 be    	mov.d     w4, [w9--]
     cf8:	09 00 78    	mov.w     w9, w0
     cfa:	66 00 07    	rcall     0xdc8 <__dunpack>
     cfc:	08 00 78    	mov.w     w8, w0
     cfe:	64 00 07    	rcall     0xdc8 <__dunpack>
     d00:	99 00 78    	mov.w     [w9], w1
     d02:	81 4f 70    	ior.b     w0, w1, [w15]
     d04:	0b 00 3b    	bra       NN, 0xd1c <exit>

00000d06 <aorbIsNaN>:
     d06:	08 00 be    	mov.d     w8, w0
     d08:	93 00 07    	rcall     0xe30 <__dPropagateNaN>
     d0a:	4f 00 b1    	sub.w     #0x4, w15
     d0c:	03 00 37    	bra       0xd14 <__dunpack2exit>

00000d0e <__dreturnNaN>:
     d0e:	f3 ff 27    	mov.w     #0x7fff, w3
     d10:	f2 ff 2f    	mov.w     #0xffff, w2
     d12:	61 10 b9    	mul.su    w2, #0x1, w0

00000d14 <__dunpack2exit>:
     d14:	4f 06 be    	mov.d     [--w15], w12
     d16:	4f 05 be    	mov.d     [--w15], w10
     d18:	4f 04 be    	mov.d     [--w15], w8
     d1a:	00 80 fa    	ulnk      

00000d1c <exit>:
     d1c:	00 00 06    	return    

00000d1e <__dpack>:
     d1e:	18 00 20    	mov.w     #0x1, w8
     d20:	57 00 20    	mov.w     #0x5, w7
     d22:	08 04 53    	sub.w     w6, w8, w8
     d24:	0d 00 3d    	bra       GE, 0xd40 <notsubnormal>
     d26:	06 00 20    	mov.w     #0x0, w6
     d28:	97 fc 2f    	mov.w     #0xffc9, w7
     d2a:	07 40 e1    	cp.w      w8, w7
     d2c:	1e 00 34    	bra       LE, 0xd6a <zerosig>

00000d2e <subnormal>:
     d2e:	84 82 72    	ior.w     w5, w4, w5
     d30:	61 02 60    	and.w     w0, #0x1, w4
     d32:	83 01 d1    	lsr.w     w3, w3
     d34:	02 81 d3    	rrc.w     w2, w2
     d36:	81 80 d3    	rrc.w     w1, w1
     d38:	00 80 d3    	rrc.w     w0, w0
     d3a:	08 04 e8    	inc.w     w8, w8
     d3c:	f8 ff 3a    	bra       NZ, 0xd2e <subnormal>
     d3e:	47 00 20    	mov.w     #0x4, w7

00000d40 <notsubnormal>:
     d40:	61 04 60    	and.w     w0, #0x1, w8
     d42:	05 04 74    	ior.w     w8, w5, w8
     d44:	04 04 64    	and.w     w8, w4, w8
     d46:	0d 00 32    	bra       Z, 0xd62 <packupandgo>
     d48:	61 00 40    	add.w     w0, #0x1, w0
     d4a:	e0 80 48    	addc.w    w1, #0x0, w1
     d4c:	60 01 49    	addc.w    w2, #0x0, w2
     d4e:	e0 81 49    	addc.w    w3, #0x0, w3
     d50:	03 b8 a5    	btst.z    w3, w7
     d52:	07 00 32    	bra       Z, 0xd62 <packupandgo>
     d54:	06 03 e8    	inc.w     w6, w6
     d56:	65 38 e1    	cp.w      w7, #0x5
     d58:	04 00 3a    	bra       NZ, 0xd62 <packupandgo>
     d5a:	83 01 d1    	lsr.w     w3, w3
     d5c:	02 81 d3    	rrc.w     w2, w2
     d5e:	81 80 d3    	rrc.w     w1, w1
     d60:	00 80 d3    	rrc.w     w0, w0

00000d62 <packupandgo>:
     d62:	f8 7f 20    	mov.w     #0x7ff, w8
     d64:	08 30 e1    	cp.w      w6, w8
     d66:	03 00 35    	bra       LT, 0xd6e <nooverflow>
     d68:	08 03 78    	mov.w     w8, w6

00000d6a <zerosig>:
     d6a:	60 00 b8    	mul.uu    w0, #0x0, w0
     d6c:	60 11 b8    	mul.uu    w2, #0x0, w2

00000d6e <nooverflow>:
     d6e:	44 33 dd    	sl.w      w6, #0x4, w6
     d70:	f3 00 b2    	and.w     #0xf, w3
     d72:	83 01 73    	ior.w     w6, w3, w3
     d74:	00 00 06    	return    

00000d76 <__dcompare>:
     d76:	88 9f be    	mov.d     w8, [w15++]
     d78:	8a 9f be    	mov.d     w10, [w15++]
     d7a:	8c 9f be    	mov.d     w12, [w15++]
     d7c:	04 04 be    	mov.d     w4, w8
     d7e:	06 05 be    	mov.d     w6, w10
     d80:	80 9f be    	mov.d     w0, [w15++]
     d82:	82 9f be    	mov.d     w2, [w15++]
     d84:	63 00 07    	rcall     0xe4c <__dtype>
     d86:	04 06 78    	mov.w     w4, w12
     d88:	08 00 be    	mov.d     w8, w0
     d8a:	0a 01 be    	mov.d     w10, w2
     d8c:	5f 00 07    	rcall     0xe4c <__dtype>
     d8e:	84 06 78    	mov.w     w4, w13
     d90:	4f 03 be    	mov.d     [--w15], w6
     d92:	4f 02 be    	mov.d     [--w15], w4
     d94:	8d 4f 76    	ior.b     w12, w13, [w15]
     d96:	7f b0 97    	mov.w     [w15-18], w0
     d98:	13 00 33    	bra       N, 0xdc0 <exit>
     d9a:	f0 ff 2f    	mov.w     #0xffff, w0
     d9c:	8b 8f 6b    	xor.w     w7, w11, [w15]
     d9e:	06 00 3b    	bra       NN, 0xdac <comparemag>
     da0:	0d 06 66    	and.w     w12, w13, w12
     da2:	0c 00 a7    	btsc.w    w12, #0x0
     da4:	0a 00 37    	bra       0xdba <returnEqual>
     da6:	07 f0 a6    	btss.w    w7, #0xf
     da8:	10 00 20    	mov.w     #0x1, w0
     daa:	0a 00 37    	bra       0xdc0 <exit>

00000dac <comparemag>:
     dac:	88 0f 52    	sub.w     w4, w8, [w15]
     dae:	89 8f 5a    	subb.w    w5, w9, [w15]
     db0:	8a 0f 5b    	subb.w    w6, w10, [w15]
     db2:	8b 8f 5b    	subb.w    w7, w11, [w15]
     db4:	03 00 39    	bra       NC, 0xdbc <adjust>
     db6:	10 00 20    	mov.w     #0x1, w0
     db8:	01 00 3e    	bra       GTU, 0xdbc <adjust>

00000dba <returnEqual>:
     dba:	00 00 20    	mov.w     #0x0, w0

00000dbc <adjust>:
     dbc:	07 f0 a7    	btsc.w    w7, #0xf
     dbe:	00 00 ea    	neg.w     w0, w0

00000dc0 <exit>:
     dc0:	4f 06 be    	mov.d     [--w15], w12
     dc2:	4f 05 be    	mov.d     [--w15], w10
     dc4:	4f 04 be    	mov.d     [--w15], w8
     dc6:	00 00 06    	return    

00000dc8 <__dunpack>:
     dc8:	80 00 78    	mov.w     w0, w1
     dca:	50 02 be    	mov.d     [++w0], w4
     dcc:	50 03 be    	mov.d     [++w0], w6
     dce:	44 39 de    	lsr.w     w7, #0x4, w2
     dd0:	f7 00 b2    	and.w     #0xf, w7
     dd2:	f3 7f 20    	mov.w     #0x7ff, w3
     dd4:	03 01 61    	and.w     w2, w3, w2
     dd6:	09 00 32    	bra       Z, 0xdea <zeroorsub>
     dd8:	02 18 e1    	cp.w      w3, w2
     dda:	16 00 3a    	bra       NZ, 0xe08 <finitereturn>
     ddc:	85 01 72    	ior.w     w4, w5, w3
     dde:	83 01 73    	ior.w     w6, w3, w3
     de0:	83 81 73    	ior.w     w7, w3, w3
     de2:	00 08 20    	mov.w     #0x80, w0
     de4:	15 00 3a    	bra       NZ, 0xe10 <exit>
     de6:	40 00 20    	mov.w     #0x4, w0
     de8:	13 00 37    	bra       0xe10 <exit>

00000dea <zeroorsub>:
     dea:	85 01 72    	ior.w     w4, w5, w3
     dec:	83 01 73    	ior.w     w6, w3, w3
     dee:	83 81 73    	ior.w     w7, w3, w3
     df0:	05 00 3a    	bra       NZ, 0xdfc <subnormal>
     df2:	04 a8 be    	mov.d     w4, [++w0]
     df4:	06 a8 be    	mov.d     w6, [++w0]
     df6:	10 00 20    	mov.w     #0x1, w0
     df8:	0b 00 37    	bra       0xe10 <exit>

00000dfa <normalize>:
     dfa:	02 01 e9    	dec.w     w2, w2

00000dfc <subnormal>:
     dfc:	04 02 42    	add.w     w4, w4, w4
     dfe:	85 82 4a    	addc.w    w5, w5, w5
     e00:	06 03 4b    	addc.w    w6, w6, w6
     e02:	87 83 4b    	addc.w    w7, w7, w7
     e04:	07 48 a3    	btst.z    w7, #0x4
     e06:	f9 ff 32    	bra       Z, 0xdfa <normalize>

00000e08 <finitereturn>:
     e08:	07 40 a0    	bset.w    w7, #0x4
     e0a:	04 a8 be    	mov.d     w4, [++w0]
     e0c:	06 a8 be    	mov.d     w6, [++w0]
     e0e:	20 00 20    	mov.w     #0x2, w0

00000e10 <exit>:
     e10:	80 00 98    	mov.w     w0, [w1+0]
     e12:	92 00 98    	mov.w     w2, [w1+2]
     e14:	00 00 06    	return    

00000e16 <__frexpf>:
     e16:	00 03 be    	mov.d     w0, w6
     e18:	37 fc 07    	rcall     0x688 <__funpack>
     e1a:	62 20 e1    	cp.w      w4, #0x2
     e1c:	02 00 32    	bra       Z, 0xe22 <finite>
     e1e:	06 00 be    	mov.d     w6, w0
     e20:	05 00 05    	retlw.w   #0x0, w5

00000e22 <finite>:
     e22:	e5 07 b1    	sub.w     #0x7e, w5
     e24:	f1 07 b2    	and.w     #0x7f, w1
     e26:	04 f0 23    	mov.w     #0x3f00, w4
     e28:	84 80 70    	ior.w     w1, w4, w1
     e2a:	07 f0 a7    	btsc.w    w7, #0xf
     e2c:	01 f0 a0    	bset.w    w1, #0xf
     e2e:	24 00 05    	retlw.w   #0x2, w4

00000e30 <__dPropagateNaN>:
     e30:	e4 82 40    	add.w     w1, #0x4, w5
     e32:	10 78 a3    	btst.z    [w0], #0x7
     e34:	07 00 32    	bra       Z, 0xe44 <returnb>
     e36:	64 02 40    	add.w     w0, #0x4, w4
     e38:	11 78 a3    	btst.z    [w1], #0x7
     e3a:	34 00 be    	mov.d     [w4++], w0
     e3c:	14 01 be    	mov.d     [w4], w2
     e3e:	04 00 32    	bra       Z, 0xe48 <returnab>
     e40:	03 30 a7    	btsc.w    w3, #0x3
     e42:	00 00 06    	return    

00000e44 <returnb>:
     e44:	35 00 be    	mov.d     [w5++], w0
     e46:	15 01 be    	mov.d     [w5], w2

00000e48 <returnab>:
     e48:	03 30 a0    	bset.w    w3, #0x3
     e4a:	00 00 06    	return    

00000e4c <__dtype>:
     e4c:	05 ff 27    	mov.w     #0x7ff0, w5
     e4e:	05 82 61    	and.w     w3, w5, w4
     e50:	07 00 32    	bra       Z, 0xe60 <zeroorsub>
     e52:	04 28 e1    	cp.w      w5, w4
     e54:	01 00 32    	bra       Z, 0xe58 <NaNorInf>

00000e56 <isFinite>:
     e56:	24 00 05    	retlw.w   #0x2, w4

00000e58 <NaNorInf>:
     e58:	06 00 07    	rcall     0xe66 <checkfrac>
     e5a:	01 00 3a    	bra       NZ, 0xe5e <isNaN>
     e5c:	44 00 05    	retlw.w   #0x4, w4

00000e5e <isNaN>:
     e5e:	04 08 05    	retlw.w   #0x80, w4

00000e60 <zeroorsub>:
     e60:	02 00 07    	rcall     0xe66 <checkfrac>
     e62:	f9 ff 3a    	bra       NZ, 0xe56 <isFinite>
     e64:	14 00 05    	retlw.w   #0x1, w4

00000e66 <checkfrac>:
     e66:	6f 82 61    	and.w     w3, #0xf, w4
     e68:	81 02 70    	ior.w     w0, w1, w5
     e6a:	85 02 71    	ior.w     w2, w5, w5
     e6c:	85 02 72    	ior.w     w4, w5, w5
     e6e:	00 00 06    	return    

00000e70 <_memset>:
     e70:	80 01 eb    	clr.w     w3
     e72:	02 00 37    	bra       0xe78 <.L2>

00000e74 <.L3>:
     e74:	81 71 78    	mov.b     w1, [w3+w0]
     e76:	83 01 e8    	inc.w     w3, w3

00000e78 <.L2>:
     e78:	82 8f 51    	sub.w     w3, w2, [w15]
     e7a:	fc ff 3a    	bra       NZ, 0xe74 <.L3>
     e7c:	00 00 06    	return    

00000e7e <_memcpy>:
     e7e:	80 01 eb    	clr.w     w3
     e80:	02 00 37    	bra       0xe86 <.L2>

00000e82 <.L3>:
     e82:	61 f0 79    	mov.b     [w1+w3], [w0+w3]
     e84:	83 01 e8    	inc.w     w3, w3

00000e86 <.L2>:
     e86:	82 8f 51    	sub.w     w3, w2, [w15]
     e88:	fc ff 3a    	bra       NZ, 0xe82 <.L3>
     e8a:	00 00 06    	return    

00000e8c <__sprintf_cdfFnopuxX>:
     e8c:	0c 00 fa    	lnk       #0xc
     e8e:	88 9f be    	mov.d     w8, [w15++]
     e90:	00 04 78    	mov.w     w0, w8
     e92:	cf b0 97    	mov.w     [w15-24], w1
     e94:	f0 ff 27    	mov.w     #0x7fff, w0
     e96:	d0 bf 9f    	mov.w     w0, [w15-6]
     e98:	80 04 eb    	clr.w     w9
     e9a:	99 bf 9f    	mov.w     w9, [w15-14]
     e9c:	88 bf 9f    	mov.w     w8, [w15-16]
     e9e:	a8 bf 9f    	mov.w     w8, [w15-12]
     ea0:	20 0c 20    	mov.w     #0xc2, w0
     ea2:	b0 bf 9f    	mov.w     w0, [w15-10]
     ea4:	78 81 57    	sub.w     w15, #0x18, w2
     ea6:	70 80 57    	sub.w     w15, #0x10, w0
     ea8:	85 00 07    	rcall     0xfb4 <__vfprintf_cdfFnopuxX>
     eaa:	0f b8 97    	mov.w     [w15-16], w0
     eac:	09 48 78    	mov.b     w9, [w0]
     eae:	0f b8 97    	mov.w     [w15-16], w0
     eb0:	08 04 50    	sub.w     w0, w8, w8
     eb2:	08 00 78    	mov.w     w8, w0
     eb4:	4f 04 be    	mov.d     [--w15], w8
     eb6:	00 80 fa    	ulnk      
     eb8:	00 00 06    	return    

00000eba <_strlen>:
     eba:	80 00 78    	mov.w     w0, w1

00000ebc <.L2>:
     ebc:	30 04 e0    	cp0.b     [w0++]
     ebe:	fe ff 3a    	bra       NZ, 0xebc <.L2>
     ec0:	01 00 50    	sub.w     w0, w1, w0
     ec2:	00 00 e9    	dec.w     w0, w0
     ec4:	00 00 06    	return    

00000ec6 <_srand>:
     ec6:	01 00 20    	mov.w     #0x0, w1
     ec8:	50 8c 89    	mov.w     w0, 0x318a
     eca:	61 8c 89    	mov.w     w1, 0x318c
     ecc:	11 c0 b3    	mov.b     #0x1, w1
     ece:	80 18 23    	mov.w     #0x3188, w0
     ed0:	01 48 78    	mov.b     w1, [w0]
     ed2:	00 00 06    	return    

00000ed4 <_rand>:
     ed4:	82 18 23    	mov.w     #0x3188, w2
     ed6:	12 04 e0    	cp0.b     [w2]
     ed8:	06 00 3a    	bra       NZ, 0xee6 <.L4>
     eda:	10 00 20    	mov.w     #0x1, w0
     edc:	01 00 20    	mov.w     #0x0, w1
     ede:	50 8c 89    	mov.w     w0, 0x318a
     ee0:	61 8c 89    	mov.w     w1, 0x318c
     ee2:	10 c0 b3    	mov.b     #0x1, w0
     ee4:	00 49 78    	mov.b     w0, [w2]

00000ee6 <.L4>:
     ee6:	d2 e6 24    	mov.w     #0x4e6d, w2
     ee8:	63 1c 24    	mov.w     #0x41c6, w3
     eea:	50 8c 81    	mov.w     0x318a, w0
     eec:	61 8c 81    	mov.w     0x318c, w1
     eee:	3f fa 07    	rcall     0x36e <___mulp32eds3>
     ef0:	00 01 be    	mov.d     w0, w2
     ef2:	90 03 23    	mov.w     #0x3039, w0
     ef4:	01 00 20    	mov.w     #0x0, w1
     ef6:	02 00 40    	add.w     w0, w2, w0
     ef8:	83 80 48    	addc.w    w1, w3, w1
     efa:	50 8c 89    	mov.w     w0, 0x318a
     efc:	61 8c 89    	mov.w     w1, 0x318c
     efe:	40 88 de    	asr.w     w1, #0x0, w0
     f00:	cf 80 de    	asr.w     w0, #0xf, w1
     f02:	00 f0 a1    	bclr.w    w0, #0xf
     f04:	00 00 06    	return    

00000f06 <_scale>:
     f06:	88 9f be    	mov.d     w8, [w15++]
     f08:	8a 1f 78    	mov.w     w10, [w15++]
     f0a:	80 40 78    	mov.b     w0, w1
     f0c:	00 04 e0    	cp0.b     w0
     f0e:	21 00 3d    	bra       GE, 0xf52 <.L2>
     f10:	80 40 ea    	neg.b     w0, w1
     f12:	d0 c6 b3    	mov.b     #0x6d, w0
     f14:	80 cf 50    	sub.b     w1, w0, [w15]
     f16:	09 00 34    	bra       LE, 0xf2a <.L4>
     f18:	81 04 fb    	se        w1, w9
     f1a:	42 06 20    	mov.w     #0x64, w2
     f1c:	11 00 09    	repeat    #0x11
     f1e:	82 04 d8    	div.sw    w9, w2
     f20:	00 01 78    	mov.w     w0, w2
     f22:	01 00 78    	mov.w     w1, w0
     f24:	43 11 dd    	sl.w      w2, #0x3, w2
     f26:	ca e2 22    	mov.w     #0x2e2c, w10
     f28:	1f 00 37    	bra       0xf68 <.L15>

00000f2a <.L4>:
     f2a:	01 00 fb    	se        w1, w0
     f2c:	c3 e2 22    	mov.w     #0x2e2c, w3
     f2e:	39 00 37    	bra       0xfa2 <.L17>

00000f30 <.L16>:
     f30:	a2 00 20    	mov.w     #0xa, w2
     f32:	11 00 09    	repeat    #0x11
     f34:	02 00 d8    	div.sw    w0, w2
     f36:	00 01 78    	mov.w     w0, w2
     f38:	01 00 78    	mov.w     w1, w0
     f3a:	43 11 dd    	sl.w      w2, #0x3, w2
     f3c:	03 01 41    	add.w     w2, w3, w2
     f3e:	43 00 dd    	sl.w      w0, #0x3, w0
     f40:	03 00 40    	add.w     w0, w3, w0
     f42:	30 02 be    	mov.d     [w0++], w4
     f44:	20 03 be    	mov.d     [w0--], w6
     f46:	42 20 90    	mov.w     [w2+72], w0
     f48:	d2 20 90    	mov.w     [w2+74], w1
     f4a:	f2 21 90    	mov.w     [w2+78], w3
     f4c:	62 21 90    	mov.w     [w2+76], w2

00000f4e <.L14>:
     f4e:	b1 fb 07    	rcall     0x6b2 <___muldf3>
     f50:	2e 00 37    	bra       0xfae <.L6>

00000f52 <.L2>:
     f52:	d0 c6 b3    	mov.b     #0x6d, w0
     f54:	80 cf 50    	sub.b     w1, w0, [w15]
     f56:	23 00 34    	bra       LE, 0xf9e <.L9>
     f58:	81 04 fb    	se        w1, w9
     f5a:	42 06 20    	mov.w     #0x64, w2
     f5c:	11 00 09    	repeat    #0x11
     f5e:	82 04 d8    	div.sw    w9, w2
     f60:	00 01 78    	mov.w     w0, w2
     f62:	01 00 78    	mov.w     w1, w0
     f64:	43 11 dd    	sl.w      w2, #0x3, w2
     f66:	ca ed 22    	mov.w     #0x2edc, w10

00000f68 <.L15>:
     f68:	0a 01 41    	add.w     w2, w10, w2
     f6a:	a8 00 20    	mov.w     #0xa, w8
     f6c:	11 00 09    	repeat    #0x11
     f6e:	08 00 d8    	div.sw    w0, w8
     f70:	43 00 dd    	sl.w      w0, #0x3, w0
     f72:	0a 00 40    	add.w     w0, w10, w0
     f74:	40 22 90    	mov.w     [w0+72], w4
     f76:	d0 22 90    	mov.w     [w0+74], w5
     f78:	60 23 90    	mov.w     [w0+76], w6
     f7a:	f0 23 90    	mov.w     [w0+78], w7
     f7c:	02 88 90    	mov.w     [w2+144], w0
     f7e:	92 88 90    	mov.w     [w2+146], w1
     f80:	b2 89 90    	mov.w     [w2+150], w3
     f82:	22 89 90    	mov.w     [w2+148], w2
     f84:	96 fb 07    	rcall     0x6b2 <___muldf3>
     f86:	80 1f 78    	mov.w     w0, [w15++]
     f88:	01 02 78    	mov.w     w1, w4
     f8a:	11 00 09    	repeat    #0x11
     f8c:	88 04 d8    	div.sw    w9, w8
     f8e:	01 02 fd    	exch      w1, w4
     f90:	4f 00 78    	mov.w     [--w15], w0
     f92:	04 02 fb    	se        w4, w4
     f94:	43 22 dd    	sl.w      w4, #0x3, w4
     f96:	0a 02 42    	add.w     w4, w10, w4
     f98:	54 03 be    	mov.d     [++w4], w6
     f9a:	44 02 be    	mov.d     [--w4], w4
     f9c:	d8 ff 37    	bra       0xf4e <.L14>

00000f9e <.L9>:
     f9e:	01 00 fb    	se        w1, w0
     fa0:	c3 ed 22    	mov.w     #0x2edc, w3

00000fa2 <.L17>:
     fa2:	ea cf 50    	sub.b     w1, #0xa, [w15]
     fa4:	c5 ff 3c    	bra       GT, 0xf30 <.L16>
     fa6:	43 00 dd    	sl.w      w0, #0x3, w0
     fa8:	03 00 40    	add.w     w0, w3, w0
     faa:	50 01 be    	mov.d     [++w0], w2
     fac:	40 00 be    	mov.d     [--w0], w0

00000fae <.L6>:
     fae:	4f 05 78    	mov.w     [--w15], w10
     fb0:	4f 04 be    	mov.d     [--w15], w8
     fb2:	00 00 06    	return    

00000fb4 <__vfprintf_cdfFnopuxX>:
     fb4:	8f 03 b0    	add.w     #0x38, w15
     fb6:	88 9f be    	mov.d     w8, [w15++]
     fb8:	8a 9f be    	mov.d     w10, [w15++]
     fba:	8c 9f be    	mov.d     w12, [w15++]
     fbc:	8e 1f 78    	mov.w     w14, [w15++]
     fbe:	e0 b7 9f    	mov.w     w0, [w15-20]
     fc0:	f1 b7 9f    	mov.w     w1, [w15-18]
     fc2:	82 bf 9f    	mov.w     w2, [w15-16]
     fc4:	00 00 eb    	clr.w     w0
     fc6:	a0 b7 9f    	mov.w     w0, [w15-28]
     fc8:	e6 04 37    	bra       0x1996 <.L356>

00000fca <.L20>:
     fca:	80 01 eb    	clr.w     w3
     fcc:	50 c2 b3    	mov.b     #0x25, w0
     fce:	80 cf 50    	sub.b     w1, w0, [w15]
     fd0:	09 00 32    	bra       Z, 0xfe4 <.L353>
     fd2:	01 00 fb    	se        w1, w0
     fd4:	ef b0 97    	mov.w     [w15-20], w1
     fd6:	ec 04 07    	rcall     0x19b0 <_fputc>
     fd8:	e1 0f 40    	add.w     w0, #0x1, [w15]
     fda:	dd 04 32    	bra       Z, 0x1996 <.L356>
     fdc:	af b0 97    	mov.w     [w15-28], w1
     fde:	81 00 e8    	inc.w     w1, w1
     fe0:	a1 b7 9f    	mov.w     w1, [w15-28]
     fe2:	d9 04 37    	bra       0x1996 <.L356>

00000fe4 <.L353>:
     fe4:	7f b1 97    	mov.w     [w15-18], w2
     fe6:	92 40 78    	mov.b     [w2], w1
     fe8:	d0 c2 b3    	mov.b     #0x2d, w0
     fea:	80 cf 50    	sub.b     w1, w0, [w15]
     fec:	0c 00 32    	bra       Z, 0x1006 <.L28>
     fee:	07 00 3c    	bra       GT, 0xffe <.L30>
     ff0:	6d 40 50    	sub.b     w0, #0xd, w0
     ff2:	80 cf 50    	sub.b     w1, w0, [w15]
     ff4:	0d 00 32    	bra       Z, 0x1010 <.L26>
     ff6:	6b 40 40    	add.b     w0, #0xb, w0
     ff8:	80 cf 50    	sub.b     w1, w0, [w15]
     ffa:	19 00 3a    	bra       NZ, 0x102e <.L25>
     ffc:	0e 00 37    	bra       0x101a <.L27>

00000ffe <.L30>:
     ffe:	00 c3 b3    	mov.b     #0x30, w0
    1000:	80 cf 50    	sub.b     w1, w0, [w15]
    1002:	15 00 3a    	bra       NZ, 0x102e <.L25>
    1004:	0f 00 37    	bra       0x1024 <.L29>

00001006 <.L28>:
    1006:	03 30 a0    	bset.w    w3, #0x3
    1008:	7f b2 97    	mov.w     [w15-18], w4
    100a:	04 02 e8    	inc.w     w4, w4
    100c:	f4 b7 9f    	mov.w     w4, [w15-18]
    100e:	ea ff 37    	bra       0xfe4 <.L353>

00001010 <.L26>:
    1010:	03 00 a0    	bset.w    w3, #0x0
    1012:	ff b2 97    	mov.w     [w15-18], w5
    1014:	85 02 e8    	inc.w     w5, w5
    1016:	f5 b7 9f    	mov.w     w5, [w15-18]
    1018:	e5 ff 37    	bra       0xfe4 <.L353>

0000101a <.L27>:
    101a:	03 10 a0    	bset.w    w3, #0x1
    101c:	7f b6 97    	mov.w     [w15-18], w12
    101e:	0c 06 e8    	inc.w     w12, w12
    1020:	fc b7 9f    	mov.w     w12, [w15-18]
    1022:	e0 ff 37    	bra       0xfe4 <.L353>

00001024 <.L29>:
    1024:	03 20 a0    	bset.w    w3, #0x2
    1026:	7f b0 97    	mov.w     [w15-18], w0
    1028:	00 00 e8    	inc.w     w0, w0
    102a:	f0 b7 9f    	mov.w     w0, [w15-18]
    102c:	db ff 37    	bra       0xfe4 <.L353>

0000102e <.L25>:
    102e:	03 18 a3    	btst.z    w3, #0x1
    1030:	01 00 32    	bra       Z, 0x1034 <.L31>
    1032:	03 00 a1    	bclr.w    w3, #0x0

00001034 <.L31>:
    1034:	03 38 a3    	btst.z    w3, #0x3
    1036:	01 00 32    	bra       Z, 0x103a <.L33>
    1038:	03 20 a1    	bclr.w    w3, #0x2

0000103a <.L33>:
    103a:	01 00 fb    	se        w1, w0
    103c:	02 fd 2f    	mov.w     #0xffd0, w2
    103e:	02 00 40    	add.w     w0, w2, w0
    1040:	e9 0f 50    	sub.w     w0, #0x9, [w15]
    1042:	10 00 3e    	bra       GTU, 0x1064 <.L35>
    1044:	80 00 eb    	clr.w     w1
    1046:	c1 b7 9f    	mov.w     w1, [w15-24]
    1048:	02 02 78    	mov.w     w2, w4

0000104a <.L37>:
    104a:	4f b1 97    	mov.w     [w15-24], w2
    104c:	6a 10 b9    	mul.su    w2, #0xa, w0
    104e:	ff b2 97    	mov.w     [w15-18], w5
    1050:	15 01 fb    	se        [w5], w2
    1052:	00 01 41    	add.w     w2, w0, w2
    1054:	04 01 41    	add.w     w2, w4, w2
    1056:	c2 b7 9f    	mov.w     w2, [w15-24]
    1058:	55 00 fb    	se        [++w5], w0
    105a:	f5 b7 9f    	mov.w     w5, [w15-18]
    105c:	04 00 40    	add.w     w0, w4, w0
    105e:	e9 0f 50    	sub.w     w0, #0x9, [w15]
    1060:	0d 00 3e    	bra       GTU, 0x107c <.L38>
    1062:	f3 ff 37    	bra       0x104a <.L37>

00001064 <.L35>:
    1064:	00 06 eb    	clr.w     w12
    1066:	cc b7 9f    	mov.w     w12, [w15-24]
    1068:	a0 c2 b3    	mov.b     #0x2a, w0
    106a:	80 cf 50    	sub.b     w1, w0, [w15]
    106c:	07 00 3a    	bra       NZ, 0x107c <.L38>
    106e:	0f b8 97    	mov.w     [w15-16], w0
    1070:	c0 00 78    	mov.w     [--w0], w1
    1072:	80 bf 9f    	mov.w     w0, [w15-16]
    1074:	c1 b7 9f    	mov.w     w1, [w15-24]
    1076:	7f b1 97    	mov.w     [w15-18], w2
    1078:	02 01 e8    	inc.w     w2, w2
    107a:	f2 b7 9f    	mov.w     w2, [w15-18]

0000107c <.L38>:
    107c:	e0 c2 b3    	mov.b     #0x2e, w0
    107e:	7f b2 97    	mov.w     [w15-18], w4
    1080:	94 4f 10    	subr.b    w0, [w4], [w15]
    1082:	21 00 3a    	bra       NZ, 0x10c6 <.L41>
    1084:	83 06 78    	mov.w     w3, w13
    1086:	0d e0 a0    	bset.w    w13, #0xe
    1088:	84 00 e8    	inc.w     w4, w1
    108a:	64 40 50    	sub.b     w0, #0x4, w0
    108c:	91 4f 10    	subr.b    w0, [w1], [w15]
    108e:	04 00 32    	bra       Z, 0x1098 <.L43>
    1090:	f1 b7 9f    	mov.w     w1, [w15-18]
    1092:	80 02 eb    	clr.w     w5
    1094:	b5 b7 9f    	mov.w     w5, [w15-26]
    1096:	10 00 37    	bra       0x10b8 <.L45>

00001098 <.L43>:
    1098:	0f be 97    	mov.w     [w15-16], w12
    109a:	4c 00 78    	mov.w     [--w12], w0
    109c:	8c bf 9f    	mov.w     w12, [w15-16]
    109e:	b0 b7 9f    	mov.w     w0, [w15-26]
    10a0:	ff b0 97    	mov.w     [w15-18], w1
    10a2:	81 80 e8    	inc2.w    w1, w1
    10a4:	f1 b7 9f    	mov.w     w1, [w15-18]
    10a6:	13 00 37    	bra       0x10ce <.L329>

000010a8 <.L47>:
    10a8:	3f b2 97    	mov.w     [w15-26], w4
    10aa:	6a 20 b9    	mul.su    w4, #0xa, w0
    10ac:	00 00 41    	add.w     w2, w0, w0
    10ae:	03 00 40    	add.w     w0, w3, w0
    10b0:	b0 b7 9f    	mov.w     w0, [w15-26]
    10b2:	ff b2 97    	mov.w     [w15-18], w5
    10b4:	85 02 e8    	inc.w     w5, w5
    10b6:	f5 b7 9f    	mov.w     w5, [w15-18]

000010b8 <.L45>:
    10b8:	7f b6 97    	mov.w     [w15-18], w12
    10ba:	1c 01 fb    	se        [w12], w2
    10bc:	03 fd 2f    	mov.w     #0xffd0, w3
    10be:	03 00 41    	add.w     w2, w3, w0
    10c0:	e9 0f 50    	sub.w     w0, #0x9, [w15]
    10c2:	f2 ff 36    	bra       LEU, 0x10a8 <.L47>
    10c4:	04 00 37    	bra       0x10ce <.L329>

000010c6 <.L41>:
    10c6:	83 06 78    	mov.w     w3, w13
    10c8:	0d c0 a0    	bset.w    w13, #0xc
    10ca:	00 00 eb    	clr.w     w0
    10cc:	b0 b7 9f    	mov.w     w0, [w15-26]

000010ce <.L329>:
    10ce:	7f b1 97    	mov.w     [w15-18], w2
    10d0:	b2 40 78    	mov.b     [w2++], w1
    10d2:	f2 b7 9f    	mov.w     w2, [w15-18]
    10d4:	c1 7f 9f    	mov.b     w1, [w15-68]
    10d6:	c0 c6 b3    	mov.b     #0x6c, w0
    10d8:	80 cf 50    	sub.b     w1, w0, [w15]
    10da:	27 00 32    	bra       Z, 0x112a <.L54>
    10dc:	14 00 3c    	bra       GT, 0x1106 <.L59>
    10de:	68 40 50    	sub.b     w0, #0x8, w0
    10e0:	80 cf 50    	sub.b     w1, w0, [w15]
    10e2:	9d 00 32    	bra       Z, 0x121e <.L52>
    10e4:	09 00 3c    	bra       GT, 0x10f8 <.L60>
    10e6:	6c 40 50    	sub.b     w0, #0xc, w0
    10e8:	80 cf 50    	sub.b     w1, w0, [w15]
    10ea:	29 00 32    	bra       Z, 0x113e <.L50>
    10ec:	6b 40 40    	add.b     w0, #0xb, w0
    10ee:	80 cf 50    	sub.b     w1, w0, [w15]
    10f0:	72 00 32    	bra       Z, 0x11d6 <.L51>
    10f2:	01 04 e0    	cp0.b     w1
    10f4:	56 04 32    	bra       Z, 0x19a2 <.L49>
    10f6:	8e 00 37    	bra       0x1214 <.L48>

000010f8 <.L60>:
    10f8:	60 c6 b3    	mov.b     #0x66, w0
    10fa:	80 cf 50    	sub.b     w1, w0, [w15]
    10fc:	1c 00 32    	bra       Z, 0x1136 <.L53>
    10fe:	63 40 40    	add.b     w0, #0x3, w0
    1100:	80 cf 50    	sub.b     w1, w0, [w15]
    1102:	88 00 3a    	bra       NZ, 0x1214 <.L48>
    1104:	8c 00 37    	bra       0x121e <.L52>

00001106 <.L59>:
    1106:	30 c7 b3    	mov.b     #0x73, w0
    1108:	80 cf 50    	sub.b     w1, w0, [w15]
    110a:	1c 00 32    	bra       Z, 0x1144 <.L56>
    110c:	07 00 3c    	bra       GT, 0x111c <.L61>
    110e:	64 40 50    	sub.b     w0, #0x4, w0
    1110:	80 cf 50    	sub.b     w1, w0, [w15]
    1112:	13 00 32    	bra       Z, 0x113a <.L55>
    1114:	00 40 e8    	inc.b     w0, w0
    1116:	80 cf 50    	sub.b     w1, w0, [w15]
    1118:	7d 00 3a    	bra       NZ, 0x1214 <.L48>
    111a:	11 00 37    	bra       0x113e <.L50>

0000111c <.L61>:
    111c:	50 c7 b3    	mov.b     #0x75, w0
    111e:	80 cf 50    	sub.b     w1, w0, [w15]
    1120:	7d 00 32    	bra       Z, 0x121c <.L57>
    1122:	63 40 40    	add.b     w0, #0x3, w0
    1124:	80 cf 50    	sub.b     w1, w0, [w15]
    1126:	76 00 3a    	bra       NZ, 0x1214 <.L48>
    1128:	0b 00 37    	bra       0x1140 <.L58>

0000112a <.L54>:
    112a:	00 00 28    	mov.w     #0x8000, w0
    112c:	0d 48 a3    	btst.z    w13, #0x4
    112e:	01 00 3a    	bra       NZ, 0x1132 <.L64>
    1130:	00 01 20    	mov.w     #0x10, w0

00001132 <.L64>:
    1132:	80 86 76    	ior.w     w13, w0, w13
    1134:	cc ff 37    	bra       0x10ce <.L329>

00001136 <.L53>:
    1136:	0d a0 a0    	bset.w    w13, #0xa
    1138:	72 00 37    	bra       0x121e <.L52>

0000113a <.L55>:
    113a:	0d 60 a0    	bset.w    w13, #0x6
    113c:	70 00 37    	bra       0x121e <.L52>

0000113e <.L50>:
    113e:	0d 50 a0    	bset.w    w13, #0x5

00001140 <.L58>:
    1140:	0d 70 a0    	bset.w    w13, #0x7
    1142:	6d 00 37    	bra       0x121e <.L52>

00001144 <.L56>:
    1144:	8f b9 97    	mov.w     [w15-16], w3
    1146:	43 00 78    	mov.w     [--w3], w0
    1148:	83 bf 9f    	mov.w     w3, [w15-16]
    114a:	00 04 78    	mov.w     w0, w8
    114c:	00 00 e0    	cp0.w     w0
    114e:	01 00 3a    	bra       NZ, 0x1152 <.L65>
    1150:	c8 11 23    	mov.w     #0x311c, w8

00001152 <.L65>:
    1152:	80 04 eb    	clr.w     w9
    1154:	01 00 37    	bra       0x1158 <.L67>

00001156 <.L68>:
    1156:	81 04 e8    	inc.w     w1, w9

00001158 <.L67>:
    1158:	89 00 78    	mov.w     w9, w1
    115a:	08 80 44    	add.w     w9, w8, w0
    115c:	10 04 e0    	cp0.b     [w0]
    115e:	fb ff 3a    	bra       NZ, 0x1156 <.L68>

00001160 <.L69>:
    1160:	3f b2 97    	mov.w     [w15-26], w4
    1162:	04 00 e0    	cp0.w     w4
    1164:	03 00 32    	bra       Z, 0x116c <.L70>
    1166:	89 0f 52    	sub.w     w4, w9, [w15]
    1168:	01 00 31    	bra       C, 0x116c <.L70>
    116a:	84 04 78    	mov.w     w4, w9

0000116c <.L70>:
    116c:	00 07 eb    	clr.w     w14
    116e:	cf b2 97    	mov.w     [w15-24], w5
    1170:	89 8f 52    	sub.w     w5, w9, [w15]
    1172:	01 00 36    	bra       LEU, 0x1176 <.L75>
    1174:	09 87 52    	sub.w     w5, w9, w14

00001176 <.L75>:
    1176:	43 68 de    	lsr.w     w13, #0x3, w0
    1178:	e1 06 60    	and.w     w0, #0x1, w13
    117a:	19 00 3a    	bra       NZ, 0x11ae <.L354>
    117c:	0d 06 78    	mov.w     w13, w12
    117e:	09 00 37    	bra       0x1192 <.L78>

00001180 <.L79>:
    1180:	ef b0 97    	mov.w     [w15-20], w1
    1182:	00 02 20    	mov.w     #0x20, w0
    1184:	15 04 07    	rcall     0x19b0 <_fputc>
    1186:	e1 0f 40    	add.w     w0, #0x1, [w15]
    1188:	03 00 32    	bra       Z, 0x1190 <.L80>
    118a:	2f b0 97    	mov.w     [w15-28], w0
    118c:	00 00 e8    	inc.w     w0, w0
    118e:	a0 b7 9f    	mov.w     w0, [w15-28]

00001190 <.L80>:
    1190:	0c 06 e8    	inc.w     w12, w12

00001192 <.L78>:
    1192:	8e 0f 56    	sub.w     w12, w14, [w15]
    1194:	f5 ff 3a    	bra       NZ, 0x1180 <.L79>
    1196:	00 87 eb    	setm.w    w14
    1198:	0a 00 37    	bra       0x11ae <.L354>

0000119a <.L83>:
    119a:	88 00 78    	mov.w     w8, w1
    119c:	31 00 fb    	se        [w1++], w0
    119e:	01 04 78    	mov.w     w1, w8
    11a0:	ef b0 97    	mov.w     [w15-20], w1
    11a2:	06 04 07    	rcall     0x19b0 <_fputc>
    11a4:	e1 0f 40    	add.w     w0, #0x1, [w15]
    11a6:	03 00 32    	bra       Z, 0x11ae <.L354>
    11a8:	af b0 97    	mov.w     [w15-28], w1
    11aa:	81 00 e8    	inc.w     w1, w1
    11ac:	a1 b7 9f    	mov.w     w1, [w15-28]

000011ae <.L354>:
    11ae:	09 00 e9    	dec.w     w9, w0
    11b0:	80 04 78    	mov.w     w0, w9
    11b2:	e1 0f 40    	add.w     w0, #0x1, [w15]
    11b4:	f2 ff 3a    	bra       NZ, 0x119a <.L83>
    11b6:	00 06 eb    	clr.w     w12
    11b8:	0d 00 e0    	cp0.w     w13
    11ba:	0a 00 3a    	bra       NZ, 0x11d0 <.L87>
    11bc:	ec 03 37    	bra       0x1996 <.L356>

000011be <.L88>:
    11be:	ef b0 97    	mov.w     [w15-20], w1
    11c0:	00 02 20    	mov.w     #0x20, w0
    11c2:	f6 03 07    	rcall     0x19b0 <_fputc>
    11c4:	e1 0f 40    	add.w     w0, #0x1, [w15]
    11c6:	03 00 32    	bra       Z, 0x11ce <.L89>
    11c8:	2f b1 97    	mov.w     [w15-28], w2
    11ca:	02 01 e8    	inc.w     w2, w2
    11cc:	a2 b7 9f    	mov.w     w2, [w15-28]

000011ce <.L89>:
    11ce:	0c 06 e8    	inc.w     w12, w12

000011d0 <.L87>:
    11d0:	8e 0f 56    	sub.w     w12, w14, [w15]
    11d2:	f5 ff 3a    	bra       NZ, 0x11be <.L88>
    11d4:	e0 03 37    	bra       0x1996 <.L356>

000011d6 <.L51>:
    11d6:	8f b9 97    	mov.w     [w15-16], w3
    11d8:	43 00 78    	mov.w     [--w3], w0
    11da:	83 bf 9f    	mov.w     w3, [w15-16]
    11dc:	cf 80 de    	asr.w     w0, #0xf, w1
    11de:	01 01 78    	mov.w     w1, w2
    11e0:	82 01 78    	mov.w     w2, w3
    11e2:	02 05 be    	mov.d     w2, w10
    11e4:	00 04 be    	mov.d     w0, w8
    11e6:	02 03 be    	mov.d     w2, w6
    11e8:	00 02 be    	mov.d     w0, w4
    11ea:	48 22 de    	lsr.w     w4, #0x8, w4
    11ec:	48 2e dd    	sl.w      w5, #0x8, w12
    11ee:	04 02 76    	ior.w     w12, w4, w4
    11f0:	c4 7f 9f    	mov.b     w4, [w15-68]
    11f2:	0d 48 a3    	btst.z    w13, #0x4
    11f4:	0a 00 32    	bra       Z, 0x120a <.L91>
    11f6:	04 04 e0    	cp0.b     w4
    11f8:	08 00 32    	bra       Z, 0x120a <.L91>
    11fa:	e1 4f 42    	add.b     w4, #0x1, [w15]
    11fc:	06 00 32    	bra       Z, 0x120a <.L91>
    11fe:	d1 fb 2f    	mov.w     #0xffbd, w1
    1200:	01 80 47    	add.w     w15, w1, w0
    1202:	04 48 78    	mov.b     w4, [w0]
    1204:	18 40 98    	mov.b     w8, [w0+1]
    1206:	29 00 20    	mov.w     #0x2, w9
    1208:	02 00 37    	bra       0x120e <.L95>

0000120a <.L91>:
    120a:	d0 7f 9f    	mov.b     w0, [w15-67]
    120c:	19 00 20    	mov.w     #0x1, w9

0000120e <.L95>:
    120e:	d2 fb 2f    	mov.w     #0xffbd, w2
    1210:	02 84 47    	add.w     w15, w2, w8
    1212:	a6 ff 37    	bra       0x1160 <.L69>

00001214 <.L48>:
    1214:	c3 fb 2f    	mov.w     #0xffbc, w3
    1216:	03 84 47    	add.w     w15, w3, w8
    1218:	19 00 20    	mov.w     #0x1, w9
    121a:	a2 ff 37    	bra       0x1160 <.L69>

0000121c <.L57>:
    121c:	0d 0c b3    	ior.w     #0xc0, w13

0000121e <.L52>:
    121e:	00 70 20    	mov.w     #0x700, w0
    1220:	00 82 66    	and.w     w13, w0, w4
    1222:	27 02 32    	bra       Z, 0x1672 <.L96>
    1224:	0d c8 a3    	btst.z    w13, #0xc
    1226:	02 00 32    	bra       Z, 0x122c <.L98>
    1228:	64 00 20    	mov.w     #0x6, w4
    122a:	b4 b7 9f    	mov.w     w4, [w15-26]

0000122c <.L98>:
    122c:	0d 48 a3    	btst.z    w13, #0x4
    122e:	05 00 32    	bra       Z, 0x123a <.L100>
    1230:	0f ba 97    	mov.w     [w15-16], w4
    1232:	44 01 be    	mov.d     [--w4], w2
    1234:	44 00 be    	mov.d     [--w4], w0
    1236:	84 bf 9f    	mov.w     w4, [w15-16]
    1238:	04 00 37    	bra       0x1242 <.L343>

0000123a <.L100>:
    123a:	8f ba 97    	mov.w     [w15-16], w5
    123c:	45 00 be    	mov.d     [--w5], w0
    123e:	85 bf 9f    	mov.w     w5, [w15-16]
    1240:	ad fa 07    	rcall     0x79c <___extendsfdf2>

00001242 <.L343>:
    1242:	e0 af 9f    	mov.w     w0, [w15-36]
    1244:	f1 af 9f    	mov.w     w1, [w15-34]
    1246:	82 b7 9f    	mov.w     w2, [w15-32]
    1248:	93 b7 9f    	mov.w     w3, [w15-30]
    124a:	60 22 b8    	mul.uu    w4, #0x0, w4
    124c:	60 33 b8    	mul.uu    w6, #0x0, w6
    124e:	6f a8 97    	mov.w     [w15-36], w0
    1250:	ff a8 97    	mov.w     [w15-34], w1
    1252:	0f b1 97    	mov.w     [w15-32], w2
    1254:	9f b1 97    	mov.w     [w15-30], w3
    1256:	c1 fa 07    	rcall     0x7da <___eqdf2>
    1258:	00 00 e0    	cp0.w     w0
    125a:	0a 00 3d    	bra       GE, 0x1270 <.L103>
    125c:	6f a8 97    	mov.w     [w15-36], w0
    125e:	ff a8 97    	mov.w     [w15-34], w1
    1260:	0f b1 97    	mov.w     [w15-32], w2
    1262:	9f b1 97    	mov.w     [w15-30], w3
    1264:	03 f0 a2    	btg.w     w3, #0xf
    1266:	e0 af 9f    	mov.w     w0, [w15-36]
    1268:	f1 af 9f    	mov.w     w1, [w15-34]
    126a:	82 b7 9f    	mov.w     w2, [w15-32]
    126c:	93 b7 9f    	mov.w     w3, [w15-30]
    126e:	3d 00 b3    	ior.w     #0x3, w13

00001270 <.L103>:
    1270:	00 00 eb    	clr.w     w0
    1272:	80 a7 9f    	mov.w     w0, [w15-64]
    1274:	60 22 b8    	mul.uu    w4, #0x0, w4
    1276:	60 33 b8    	mul.uu    w6, #0x0, w6
    1278:	6f a8 97    	mov.w     [w15-36], w0
    127a:	ff a8 97    	mov.w     [w15-34], w1
    127c:	0f b1 97    	mov.w     [w15-32], w2
    127e:	9f b1 97    	mov.w     [w15-30], w3
    1280:	b1 fa 07    	rcall     0x7e4 <___nedf2>
    1282:	00 00 e0    	cp0.w     w0
    1284:	34 00 32    	bra       Z, 0x12ee <.L106>
    1286:	6f a8 97    	mov.w     [w15-36], w0
    1288:	ff a8 97    	mov.w     [w15-34], w1
    128a:	0f b1 97    	mov.w     [w15-32], w2
    128c:	9f b1 97    	mov.w     [w15-30], w3
    128e:	af fa 07    	rcall     0x7ee <___truncdfsf2>
    1290:	03 fc 2f    	mov.w     #0xffc0, w3
    1292:	03 81 47    	add.w     w15, w3, w2
    1294:	d7 fa 07    	rcall     0x844 <_frexpf>
    1296:	0f a0 97    	mov.w     [w15-64], w0
    1298:	00 00 e9    	dec.w     w0, w0
    129a:	63 00 b9    	mul.su    w0, #0x3, w0
    129c:	a2 00 20    	mov.w     #0xa, w2
    129e:	11 00 09    	repeat    #0x11
    12a0:	02 00 d8    	div.sw    w0, w2
    12a2:	80 00 fd    	exch      w0, w1
    12a4:	81 a7 9f    	mov.w     w1, [w15-64]
    12a6:	01 00 e0    	cp0.w     w1
    12a8:	02 00 3d    	bra       GE, 0x12ae <.L109>
    12aa:	01 00 e9    	dec.w     w1, w0
    12ac:	80 a7 9f    	mov.w     w0, [w15-64]

000012ae <.L109>:
    12ae:	0f a4 97    	mov.w     [w15-64], w8
    12b0:	08 40 ea    	neg.b     w8, w0
    12b2:	29 fe 07    	rcall     0xf06 <_scale>
    12b4:	6f aa 97    	mov.w     [w15-36], w4
    12b6:	ff aa 97    	mov.w     [w15-34], w5
    12b8:	0f b3 97    	mov.w     [w15-32], w6
    12ba:	9f b3 97    	mov.w     [w15-30], w7
    12bc:	fa f9 07    	rcall     0x6b2 <___muldf3>
    12be:	a0 af 9f    	mov.w     w0, [w15-44]
    12c0:	b1 af 9f    	mov.w     w1, [w15-42]
    12c2:	c2 af 9f    	mov.w     w2, [w15-40]
    12c4:	d3 af 9f    	mov.w     w3, [w15-38]
    12c6:	60 22 b8    	mul.uu    w4, #0x0, w4
    12c8:	06 00 20    	mov.w     #0x0, w6
    12ca:	07 ff 23    	mov.w     #0x3ff0, w7
    12cc:	86 fa 07    	rcall     0x7da <___eqdf2>
    12ce:	00 00 e0    	cp0.w     w0
    12d0:	02 00 3d    	bra       GE, 0x12d6 <.L111>
    12d2:	08 00 e9    	dec.w     w8, w0
    12d4:	0b 00 37    	bra       0x12ec <.L344>

000012d6 <.L111>:
    12d6:	60 22 b8    	mul.uu    w4, #0x0, w4
    12d8:	06 00 20    	mov.w     #0x0, w6
    12da:	47 02 24    	mov.w     #0x4024, w7
    12dc:	2f a8 97    	mov.w     [w15-44], w0
    12de:	bf a8 97    	mov.w     [w15-42], w1
    12e0:	4f a9 97    	mov.w     [w15-40], w2
    12e2:	df a9 97    	mov.w     [w15-38], w3
    12e4:	b2 fa 07    	rcall     0x84a <___gedf2>
    12e6:	00 00 e0    	cp0.w     w0
    12e8:	02 00 35    	bra       LT, 0x12ee <.L106>
    12ea:	08 00 e8    	inc.w     w8, w0

000012ec <.L344>:
    12ec:	80 a7 9f    	mov.w     w0, [w15-64]

000012ee <.L106>:
    12ee:	3f b2 97    	mov.w     [w15-26], w4
    12f0:	f8 0f 52    	sub.w     w4, #0x18, [w15]
    12f2:	57 00 3c    	bra       GT, 0x13a2 <.L116>
    12f4:	d0 c6 b3    	mov.b     #0x6d, w0
    12f6:	80 4f 52    	sub.b     w4, w0, [w15]
    12f8:	29 00 36    	bra       LEU, 0x134c <.L118>
    12fa:	04 85 fb    	ze        w4, w10
    12fc:	42 06 20    	mov.w     #0x64, w2
    12fe:	11 00 09    	repeat    #0x11
    1300:	02 85 d8    	div.uw    w10, w2
    1302:	00 01 78    	mov.w     w0, w2
    1304:	01 04 78    	mov.w     w1, w8
    1306:	43 11 dd    	sl.w      w2, #0x3, w2
    1308:	cb e2 22    	mov.w     #0x2e2c, w11
    130a:	0b 01 41    	add.w     w2, w11, w2
    130c:	60 22 b8    	mul.uu    w4, #0x0, w4
    130e:	06 00 20    	mov.w     #0x0, w6
    1310:	07 fe 23    	mov.w     #0x3fe0, w7
    1312:	02 88 90    	mov.w     [w2+144], w0
    1314:	92 88 90    	mov.w     [w2+146], w1
    1316:	b2 89 90    	mov.w     [w2+150], w3
    1318:	22 89 90    	mov.w     [w2+148], w2
    131a:	cb f9 07    	rcall     0x6b2 <___muldf3>
    131c:	a9 00 20    	mov.w     #0xa, w9
    131e:	80 9f be    	mov.d     w0, [w15++]
    1320:	11 00 09    	repeat    #0x11
    1322:	09 84 d8    	div.uw    w8, w9
    1324:	00 04 78    	mov.w     w0, w8
    1326:	4f 00 be    	mov.d     [--w15], w0
    1328:	43 44 dd    	sl.w      w8, #0x3, w8
    132a:	0b 04 44    	add.w     w8, w11, w8
    132c:	48 22 90    	mov.w     [w8+72], w4
    132e:	d8 22 90    	mov.w     [w8+74], w5
    1330:	68 23 90    	mov.w     [w8+76], w6
    1332:	f8 23 90    	mov.w     [w8+78], w7
    1334:	be f9 07    	rcall     0x6b2 <___muldf3>
    1336:	80 1f 78    	mov.w     w0, [w15++]
    1338:	01 02 78    	mov.w     w1, w4
    133a:	11 00 09    	repeat    #0x11
    133c:	09 85 d8    	div.uw    w10, w9
    133e:	01 02 fd    	exch      w1, w4
    1340:	4f 00 78    	mov.w     [--w15], w0
    1342:	43 22 dd    	sl.w      w4, #0x3, w4
    1344:	0b 02 42    	add.w     w4, w11, w4
    1346:	54 03 be    	mov.d     [++w4], w6
    1348:	44 02 be    	mov.d     [--w4], w4
    134a:	1f 00 37    	bra       0x138a <.L345>

0000134c <.L118>:
    134c:	04 80 fb    	ze        w4, w0
    134e:	c9 e2 22    	mov.w     #0x2e2c, w9
    1350:	ea 4f 52    	sub.b     w4, #0xa, [w15]
    1352:	14 00 36    	bra       LEU, 0x137c <.L121>
    1354:	a2 00 20    	mov.w     #0xa, w2
    1356:	11 00 09    	repeat    #0x11
    1358:	02 80 d8    	div.uw    w0, w2
    135a:	00 01 78    	mov.w     w0, w2
    135c:	01 04 78    	mov.w     w1, w8
    135e:	43 11 dd    	sl.w      w2, #0x3, w2
    1360:	09 01 41    	add.w     w2, w9, w2
    1362:	60 22 b8    	mul.uu    w4, #0x0, w4
    1364:	06 00 20    	mov.w     #0x0, w6
    1366:	07 fe 23    	mov.w     #0x3fe0, w7
    1368:	42 20 90    	mov.w     [w2+72], w0
    136a:	d2 20 90    	mov.w     [w2+74], w1
    136c:	f2 21 90    	mov.w     [w2+78], w3
    136e:	62 21 90    	mov.w     [w2+76], w2
    1370:	a0 f9 07    	rcall     0x6b2 <___muldf3>
    1372:	43 44 dd    	sl.w      w8, #0x3, w8
    1374:	09 04 44    	add.w     w8, w9, w8
    1376:	38 02 be    	mov.d     [w8++], w4
    1378:	28 03 be    	mov.d     [w8--], w6
    137a:	07 00 37    	bra       0x138a <.L345>

0000137c <.L121>:
    137c:	43 00 dd    	sl.w      w0, #0x3, w0
    137e:	09 00 40    	add.w     w0, w9, w0
    1380:	60 22 b8    	mul.uu    w4, #0x0, w4
    1382:	06 00 20    	mov.w     #0x0, w6
    1384:	07 fe 23    	mov.w     #0x3fe0, w7
    1386:	50 01 be    	mov.d     [++w0], w2
    1388:	40 00 be    	mov.d     [--w0], w0

0000138a <.L345>:
    138a:	93 f9 07    	rcall     0x6b2 <___muldf3>
    138c:	00 02 be    	mov.d     w0, w4
    138e:	02 03 be    	mov.d     w2, w6
    1390:	6f a8 97    	mov.w     [w15-36], w0
    1392:	ff a8 97    	mov.w     [w15-34], w1
    1394:	0f b1 97    	mov.w     [w15-32], w2
    1396:	9f b1 97    	mov.w     [w15-30], w3
    1398:	5d fa 07    	rcall     0x854 <___adddf3>
    139a:	e0 af 9f    	mov.w     w0, [w15-36]
    139c:	f1 af 9f    	mov.w     w1, [w15-34]
    139e:	82 b7 9f    	mov.w     w2, [w15-32]
    13a0:	93 b7 9f    	mov.w     w3, [w15-30]

000013a2 <.L116>:
    13a2:	0f a4 97    	mov.w     [w15-64], w8
    13a4:	e9 0f 54    	sub.w     w8, #0x9, [w15]
    13a6:	15 00 3c    	bra       GT, 0x13d2 <.L123>
    13a8:	60 22 b8    	mul.uu    w4, #0x0, w4
    13aa:	60 33 b8    	mul.uu    w6, #0x0, w6
    13ac:	6f a8 97    	mov.w     [w15-36], w0
    13ae:	ff a8 97    	mov.w     [w15-34], w1
    13b0:	0f b1 97    	mov.w     [w15-32], w2
    13b2:	9f b1 97    	mov.w     [w15-30], w3
    13b4:	17 fa 07    	rcall     0x7e4 <___nedf2>
    13b6:	00 00 e0    	cp0.w     w0
    13b8:	32 00 32    	bra       Z, 0x141e <.L125>
    13ba:	6f a8 97    	mov.w     [w15-36], w0
    13bc:	ff a8 97    	mov.w     [w15-34], w1
    13be:	0f b1 97    	mov.w     [w15-32], w2
    13c0:	9f b1 97    	mov.w     [w15-30], w3
    13c2:	c5 fa 07    	rcall     0x94e <___fixunsdfdi>
    13c4:	e0 0f 50    	sub.w     w0, #0x0, [w15]
    13c6:	e0 8f 58    	subb.w    w1, #0x0, [w15]
    13c8:	e0 0f 59    	subb.w    w2, #0x0, [w15]
    13ca:	e0 8f 59    	subb.w    w3, #0x0, [w15]
    13cc:	28 00 3a    	bra       NZ, 0x141e <.L125>
    13ce:	e1 0f 54    	sub.w     w8, #0x1, [w15]
    13d0:	26 00 34    	bra       LE, 0x141e <.L125>

000013d2 <.L123>:
    13d2:	04 00 20    	mov.w     #0x0, w4
    13d4:	05 00 2e    	mov.w     #0xe000, w5
    13d6:	b6 e0 22    	mov.w     #0x2e0b, w6
    13d8:	17 01 24    	mov.w     #0x4011, w7
    13da:	2f a8 97    	mov.w     [w15-44], w0
    13dc:	bf a8 97    	mov.w     [w15-42], w1
    13de:	4f a9 97    	mov.w     [w15-40], w2
    13e0:	df a9 97    	mov.w     [w15-38], w3
    13e2:	fb f9 07    	rcall     0x7da <___eqdf2>
    13e4:	00 00 e0    	cp0.w     w0
    13e6:	02 00 3d    	bra       GE, 0x13ec <.L129>
    13e8:	73 00 54    	sub.w     w8, #0x13, w0
    13ea:	01 00 37    	bra       0x13ee <.L346>

000013ec <.L129>:
    13ec:	72 00 54    	sub.w     w8, #0x12, w0

000013ee <.L346>:
    13ee:	80 a7 9f    	mov.w     w0, [w15-64]
    13f0:	0f c0 97    	mov.b     [w15-64], w0
    13f2:	89 fd 07    	rcall     0xf06 <_scale>
    13f4:	a0 af 9f    	mov.w     w0, [w15-44]
    13f6:	b1 af 9f    	mov.w     w1, [w15-42]
    13f8:	c2 af 9f    	mov.w     w2, [w15-40]
    13fa:	d3 af 9f    	mov.w     w3, [w15-38]
    13fc:	00 02 be    	mov.d     w0, w4
    13fe:	02 03 be    	mov.d     w2, w6
    1400:	6f a8 97    	mov.w     [w15-36], w0
    1402:	ff a8 97    	mov.w     [w15-34], w1
    1404:	0f b1 97    	mov.w     [w15-32], w2
    1406:	9f b1 97    	mov.w     [w15-30], w3
    1408:	d3 fa 07    	rcall     0x9b0 <___divdf3>
    140a:	a1 fa 07    	rcall     0x94e <___fixunsdfdi>
    140c:	02 05 be    	mov.d     w2, w10
    140e:	00 04 be    	mov.d     w0, w8
    1410:	60 00 b8    	mul.uu    w0, #0x0, w0
    1412:	60 11 b8    	mul.uu    w2, #0x0, w2
    1414:	a0 a7 9f    	mov.w     w0, [w15-60]
    1416:	b1 a7 9f    	mov.w     w1, [w15-58]
    1418:	c2 a7 9f    	mov.w     w2, [w15-56]
    141a:	d3 a7 9f    	mov.w     w3, [w15-54]
    141c:	2e 00 37    	bra       0x147a <.L133>

0000141e <.L125>:
    141e:	6f a8 97    	mov.w     [w15-36], w0
    1420:	ff a8 97    	mov.w     [w15-34], w1
    1422:	0f b1 97    	mov.w     [w15-32], w2
    1424:	9f b1 97    	mov.w     [w15-30], w3
    1426:	93 fa 07    	rcall     0x94e <___fixunsdfdi>
    1428:	02 05 be    	mov.d     w2, w10
    142a:	00 04 be    	mov.d     w0, w8
    142c:	e0 0f 50    	sub.w     w0, #0x0, [w15]
    142e:	e0 8f 58    	subb.w    w1, #0x0, [w15]
    1430:	e0 0f 59    	subb.w    w2, #0x0, [w15]
    1432:	e0 8f 59    	subb.w    w3, #0x0, [w15]
    1434:	02 00 35    	bra       LT, 0x143a <.L135>
    1436:	16 fb 07    	rcall     0xa64 <___floatdidf>
    1438:	13 00 37    	bra       0x1460 <.L347>

0000143a <.L135>:
    143a:	10 00 20    	mov.w     #0x1, w0
    143c:	01 00 20    	mov.w     #0x0, w1
    143e:	60 11 b8    	mul.uu    w2, #0x0, w2
    1440:	08 00 60    	and.w     w0, w8, w0
    1442:	89 80 60    	and.w     w1, w9, w1
    1444:	0a 01 61    	and.w     w2, w10, w2
    1446:	8b 81 61    	and.w     w3, w11, w3
    1448:	8b 03 d1    	lsr.w     w11, w7
    144a:	0a 83 d3    	rrc.w     w10, w6
    144c:	89 82 d3    	rrc.w     w9, w5
    144e:	08 82 d3    	rrc.w     w8, w4
    1450:	00 00 72    	ior.w     w4, w0, w0
    1452:	81 80 72    	ior.w     w5, w1, w1
    1454:	02 01 73    	ior.w     w6, w2, w2
    1456:	83 81 73    	ior.w     w7, w3, w3
    1458:	05 fb 07    	rcall     0xa64 <___floatdidf>
    145a:	00 02 be    	mov.d     w0, w4
    145c:	02 03 be    	mov.d     w2, w6
    145e:	fa f9 07    	rcall     0x854 <___adddf3>

00001460 <.L347>:
    1460:	00 02 be    	mov.d     w0, w4
    1462:	02 03 be    	mov.d     w2, w6
    1464:	6f a8 97    	mov.w     [w15-36], w0
    1466:	ff a8 97    	mov.w     [w15-34], w1
    1468:	0f b1 97    	mov.w     [w15-32], w2
    146a:	9f b1 97    	mov.w     [w15-30], w3
    146c:	32 fb 07    	rcall     0xad2 <___subdf3>
    146e:	a0 a7 9f    	mov.w     w0, [w15-60]
    1470:	b1 a7 9f    	mov.w     w1, [w15-58]
    1472:	c2 a7 9f    	mov.w     w2, [w15-56]
    1474:	d3 a7 9f    	mov.w     w3, [w15-54]
    1476:	00 00 eb    	clr.w     w0
    1478:	80 a7 9f    	mov.w     w0, [w15-64]

0000147a <.L133>:
    147a:	14 c0 b3    	mov.b     #0x1, w4
    147c:	c5 07 23    	mov.w     #0x307c, w5
    147e:	0b 00 37    	bra       0x1496 <.L136>

00001480 <.L137>:
    1480:	04 00 fb    	se        w4, w0
    1482:	43 00 dd    	sl.w      w0, #0x3, w0
    1484:	05 00 40    	add.w     w0, w5, w0
    1486:	50 01 be    	mov.d     [++w0], w2
    1488:	40 00 be    	mov.d     [--w0], w0
    148a:	00 40 e1    	cp.w      w8, w0
    148c:	01 c8 e1    	cpb.w     w9, w1
    148e:	02 d0 e1    	cpb.w     w10, w2
    1490:	03 d8 e1    	cpb.w     w11, w3
    1492:	03 00 39    	bra       NC, 0x149a <.L348>
    1494:	04 42 e8    	inc.b     w4, w4

00001496 <.L136>:
    1496:	f4 4f 52    	sub.b     w4, #0x14, [w15]
    1498:	f3 ff 3a    	bra       NZ, 0x1480 <.L137>

0000149a <.L348>:
    149a:	c4 7f 9f    	mov.b     w4, [w15-68]
    149c:	04 00 fb    	se        w4, w0
    149e:	bf b0 97    	mov.w     [w15-26], w1
    14a0:	00 80 40    	add.w     w1, w0, w0
    14a2:	8f a0 97    	mov.w     [w15-64], w1
    14a4:	01 00 40    	add.w     w0, w1, w0
    14a6:	4f b1 97    	mov.w     [w15-24], w2
    14a8:	00 07 51    	sub.w     w2, w0, w14
    14aa:	bf b1 97    	mov.w     [w15-26], w3
    14ac:	03 00 e0    	cp0.w     w3
    14ae:	01 00 32    	bra       Z, 0x14b2 <.L142>
    14b0:	0e 07 e9    	dec.w     w14, w14

000014b2 <.L142>:
    14b2:	63 80 66    	and.w     w13, #0x3, w0
    14b4:	01 00 32    	bra       Z, 0x14b8 <.L144>
    14b6:	0e 07 e9    	dec.w     w14, w14

000014b8 <.L144>:
    14b8:	0d 28 a3    	btst.z    w13, #0x2
    14ba:	26 00 32    	bra       Z, 0x1508 <.L146>
    14bc:	e1 80 66    	and.w     w13, #0x1, w1
    14be:	0d 18 a3    	btst.z    w13, #0x1
    14c0:	0c 00 32    	bra       Z, 0x14da <.L148>
    14c2:	d0 02 20    	mov.w     #0x2d, w0
    14c4:	01 00 e0    	cp0.w     w1
    14c6:	01 00 3a    	bra       NZ, 0x14ca <.L152>
    14c8:	00 80 e9    	dec2.w    w0, w0

000014ca <.L152>:
    14ca:	ef b0 97    	mov.w     [w15-20], w1
    14cc:	71 02 07    	rcall     0x19b0 <_fputc>
    14ce:	e1 0f 40    	add.w     w0, #0x1, [w15]
    14d0:	18 00 32    	bra       Z, 0x1502 <.L331>
    14d2:	2f b2 97    	mov.w     [w15-28], w4
    14d4:	04 02 e8    	inc.w     w4, w4
    14d6:	a4 b7 9f    	mov.w     w4, [w15-28]
    14d8:	14 00 37    	bra       0x1502 <.L331>

000014da <.L148>:
    14da:	01 00 e0    	cp0.w     w1
    14dc:	12 00 32    	bra       Z, 0x1502 <.L331>
    14de:	ef b0 97    	mov.w     [w15-20], w1
    14e0:	00 02 20    	mov.w     #0x20, w0
    14e2:	66 02 07    	rcall     0x19b0 <_fputc>
    14e4:	e1 0f 40    	add.w     w0, #0x1, [w15]
    14e6:	0d 00 32    	bra       Z, 0x1502 <.L331>
    14e8:	af b2 97    	mov.w     [w15-28], w5
    14ea:	85 02 e8    	inc.w     w5, w5
    14ec:	a5 b7 9f    	mov.w     w5, [w15-28]
    14ee:	09 00 37    	bra       0x1502 <.L331>

000014f0 <.L157>:
    14f0:	ef b0 97    	mov.w     [w15-20], w1
    14f2:	00 03 20    	mov.w     #0x30, w0
    14f4:	5d 02 07    	rcall     0x19b0 <_fputc>
    14f6:	e1 0f 40    	add.w     w0, #0x1, [w15]
    14f8:	03 00 32    	bra       Z, 0x1500 <.L158>
    14fa:	2f b6 97    	mov.w     [w15-28], w12
    14fc:	0c 06 e8    	inc.w     w12, w12
    14fe:	ac b7 9f    	mov.w     w12, [w15-28]

00001500 <.L158>:
    1500:	0e 07 e9    	dec.w     w14, w14

00001502 <.L331>:
    1502:	0e 00 e0    	cp0.w     w14
    1504:	f5 ff 3c    	bra       GT, 0x14f0 <.L157>
    1506:	3d 00 37    	bra       0x1582 <.L355>

00001508 <.L146>:
    1508:	0d 38 a3    	btst.z    w13, #0x3
    150a:	0a 00 32    	bra       Z, 0x1520 <.L332>
    150c:	0b 00 37    	bra       0x1524 <.L162>

0000150e <.L163>:
    150e:	ef b0 97    	mov.w     [w15-20], w1
    1510:	00 02 20    	mov.w     #0x20, w0
    1512:	4e 02 07    	rcall     0x19b0 <_fputc>
    1514:	e1 0f 40    	add.w     w0, #0x1, [w15]
    1516:	03 00 32    	bra       Z, 0x151e <.L164>
    1518:	2f b0 97    	mov.w     [w15-28], w0
    151a:	00 00 e8    	inc.w     w0, w0
    151c:	a0 b7 9f    	mov.w     w0, [w15-28]

0000151e <.L164>:
    151e:	0e 07 e9    	dec.w     w14, w14

00001520 <.L332>:
    1520:	0e 00 e0    	cp0.w     w14
    1522:	f5 ff 3c    	bra       GT, 0x150e <.L163>

00001524 <.L162>:
    1524:	e1 80 66    	and.w     w13, #0x1, w1
    1526:	0d 18 a3    	btst.z    w13, #0x1
    1528:	0c 00 32    	bra       Z, 0x1542 <.L166>
    152a:	d0 02 20    	mov.w     #0x2d, w0
    152c:	01 00 e0    	cp0.w     w1
    152e:	01 00 3a    	bra       NZ, 0x1532 <.L170>
    1530:	00 80 e9    	dec2.w    w0, w0

00001532 <.L170>:
    1532:	ef b0 97    	mov.w     [w15-20], w1
    1534:	3d 02 07    	rcall     0x19b0 <_fputc>
    1536:	e1 0f 40    	add.w     w0, #0x1, [w15]
    1538:	24 00 32    	bra       Z, 0x1582 <.L355>
    153a:	af b0 97    	mov.w     [w15-28], w1
    153c:	81 00 e8    	inc.w     w1, w1
    153e:	a1 b7 9f    	mov.w     w1, [w15-28]
    1540:	20 00 37    	bra       0x1582 <.L355>

00001542 <.L166>:
    1542:	01 00 e0    	cp0.w     w1
    1544:	1e 00 32    	bra       Z, 0x1582 <.L355>
    1546:	ef b0 97    	mov.w     [w15-20], w1
    1548:	00 02 20    	mov.w     #0x20, w0
    154a:	32 02 07    	rcall     0x19b0 <_fputc>
    154c:	e1 0f 40    	add.w     w0, #0x1, [w15]
    154e:	19 00 32    	bra       Z, 0x1582 <.L355>
    1550:	2f b1 97    	mov.w     [w15-28], w2
    1552:	02 01 e8    	inc.w     w2, w2
    1554:	a2 b7 9f    	mov.w     w2, [w15-28]
    1556:	15 00 37    	bra       0x1582 <.L355>

00001558 <.L174>:
    1558:	00 00 fb    	se        w0, w0
    155a:	43 00 dd    	sl.w      w0, #0x3, w0
    155c:	c1 07 23    	mov.w     #0x307c, w1
    155e:	01 00 40    	add.w     w0, w1, w0
    1560:	30 02 be    	mov.d     [w0++], w4
    1562:	20 03 be    	mov.d     [w0--], w6
    1564:	08 00 be    	mov.d     w8, w0
    1566:	0a 01 be    	mov.d     w10, w2
    1568:	30 fb 07    	rcall     0xbca <___udivdi3>
    156a:	a4 00 20    	mov.w     #0xa, w4
    156c:	05 00 20    	mov.w     #0x0, w5
    156e:	60 33 b8    	mul.uu    w6, #0x0, w6
    1570:	33 fb 07    	rcall     0xbd8 <___umoddi3>
    1572:	00 03 b0    	add.w     #0x30, w0
    1574:	ef b0 97    	mov.w     [w15-20], w1
    1576:	1c 02 07    	rcall     0x19b0 <_fputc>
    1578:	e1 0f 40    	add.w     w0, #0x1, [w15]
    157a:	03 00 32    	bra       Z, 0x1582 <.L355>
    157c:	af b1 97    	mov.w     [w15-28], w3
    157e:	83 01 e8    	inc.w     w3, w3
    1580:	a3 b7 9f    	mov.w     w3, [w15-28]

00001582 <.L355>:
    1582:	4f 7a 97    	mov.b     [w15-68], w4
    1584:	04 40 e9    	dec.b     w4, w0
    1586:	c0 7f 9f    	mov.b     w0, [w15-68]
    1588:	e1 4f 40    	add.b     w0, #0x1, [w15]
    158a:	e6 ff 3a    	bra       NZ, 0x1558 <.L174>
    158c:	0b 00 37    	bra       0x15a4 <.L334>

0000158e <.L177>:
    158e:	ef b0 97    	mov.w     [w15-20], w1
    1590:	00 03 20    	mov.w     #0x30, w0
    1592:	0e 02 07    	rcall     0x19b0 <_fputc>
    1594:	e1 0f 40    	add.w     w0, #0x1, [w15]
    1596:	03 00 32    	bra       Z, 0x159e <.L178>
    1598:	af b2 97    	mov.w     [w15-28], w5
    159a:	85 02 e8    	inc.w     w5, w5
    159c:	a5 b7 9f    	mov.w     w5, [w15-28]

0000159e <.L178>:
    159e:	0f a0 97    	mov.w     [w15-64], w0
    15a0:	00 00 e9    	dec.w     w0, w0
    15a2:	80 a7 9f    	mov.w     w0, [w15-64]

000015a4 <.L334>:
    15a4:	0f a0 97    	mov.w     [w15-64], w0
    15a6:	00 00 e0    	cp0.w     w0
    15a8:	f2 ff 3c    	bra       GT, 0x158e <.L177>
    15aa:	3f b6 97    	mov.w     [w15-26], w12
    15ac:	20 c1 b3    	mov.b     #0x12, w0
    15ae:	f2 0f 56    	sub.w     w12, #0x12, [w15]
    15b0:	01 00 3c    	bra       GT, 0x15b4 <.L349>
    15b2:	6f e0 97    	mov.b     [w15-26], w0

000015b4 <.L349>:
    15b4:	c0 7f 9f    	mov.b     w0, [w15-68]
    15b6:	cf 78 97    	mov.b     [w15-68], w1
    15b8:	01 00 fb    	se        w1, w0
    15ba:	3f b1 97    	mov.w     [w15-26], w2
    15bc:	00 00 51    	sub.w     w2, w0, w0
    15be:	e0 a7 9f    	mov.w     w0, [w15-52]
    15c0:	01 04 e0    	cp0.b     w1
    15c2:	08 00 32    	bra       Z, 0x15d4 <.L184>
    15c4:	ef b0 97    	mov.w     [w15-20], w1
    15c6:	e0 02 20    	mov.w     #0x2e, w0
    15c8:	f3 01 07    	rcall     0x19b0 <_fputc>
    15ca:	e1 0f 40    	add.w     w0, #0x1, [w15]
    15cc:	03 00 32    	bra       Z, 0x15d4 <.L184>
    15ce:	af b1 97    	mov.w     [w15-28], w3
    15d0:	83 01 e8    	inc.w     w3, w3
    15d2:	a3 b7 9f    	mov.w     w3, [w15-28]

000015d4 <.L184>:
    15d4:	4f 78 97    	mov.b     [w15-68], w0
    15d6:	97 fc 07    	rcall     0xf06 <_scale>
    15d8:	00 02 be    	mov.d     w0, w4
    15da:	02 03 be    	mov.d     w2, w6
    15dc:	2f a0 97    	mov.w     [w15-60], w0
    15de:	bf a0 97    	mov.w     [w15-58], w1
    15e0:	4f a1 97    	mov.w     [w15-56], w2
    15e2:	df a1 97    	mov.w     [w15-54], w3
    15e4:	66 f8 07    	rcall     0x6b2 <___muldf3>
    15e6:	b3 f9 07    	rcall     0x94e <___fixunsdfdi>
    15e8:	1e 00 37    	bra       0x1626 <.L350>

000015ea <.L188>:
    15ea:	00 00 fb    	se        w0, w0
    15ec:	43 00 dd    	sl.w      w0, #0x3, w0
    15ee:	cc 07 23    	mov.w     #0x307c, w12
    15f0:	0c 00 40    	add.w     w0, w12, w0
    15f2:	30 02 be    	mov.d     [w0++], w4
    15f4:	20 03 be    	mov.d     [w0--], w6
    15f6:	08 00 be    	mov.d     w8, w0
    15f8:	0a 01 be    	mov.d     w10, w2
    15fa:	e7 fa 07    	rcall     0xbca <___udivdi3>
    15fc:	a4 00 20    	mov.w     #0xa, w4
    15fe:	05 00 20    	mov.w     #0x0, w5
    1600:	60 33 b8    	mul.uu    w6, #0x0, w6
    1602:	ea fa 07    	rcall     0xbd8 <___umoddi3>
    1604:	00 03 b0    	add.w     #0x30, w0
    1606:	ef b0 97    	mov.w     [w15-20], w1
    1608:	d3 01 07    	rcall     0x19b0 <_fputc>
    160a:	e1 0f 40    	add.w     w0, #0x1, [w15]
    160c:	03 00 32    	bra       Z, 0x1614 <.L189>
    160e:	2f b2 97    	mov.w     [w15-28], w4
    1610:	04 02 e8    	inc.w     w4, w4
    1612:	a4 b7 9f    	mov.w     w4, [w15-28]

00001614 <.L189>:
    1614:	cf 7a 97    	mov.b     [w15-68], w5
    1616:	05 00 fb    	se        w5, w0
    1618:	43 00 dd    	sl.w      w0, #0x3, w0
    161a:	0c 00 40    	add.w     w0, w12, w0
    161c:	30 02 be    	mov.d     [w0++], w4
    161e:	20 03 be    	mov.d     [w0--], w6
    1620:	08 00 be    	mov.d     w8, w0
    1622:	0a 01 be    	mov.d     w10, w2
    1624:	d9 fa 07    	rcall     0xbd8 <___umoddi3>

00001626 <.L350>:
    1626:	02 05 be    	mov.d     w2, w10
    1628:	00 04 be    	mov.d     w0, w8
    162a:	4f 7e 97    	mov.b     [w15-68], w12
    162c:	0c 40 e9    	dec.b     w12, w0
    162e:	c0 7f 9f    	mov.b     w0, [w15-68]
    1630:	e1 4f 40    	add.b     w0, #0x1, [w15]
    1632:	db ff 3a    	bra       NZ, 0x15ea <.L188>
    1634:	00 06 eb    	clr.w     w12
    1636:	09 00 37    	bra       0x164a <.L192>

00001638 <.L193>:
    1638:	ef b0 97    	mov.w     [w15-20], w1
    163a:	00 03 20    	mov.w     #0x30, w0
    163c:	b9 01 07    	rcall     0x19b0 <_fputc>
    163e:	e1 0f 40    	add.w     w0, #0x1, [w15]
    1640:	03 00 32    	bra       Z, 0x1648 <.L194>
    1642:	2f b0 97    	mov.w     [w15-28], w0
    1644:	00 00 e8    	inc.w     w0, w0
    1646:	a0 b7 9f    	mov.w     w0, [w15-28]

00001648 <.L194>:
    1648:	0c 06 e8    	inc.w     w12, w12

0000164a <.L192>:
    164a:	ef a0 97    	mov.w     [w15-52], w1
    164c:	81 0f 56    	sub.w     w12, w1, [w15]
    164e:	f4 ff 3a    	bra       NZ, 0x1638 <.L193>
    1650:	0d 38 a3    	btst.z    w13, #0x3
    1652:	a1 01 32    	bra       Z, 0x1996 <.L356>
    1654:	0e 00 e0    	cp0.w     w14
    1656:	9f 01 34    	bra       LE, 0x1996 <.L356>
    1658:	00 06 eb    	clr.w     w12

0000165a <.L199>:
    165a:	ef b0 97    	mov.w     [w15-20], w1
    165c:	00 02 20    	mov.w     #0x20, w0
    165e:	a8 01 07    	rcall     0x19b0 <_fputc>
    1660:	e1 0f 40    	add.w     w0, #0x1, [w15]
    1662:	03 00 32    	bra       Z, 0x166a <.L200>
    1664:	2f b1 97    	mov.w     [w15-28], w2
    1666:	02 01 e8    	inc.w     w2, w2
    1668:	a2 b7 9f    	mov.w     w2, [w15-28]

0000166a <.L200>:
    166a:	0c 06 e8    	inc.w     w12, w12
    166c:	8e 0f 56    	sub.w     w12, w14, [w15]
    166e:	93 01 32    	bra       Z, 0x1996 <.L356>
    1670:	f4 ff 37    	bra       0x165a <.L199>

00001672 <.L96>:
    1672:	0d 00 78    	mov.w     w13, w0
    1674:	00 0c b2    	and.w     #0xc0, w0
    1676:	28 00 3a    	bra       NZ, 0x16c8 <.L202>
    1678:	0d 00 e0    	cp0.w     w13
    167a:	05 00 3d    	bra       GE, 0x1686 <.L204>
    167c:	8f b9 97    	mov.w     [w15-16], w3
    167e:	43 05 be    	mov.d     [--w3], w10
    1680:	43 04 be    	mov.d     [--w3], w8
    1682:	83 bf 9f    	mov.w     w3, [w15-16]
    1684:	14 00 37    	bra       0x16ae <.L206>

00001686 <.L204>:
    1686:	0d 48 a3    	btst.z    w13, #0x4
    1688:	0b 00 32    	bra       Z, 0x16a0 <.L207>
    168a:	0f ba 97    	mov.w     [w15-16], w4
    168c:	44 00 be    	mov.d     [--w4], w0
    168e:	84 bf 9f    	mov.w     w4, [w15-16]
    1690:	4f 89 de    	asr.w     w1, #0xf, w2
    1692:	cf 91 de    	asr.w     w2, #0xf, w3
    1694:	00 02 be    	mov.d     w0, w4
    1696:	02 03 78    	mov.w     w2, w6
    1698:	82 03 78    	mov.w     w2, w7
    169a:	06 05 be    	mov.d     w6, w10
    169c:	04 04 be    	mov.d     w4, w8
    169e:	07 00 37    	bra       0x16ae <.L206>

000016a0 <.L207>:
    16a0:	8f ba 97    	mov.w     [w15-16], w5
    16a2:	45 00 78    	mov.w     [--w5], w0
    16a4:	85 bf 9f    	mov.w     w5, [w15-16]
    16a6:	00 04 78    	mov.w     w0, w8
    16a8:	cf c4 de    	asr.w     w8, #0xf, w9
    16aa:	09 05 78    	mov.w     w9, w10
    16ac:	8a 05 78    	mov.w     w10, w11

000016ae <.L206>:
    16ae:	e0 0f 54    	sub.w     w8, #0x0, [w15]
    16b0:	e0 8f 5c    	subb.w    w9, #0x0, [w15]
    16b2:	e0 0f 5d    	subb.w    w10, #0x0, [w15]
    16b4:	e0 8f 5d    	subb.w    w11, #0x0, [w15]
    16b6:	20 00 3d    	bra       GE, 0x16f8 <.L209>
    16b8:	3d 00 b3    	ior.w     #0x3, w13
    16ba:	60 00 b8    	mul.uu    w0, #0x0, w0
    16bc:	60 11 b8    	mul.uu    w2, #0x0, w2
    16be:	08 04 50    	sub.w     w0, w8, w8
    16c0:	89 84 58    	subb.w    w1, w9, w9
    16c2:	0a 05 59    	subb.w    w2, w10, w10
    16c4:	8b 85 59    	subb.w    w3, w11, w11
    16c6:	18 00 37    	bra       0x16f8 <.L209>

000016c8 <.L202>:
    16c8:	0d 00 e0    	cp0.w     w13
    16ca:	05 00 3d    	bra       GE, 0x16d6 <.L211>
    16cc:	0f be 97    	mov.w     [w15-16], w12
    16ce:	4c 05 be    	mov.d     [--w12], w10
    16d0:	4c 04 be    	mov.d     [--w12], w8
    16d2:	8c bf 9f    	mov.w     w12, [w15-16]
    16d4:	11 00 37    	bra       0x16f8 <.L209>

000016d6 <.L211>:
    16d6:	0d 48 a3    	btst.z    w13, #0x4
    16d8:	08 00 32    	bra       Z, 0x16ea <.L213>
    16da:	8f ba 97    	mov.w     [w15-16], w5
    16dc:	45 00 be    	mov.d     [--w5], w0
    16de:	85 bf 9f    	mov.w     w5, [w15-16]
    16e0:	04 01 78    	mov.w     w4, w2
    16e2:	84 01 78    	mov.w     w4, w3
    16e4:	02 05 be    	mov.d     w2, w10
    16e6:	00 04 be    	mov.d     w0, w8
    16e8:	07 00 37    	bra       0x16f8 <.L209>

000016ea <.L213>:
    16ea:	0f be 97    	mov.w     [w15-16], w12
    16ec:	4c 00 78    	mov.w     [--w12], w0
    16ee:	8c bf 9f    	mov.w     w12, [w15-16]
    16f0:	00 04 78    	mov.w     w0, w8
    16f2:	09 00 20    	mov.w     #0x0, w9
    16f4:	0a 00 20    	mov.w     #0x0, w10
    16f6:	0b 00 20    	mov.w     #0x0, w11

000016f8 <.L209>:
    16f8:	3f b0 97    	mov.w     [w15-26], w0
    16fa:	00 00 e0    	cp0.w     w0
    16fc:	07 00 3a    	bra       NZ, 0x170c <.L215>
    16fe:	e0 0f 54    	sub.w     w8, #0x0, [w15]
    1700:	e0 8f 5c    	subb.w    w9, #0x0, [w15]
    1702:	e0 0f 5d    	subb.w    w10, #0x0, [w15]
    1704:	e0 8f 5d    	subb.w    w11, #0x0, [w15]
    1706:	02 00 3a    	bra       NZ, 0x170c <.L215>
    1708:	11 00 20    	mov.w     #0x1, w1
    170a:	b1 b7 9f    	mov.w     w1, [w15-26]

0000170c <.L215>:
    170c:	0d 07 78    	mov.w     w13, w14
    170e:	0e 0c b2    	and.w     #0xc0, w14
    1710:	00 04 20    	mov.w     #0x40, w0
    1712:	80 0f 57    	sub.w     w14, w0, [w15]
    1714:	2f 00 32    	bra       Z, 0x1774 <.L221>
    1716:	03 00 3c    	bra       GT, 0x171e <.L223>
    1718:	0e 00 e0    	cp0.w     w14
    171a:	07 00 32    	bra       Z, 0x172a <.L220>
    171c:	3f 00 37    	bra       0x179c <.L219>

0000171e <.L223>:
    171e:	00 08 20    	mov.w     #0x80, w0
    1720:	80 0f 57    	sub.w     w14, w0, [w15]
    1722:	14 00 32    	bra       Z, 0x174c <.L222>
    1724:	00 0c 20    	mov.w     #0xc0, w0
    1726:	80 0f 57    	sub.w     w14, w0, [w15]
    1728:	39 00 3a    	bra       NZ, 0x179c <.L219>

0000172a <.L220>:
    172a:	14 c0 b3    	mov.b     #0x1, w4
    172c:	c5 07 23    	mov.w     #0x307c, w5
    172e:	0b 00 37    	bra       0x1746 <.L224>

00001730 <.L225>:
    1730:	04 00 fb    	se        w4, w0
    1732:	43 00 dd    	sl.w      w0, #0x3, w0
    1734:	05 00 40    	add.w     w0, w5, w0
    1736:	50 01 be    	mov.d     [++w0], w2
    1738:	40 00 be    	mov.d     [--w0], w0
    173a:	00 40 e1    	cp.w      w8, w0
    173c:	01 c8 e1    	cpb.w     w9, w1
    173e:	02 d0 e1    	cpb.w     w10, w2
    1740:	03 d8 e1    	cpb.w     w11, w3
    1742:	2b 00 39    	bra       NC, 0x179a <.L351>
    1744:	04 42 e8    	inc.b     w4, w4

00001746 <.L224>:
    1746:	f4 4f 52    	sub.b     w4, #0x14, [w15]
    1748:	f3 ff 3a    	bra       NZ, 0x1730 <.L225>
    174a:	27 00 37    	bra       0x179a <.L351>

0000174c <.L222>:
    174c:	00 01 20    	mov.w     #0x10, w0
    174e:	01 00 20    	mov.w     #0x0, w1
    1750:	60 11 b8    	mul.uu    w2, #0x0, w2
    1752:	14 c0 b3    	mov.b     #0x1, w4

00001754 <.L229>:
    1754:	00 40 e1    	cp.w      w8, w0
    1756:	01 c8 e1    	cpb.w     w9, w1
    1758:	02 d0 e1    	cpb.w     w10, w2
    175a:	03 d8 e1    	cpb.w     w11, w3
    175c:	1e 00 39    	bra       NC, 0x179a <.L351>
    175e:	45 00 20    	mov.w     #0x4, w5

00001760 <.LB1383>:
    1760:	00 00 d0    	sl.w      w0, w0
    1762:	81 80 d2    	rlc.w     w1, w1
    1764:	02 81 d2    	rlc.w     w2, w2
    1766:	83 81 d2    	rlc.w     w3, w3
    1768:	85 02 e9    	dec.w     w5, w5
    176a:	fa ff 3a    	bra       NZ, 0x1760 <.LB1383>
    176c:	04 42 e8    	inc.b     w4, w4
    176e:	f0 4f 52    	sub.b     w4, #0x10, [w15]
    1770:	f1 ff 3a    	bra       NZ, 0x1754 <.L229>
    1772:	13 00 37    	bra       0x179a <.L351>

00001774 <.L221>:
    1774:	80 00 20    	mov.w     #0x8, w0
    1776:	01 00 20    	mov.w     #0x0, w1
    1778:	60 11 b8    	mul.uu    w2, #0x0, w2
    177a:	14 c0 b3    	mov.b     #0x1, w4

0000177c <.L233>:
    177c:	00 40 e1    	cp.w      w8, w0
    177e:	01 c8 e1    	cpb.w     w9, w1
    1780:	02 d0 e1    	cpb.w     w10, w2
    1782:	03 d8 e1    	cpb.w     w11, w3
    1784:	0a 00 39    	bra       NC, 0x179a <.L351>
    1786:	3c 00 20    	mov.w     #0x3, w12

00001788 <.LB1401>:
    1788:	00 00 d0    	sl.w      w0, w0
    178a:	81 80 d2    	rlc.w     w1, w1
    178c:	02 81 d2    	rlc.w     w2, w2
    178e:	83 81 d2    	rlc.w     w3, w3
    1790:	0c 06 e9    	dec.w     w12, w12
    1792:	fa ff 3a    	bra       NZ, 0x1788 <.LB1401>
    1794:	04 42 e8    	inc.b     w4, w4
    1796:	f5 4f 52    	sub.b     w4, #0x15, [w15]
    1798:	f1 ff 3a    	bra       NZ, 0x177c <.L233>

0000179a <.L351>:
    179a:	c4 7f 9f    	mov.b     w4, [w15-68]

0000179c <.L219>:
    179c:	cf 78 97    	mov.b     [w15-68], w1
    179e:	01 00 fb    	se        w1, w0
    17a0:	3f b1 97    	mov.w     [w15-26], w2
    17a2:	82 0f 50    	sub.w     w0, w2, [w15]
    17a4:	02 00 3d    	bra       GE, 0x17aa <.L237>
    17a6:	c2 7f 9f    	mov.b     w2, [w15-68]
    17a8:	04 00 37    	bra       0x17b2 <.L239>

000017aa <.L237>:
    17aa:	bf b1 97    	mov.w     [w15-26], w3
    17ac:	80 8f 51    	sub.w     w3, w0, [w15]
    17ae:	01 00 3d    	bra       GE, 0x17b2 <.L239>
    17b0:	b0 b7 9f    	mov.w     w0, [w15-26]

000017b2 <.L239>:
    17b2:	4f b2 97    	mov.w     [w15-24], w4
    17b4:	04 00 e0    	cp0.w     w4
    17b6:	04 00 32    	bra       Z, 0x17c0 <.L241>
    17b8:	63 80 66    	and.w     w13, #0x3, w0
    17ba:	02 00 32    	bra       Z, 0x17c0 <.L241>
    17bc:	04 02 e9    	dec.w     w4, w4
    17be:	c4 b7 9f    	mov.w     w4, [w15-24]

000017c0 <.L241>:
    17c0:	0d e8 a3    	btst.z    w13, #0xe
    17c2:	0b 00 32    	bra       Z, 0x17da <.L244>
    17c4:	cf b2 97    	mov.w     [w15-24], w5
    17c6:	3f b6 97    	mov.w     [w15-26], w12
    17c8:	8c 8f 52    	sub.w     w5, w12, [w15]
    17ca:	03 00 3c    	bra       GT, 0x17d2 <.L246>
    17cc:	00 00 eb    	clr.w     w0
    17ce:	c0 b7 9f    	mov.w     w0, [w15-24]
    17d0:	04 00 37    	bra       0x17da <.L244>

000017d2 <.L246>:
    17d2:	cf b0 97    	mov.w     [w15-24], w1
    17d4:	3f b1 97    	mov.w     [w15-26], w2
    17d6:	82 80 50    	sub.w     w1, w2, w1
    17d8:	c1 b7 9f    	mov.w     w1, [w15-24]

000017da <.L244>:
    17da:	cf 79 97    	mov.b     [w15-68], w3
    17dc:	03 00 fb    	se        w3, w0
    17de:	00 02 eb    	clr.w     w4
    17e0:	94 a7 9f    	mov.w     w4, [w15-62]
    17e2:	cf b2 97    	mov.w     [w15-24], w5
    17e4:	80 8f 52    	sub.w     w5, w0, [w15]
    17e6:	02 00 34    	bra       LE, 0x17ec <.L250>
    17e8:	00 80 52    	sub.w     w5, w0, w0
    17ea:	90 a7 9f    	mov.w     w0, [w15-62]

000017ec <.L250>:
    17ec:	0d 28 a3    	btst.z    w13, #0x2
    17ee:	37 00 32    	bra       Z, 0x185e <.L251>
    17f0:	e1 80 66    	and.w     w13, #0x1, w1
    17f2:	0d 18 a3    	btst.z    w13, #0x1
    17f4:	0c 00 32    	bra       Z, 0x180e <.L253>
    17f6:	d0 02 20    	mov.w     #0x2d, w0
    17f8:	01 00 e0    	cp0.w     w1
    17fa:	01 00 3a    	bra       NZ, 0x17fe <.L257>
    17fc:	00 80 e9    	dec2.w    w0, w0

000017fe <.L257>:
    17fe:	ef b0 97    	mov.w     [w15-20], w1
    1800:	d7 00 07    	rcall     0x19b0 <_fputc>
    1802:	e1 0f 40    	add.w     w0, #0x1, [w15]
    1804:	0e 00 32    	bra       Z, 0x1822 <.L258>
    1806:	2f b6 97    	mov.w     [w15-28], w12
    1808:	0c 06 e8    	inc.w     w12, w12
    180a:	ac b7 9f    	mov.w     w12, [w15-28]
    180c:	0a 00 37    	bra       0x1822 <.L258>

0000180e <.L253>:
    180e:	01 00 e0    	cp0.w     w1
    1810:	08 00 32    	bra       Z, 0x1822 <.L258>
    1812:	ef b0 97    	mov.w     [w15-20], w1
    1814:	00 02 20    	mov.w     #0x20, w0
    1816:	cc 00 07    	rcall     0x19b0 <_fputc>
    1818:	e1 0f 40    	add.w     w0, #0x1, [w15]
    181a:	03 00 32    	bra       Z, 0x1822 <.L258>
    181c:	2f b0 97    	mov.w     [w15-28], w0
    181e:	00 00 e8    	inc.w     w0, w0
    1820:	a0 b7 9f    	mov.w     w0, [w15-28]

00001822 <.L258>:
    1822:	9f a0 97    	mov.w     [w15-62], w1
    1824:	01 00 e0    	cp0.w     w1
    1826:	0f 00 32    	bra       Z, 0x1846 <.L262>
    1828:	00 06 eb    	clr.w     w12

0000182a <.L264>:
    182a:	ef b0 97    	mov.w     [w15-20], w1
    182c:	00 03 20    	mov.w     #0x30, w0
    182e:	c0 00 07    	rcall     0x19b0 <_fputc>
    1830:	e1 0f 40    	add.w     w0, #0x1, [w15]
    1832:	03 00 32    	bra       Z, 0x183a <.L265>
    1834:	2f b1 97    	mov.w     [w15-28], w2
    1836:	02 01 e8    	inc.w     w2, w2
    1838:	a2 b7 9f    	mov.w     w2, [w15-28]

0000183a <.L265>:
    183a:	0c 06 e8    	inc.w     w12, w12
    183c:	9f a1 97    	mov.w     [w15-62], w3
    183e:	83 0f 56    	sub.w     w12, w3, [w15]
    1840:	f4 ff 3a    	bra       NZ, 0x182a <.L264>
    1842:	00 02 eb    	clr.w     w4
    1844:	94 a7 9f    	mov.w     w4, [w15-62]

00001846 <.L262>:
    1846:	bf b2 97    	mov.w     [w15-26], w5
    1848:	c3 28 dd    	sl.w      w5, #0x3, w1
    184a:	40 07 23    	mov.w     #0x3074, w0
    184c:	80 80 40    	add.w     w1, w0, w1
    184e:	91 af 9f    	mov.w     w1, [w15-46]
    1850:	42 28 dd    	sl.w      w5, #0x2, w0
    1852:	64 00 50    	sub.w     w0, #0x4, w0
    1854:	80 af 9f    	mov.w     w0, [w15-48]
    1856:	63 28 b9    	mul.su    w5, #0x3, w0
    1858:	f0 a7 9f    	mov.w     w0, [w15-50]
    185a:	63 06 50    	sub.w     w0, #0x3, w12
    185c:	82 00 37    	bra       0x1962 <.L268>

0000185e <.L251>:
    185e:	1f a6 97    	mov.w     [w15-62], w12
    1860:	0c 00 e0    	cp0.w     w12
    1862:	11 00 32    	bra       Z, 0x1886 <.L269>
    1864:	68 80 66    	and.w     w13, #0x8, w0
    1866:	0f 00 3a    	bra       NZ, 0x1886 <.L269>
    1868:	00 06 78    	mov.w     w0, w12

0000186a <.L272>:
    186a:	ef b0 97    	mov.w     [w15-20], w1
    186c:	00 02 20    	mov.w     #0x20, w0
    186e:	a0 00 07    	rcall     0x19b0 <_fputc>
    1870:	e1 0f 40    	add.w     w0, #0x1, [w15]
    1872:	03 00 32    	bra       Z, 0x187a <.L273>
    1874:	2f b0 97    	mov.w     [w15-28], w0
    1876:	00 00 e8    	inc.w     w0, w0
    1878:	a0 b7 9f    	mov.w     w0, [w15-28]

0000187a <.L273>:
    187a:	0c 06 e8    	inc.w     w12, w12
    187c:	9f a0 97    	mov.w     [w15-62], w1
    187e:	81 0f 56    	sub.w     w12, w1, [w15]
    1880:	f4 ff 3a    	bra       NZ, 0x186a <.L272>
    1882:	00 01 eb    	clr.w     w2
    1884:	92 a7 9f    	mov.w     w2, [w15-62]

00001886 <.L269>:
    1886:	e1 80 66    	and.w     w13, #0x1, w1
    1888:	0d 18 a3    	btst.z    w13, #0x1
    188a:	0c 00 32    	bra       Z, 0x18a4 <.L276>
    188c:	d0 02 20    	mov.w     #0x2d, w0
    188e:	01 00 e0    	cp0.w     w1
    1890:	01 00 3a    	bra       NZ, 0x1894 <.L280>
    1892:	00 80 e9    	dec2.w    w0, w0

00001894 <.L280>:
    1894:	ef b0 97    	mov.w     [w15-20], w1
    1896:	8c 00 07    	rcall     0x19b0 <_fputc>
    1898:	e1 0f 40    	add.w     w0, #0x1, [w15]
    189a:	d5 ff 32    	bra       Z, 0x1846 <.L262>
    189c:	af b1 97    	mov.w     [w15-28], w3
    189e:	83 01 e8    	inc.w     w3, w3
    18a0:	a3 b7 9f    	mov.w     w3, [w15-28]
    18a2:	d1 ff 37    	bra       0x1846 <.L262>

000018a4 <.L276>:
    18a4:	01 00 e0    	cp0.w     w1
    18a6:	cf ff 32    	bra       Z, 0x1846 <.L262>
    18a8:	ef b0 97    	mov.w     [w15-20], w1
    18aa:	00 02 20    	mov.w     #0x20, w0
    18ac:	81 00 07    	rcall     0x19b0 <_fputc>
    18ae:	e1 0f 40    	add.w     w0, #0x1, [w15]
    18b0:	ca ff 32    	bra       Z, 0x1846 <.L262>
    18b2:	2f b2 97    	mov.w     [w15-28], w4
    18b4:	04 02 e8    	inc.w     w4, w4
    18b6:	a4 b7 9f    	mov.w     w4, [w15-28]
    18b8:	c6 ff 37    	bra       0x1846 <.L262>

000018ba <.L284>:
    18ba:	00 04 20    	mov.w     #0x40, w0
    18bc:	80 0f 57    	sub.w     w14, w0, [w15]
    18be:	30 00 32    	bra       Z, 0x1920 <.L287>
    18c0:	03 00 3c    	bra       GT, 0x18c8 <.L289>
    18c2:	0e 00 e0    	cp0.w     w14
    18c4:	07 00 32    	bra       Z, 0x18d4 <.L286>
    18c6:	3d 00 37    	bra       0x1942 <.L285>

000018c8 <.L289>:
    18c8:	00 08 20    	mov.w     #0x80, w0
    18ca:	80 0f 57    	sub.w     w14, w0, [w15]
    18cc:	11 00 32    	bra       Z, 0x18f0 <.L288>
    18ce:	00 0c 20    	mov.w     #0xc0, w0
    18d0:	80 0f 57    	sub.w     w14, w0, [w15]
    18d2:	37 00 3a    	bra       NZ, 0x1942 <.L285>

000018d4 <.L286>:
    18d4:	1f a8 97    	mov.w     [w15-46], w0
    18d6:	30 02 be    	mov.d     [w0++], w4
    18d8:	20 03 be    	mov.d     [w0--], w6
    18da:	08 00 be    	mov.d     w8, w0
    18dc:	0a 01 be    	mov.d     w10, w2
    18de:	75 f9 07    	rcall     0xbca <___udivdi3>
    18e0:	a4 00 20    	mov.w     #0xa, w4
    18e2:	05 00 20    	mov.w     #0x0, w5
    18e4:	60 33 b8    	mul.uu    w6, #0x0, w6
    18e6:	78 f9 07    	rcall     0xbd8 <___umoddi3>
    18e8:	04 c3 b3    	mov.b     #0x30, w4
    18ea:	04 42 40    	add.b     w0, w4, w4
    18ec:	c4 7f 9f    	mov.b     w4, [w15-68]
    18ee:	29 00 37    	bra       0x1942 <.L285>

000018f0 <.L288>:
    18f0:	35 12 23    	mov.w     #0x3123, w5
    18f2:	d5 b7 9f    	mov.w     w5, [w15-22]
    18f4:	0d 58 a3    	btst.z    w13, #0x5
    18f6:	02 00 3a    	bra       NZ, 0x18fc <.L292>
    18f8:	40 13 23    	mov.w     #0x3134, w0
    18fa:	d0 b7 9f    	mov.w     w0, [w15-22]

000018fc <.L292>:
    18fc:	14 00 20    	mov.w     #0x1, w4
    18fe:	05 00 20    	mov.w     #0x0, w5
    1900:	60 33 b8    	mul.uu    w6, #0x0, w6
    1902:	8f a8 97    	mov.w     [w15-48], w1

00001904 <.LB1686>:
    1904:	81 00 e9    	dec.w     w1, w1
    1906:	05 00 33    	bra       N, 0x1912 <.LE1686>
    1908:	04 02 d0    	sl.w      w4, w4
    190a:	85 82 d2    	rlc.w     w5, w5
    190c:	06 83 d2    	rlc.w     w6, w6
    190e:	87 83 d2    	rlc.w     w7, w7
    1910:	f9 ff 37    	bra       0x1904 <.LB1686>

00001912 <.LE1686>:
    1912:	08 00 be    	mov.d     w8, w0
    1914:	0a 01 be    	mov.d     w10, w2
    1916:	59 f9 07    	rcall     0xbca <___udivdi3>
    1918:	6f 00 60    	and.w     w0, #0xf, w0
    191a:	5f b1 97    	mov.w     [w15-22], w2
    191c:	62 40 78    	mov.b     [w2+w0], w0
    191e:	10 00 37    	bra       0x1940 <.L352>

00001920 <.L287>:
    1920:	14 00 20    	mov.w     #0x1, w4
    1922:	05 00 20    	mov.w     #0x0, w5
    1924:	60 33 b8    	mul.uu    w6, #0x0, w6
    1926:	8c 01 78    	mov.w     w12, w3

00001928 <.LB1699>:
    1928:	83 01 e9    	dec.w     w3, w3
    192a:	05 00 33    	bra       N, 0x1936 <.LE1699>
    192c:	04 02 d0    	sl.w      w4, w4
    192e:	85 82 d2    	rlc.w     w5, w5
    1930:	06 83 d2    	rlc.w     w6, w6
    1932:	87 83 d2    	rlc.w     w7, w7
    1934:	f9 ff 37    	bra       0x1928 <.LB1699>

00001936 <.LE1699>:
    1936:	08 00 be    	mov.d     w8, w0
    1938:	0a 01 be    	mov.d     w10, w2
    193a:	47 f9 07    	rcall     0xbca <___udivdi3>
    193c:	67 40 60    	and.b     w0, #0x7, w0
    193e:	00 43 b0    	add.b     #0x30, w0

00001940 <.L352>:
    1940:	c0 7f 9f    	mov.b     w0, [w15-68]

00001942 <.L285>:
    1942:	4f 7a 97    	mov.b     [w15-68], w4
    1944:	04 00 fb    	se        w4, w0
    1946:	ef b0 97    	mov.w     [w15-20], w1
    1948:	33 00 07    	rcall     0x19b0 <_fputc>
    194a:	e1 0f 40    	add.w     w0, #0x1, [w15]
    194c:	03 00 32    	bra       Z, 0x1954 <.L293>
    194e:	af b2 97    	mov.w     [w15-28], w5
    1950:	85 02 e8    	inc.w     w5, w5
    1952:	a5 b7 9f    	mov.w     w5, [w15-28]

00001954 <.L293>:
    1954:	1f a8 97    	mov.w     [w15-46], w0
    1956:	68 00 50    	sub.w     w0, #0x8, w0
    1958:	90 af 9f    	mov.w     w0, [w15-46]
    195a:	8f a8 97    	mov.w     [w15-48], w1
    195c:	e4 80 50    	sub.w     w1, #0x4, w1
    195e:	81 af 9f    	mov.w     w1, [w15-48]
    1960:	63 06 56    	sub.w     w12, #0x3, w12

00001962 <.L268>:
    1962:	d0 ff 2f    	mov.w     #0xfffd, w0
    1964:	3f b1 97    	mov.w     [w15-26], w2
    1966:	00 90 b9    	mul.ss    w2, w0, w0
    1968:	ff a1 97    	mov.w     [w15-50], w3
    196a:	00 80 41    	add.w     w3, w0, w0
    196c:	63 00 50    	sub.w     w0, #0x3, w0
    196e:	80 0f 56    	sub.w     w12, w0, [w15]
    1970:	a4 ff 3a    	bra       NZ, 0x18ba <.L284>
    1972:	0d 38 a3    	btst.z    w13, #0x3
    1974:	10 00 32    	bra       Z, 0x1996 <.L356>
    1976:	1f a2 97    	mov.w     [w15-62], w4
    1978:	04 00 e0    	cp0.w     w4
    197a:	0d 00 34    	bra       LE, 0x1996 <.L356>
    197c:	00 06 eb    	clr.w     w12

0000197e <.L298>:
    197e:	ef b0 97    	mov.w     [w15-20], w1
    1980:	00 02 20    	mov.w     #0x20, w0
    1982:	16 00 07    	rcall     0x19b0 <_fputc>
    1984:	e1 0f 40    	add.w     w0, #0x1, [w15]
    1986:	03 00 32    	bra       Z, 0x198e <.L299>
    1988:	af b2 97    	mov.w     [w15-28], w5
    198a:	85 02 e8    	inc.w     w5, w5
    198c:	a5 b7 9f    	mov.w     w5, [w15-28]

0000198e <.L299>:
    198e:	0c 06 e8    	inc.w     w12, w12
    1990:	1f a0 97    	mov.w     [w15-62], w0
    1992:	80 0f 56    	sub.w     w12, w0, [w15]
    1994:	f4 ff 3a    	bra       NZ, 0x197e <.L298>

00001996 <.L356>:
    1996:	7f b1 97    	mov.w     [w15-18], w2
    1998:	b2 40 78    	mov.b     [w2++], w1
    199a:	f2 b7 9f    	mov.w     w2, [w15-18]
    199c:	c1 7f 9f    	mov.b     w1, [w15-68]
    199e:	01 04 e0    	cp0.b     w1
    19a0:	14 fb 3a    	bra       NZ, 0xfca <.L20>

000019a2 <.L49>:
    19a2:	2f b0 97    	mov.w     [w15-28], w0
    19a4:	4f 07 78    	mov.w     [--w15], w14
    19a6:	4f 06 be    	mov.d     [--w15], w12
    19a8:	4f 05 be    	mov.d     [--w15], w10
    19aa:	4f 04 be    	mov.d     [--w15], w8
    19ac:	8f 03 b1    	sub.w     #0x38, w15
    19ae:	00 00 06    	return    

000019b0 <_fputc>:
    19b0:	88 9f be    	mov.d     w8, [w15++]
    19b2:	00 01 78    	mov.w     w0, w2
    19b4:	01 04 78    	mov.w     w1, w8
    19b6:	b1 00 90    	mov.w     [w1+6], w1
    19b8:	01 18 a3    	btst.z    w1, #0x1
    19ba:	3d 00 32    	bra       Z, 0x1a36 <.L2>
    19bc:	01 98 a3    	btst.z    w1, #0x9
    19be:	03 00 3a    	bra       NZ, 0x19c6 <.L4>
    19c0:	18 00 90    	mov.w     [w8+2], w0
    19c2:	00 00 e0    	cp0.w     w0
    19c4:	38 00 3a    	bra       NZ, 0x1a36 <.L2>

000019c6 <.L4>:
    19c6:	01 90 a0    	bset.w    w1, #0x9
    19c8:	31 04 98    	mov.w     w1, [w8+6]
    19ca:	82 04 78    	mov.w     w2, w9
    19cc:	f9 0f b2    	and.w     #0xff, w9
    19ce:	18 00 90    	mov.w     [w8+2], w0
    19d0:	00 00 e0    	cp0.w     w0
    19d2:	02 00 3a    	bra       NZ, 0x19d8 <.L6>
    19d4:	28 00 90    	mov.w     [w8+4], w0
    19d6:	00 0c 78    	mov.w     w0, [w8]

000019d8 <.L6>:
    19d8:	ea 8f 54    	sub.w     w9, #0xa, [w15]
    19da:	06 00 3a    	bra       NZ, 0x19e8 <.L8>
    19dc:	38 00 90    	mov.w     [w8+6], w0
    19de:	00 78 a3    	btst.z    w0, #0x7
    19e0:	03 00 3a    	bra       NZ, 0x19e8 <.L8>
    19e2:	88 00 78    	mov.w     w8, w1
    19e4:	d0 00 20    	mov.w     #0xd, w0
    19e6:	e4 ff 07    	rcall     0x19b0 <_fputc>

000019e8 <.L8>:
    19e8:	98 00 90    	mov.w     [w8+2], w1
    19ea:	58 00 90    	mov.w     [w8+10], w0
    19ec:	80 8f 50    	sub.w     w1, w0, [w15]
    19ee:	0b 00 32    	bra       Z, 0x1a06 <.L11>
    19f0:	01 00 e8    	inc.w     w1, w0
    19f2:	10 04 98    	mov.w     w0, [w8+2]
    19f4:	18 00 78    	mov.w     [w8], w0
    19f6:	09 58 78    	mov.b     w9, [w0++]
    19f8:	00 0c 78    	mov.w     w0, [w8]
    19fa:	11 c0 b3    	mov.b     #0x1, w1
    19fc:	20 19 23    	mov.w     #0x3192, w0
    19fe:	01 48 78    	mov.b     w1, [w0]
    1a00:	ea 8f 54    	sub.w     w9, #0xa, [w15]
    1a02:	06 00 32    	bra       Z, 0x1a10 <.L13>
    1a04:	19 00 37    	bra       0x1a38 <.L14>

00001a06 <.L11>:
    1a06:	88 00 78    	mov.w     w8, w1
    1a08:	09 40 78    	mov.b     w9, w0
    1a0a:	19 00 07    	rcall     0x1a3e <__flsbuf>
    1a0c:	80 04 78    	mov.w     w0, w9
    1a0e:	14 00 37    	bra       0x1a38 <.L14>

00001a10 <.L13>:
    1a10:	38 00 90    	mov.w     [w8+6], w0
    1a12:	00 88 a3    	btst.z    w0, #0x8
    1a14:	11 00 32    	bra       Z, 0x1a38 <.L14>
    1a16:	18 01 90    	mov.w     [w8+2], w2
    1a18:	a8 00 90    	mov.w     [w8+4], w1
    1a1a:	48 00 90    	mov.w     [w8+8], w0
    1a1c:	71 f4 07    	rcall     0x300
    1a1e:	98 00 90    	mov.w     [w8+2], w1
    1a20:	81 0f 50    	sub.w     w0, w1, [w15]
    1a22:	04 00 32    	bra       Z, 0x1a2c <.L19>
    1a24:	38 00 90    	mov.w     [w8+6], w0
    1a26:	00 03 b3    	ior.w     #0x30, w0
    1a28:	30 04 98    	mov.w     w0, [w8+6]
    1a2a:	80 84 eb    	setm.w    w9

00001a2c <.L19>:
    1a2c:	00 00 eb    	clr.w     w0
    1a2e:	10 04 98    	mov.w     w0, [w8+2]
    1a30:	28 00 90    	mov.w     [w8+4], w0
    1a32:	00 0c 78    	mov.w     w0, [w8]
    1a34:	01 00 37    	bra       0x1a38 <.L14>

00001a36 <.L2>:
    1a36:	80 84 eb    	setm.w    w9

00001a38 <.L14>:
    1a38:	09 00 78    	mov.w     w9, w0
    1a3a:	4f 04 be    	mov.d     [--w15], w8
    1a3c:	00 00 06    	return    

00001a3e <__flsbuf>:
    1a3e:	02 00 fa    	lnk       #0x2
    1a40:	88 9f be    	mov.d     w8, [w15++]
    1a42:	a0 ff 9f    	mov.b     w0, [w15-6]
    1a44:	01 04 78    	mov.w     w1, w8
    1a46:	b1 00 90    	mov.w     [w1+6], w1
    1a48:	81 04 78    	mov.w     w1, w9
    1a4a:	09 04 b2    	and.w     #0x40, w9
    1a4c:	02 00 32    	bra       Z, 0x1a52 <.L2>
    1a4e:	00 00 fb    	se        w0, w0
    1a50:	36 00 37    	bra       0x1abe <.L4>

00001a52 <.L2>:
    1a52:	01 18 a3    	btst.z    w1, #0x1
    1a54:	05 00 3a    	bra       NZ, 0x1a60 <.L5>
    1a56:	01 03 b3    	ior.w     #0x30, w1
    1a58:	31 04 98    	mov.w     w1, [w8+6]
    1a5a:	19 04 98    	mov.w     w9, [w8+2]
    1a5c:	00 80 eb    	setm.w    w0
    1a5e:	2f 00 37    	bra       0x1abe <.L4>

00001a60 <.L5>:
    1a60:	58 00 90    	mov.w     [w8+10], w0
    1a62:	00 00 e0    	cp0.w     w0
    1a64:	06 00 3a    	bra       NZ, 0x1a72 <.L7>
    1a66:	48 00 90    	mov.w     [w8+8], w0
    1a68:	12 00 20    	mov.w     #0x1, w2
    1a6a:	e6 80 57    	sub.w     w15, #0x6, w1
    1a6c:	49 f4 07    	rcall     0x300
    1a6e:	19 04 98    	mov.w     w9, [w8+2]
    1a70:	24 00 37    	bra       0x1aba <.L11>

00001a72 <.L7>:
    1a72:	28 00 90    	mov.w     [w8+4], w0
    1a74:	00 00 e0    	cp0.w     w0
    1a76:	08 00 3a    	bra       NZ, 0x1a88 <.L9>
    1a78:	e0 18 23    	mov.w     #0x318e, w0
    1a7a:	20 04 98    	mov.w     w0, [w8+4]
    1a7c:	00 0c 78    	mov.w     w0, [w8]
    1a7e:	20 00 20    	mov.w     #0x2, w0
    1a80:	50 04 98    	mov.w     w0, [w8+10]
    1a82:	10 04 98    	mov.w     w0, [w8+2]
    1a84:	01 30 a0    	bset.w    w1, #0x3
    1a86:	31 04 98    	mov.w     w1, [w8+6]

00001a88 <.L9>:
    1a88:	18 01 90    	mov.w     [w8+2], w2
    1a8a:	a8 00 90    	mov.w     [w8+4], w1
    1a8c:	48 00 90    	mov.w     [w8+8], w0
    1a8e:	38 f4 07    	rcall     0x300
    1a90:	28 00 90    	mov.w     [w8+4], w0
    1a92:	00 0c 78    	mov.w     w0, [w8]
    1a94:	00 80 eb    	setm.w    w0
    1a96:	10 04 98    	mov.w     w0, [w8+2]
    1a98:	18 00 78    	mov.w     [w8], w0
    1a9a:	af f8 97    	mov.b     [w15-6], w1
    1a9c:	01 58 78    	mov.b     w1, [w0++]
    1a9e:	00 0c 78    	mov.w     w0, [w8]
    1aa0:	2f f8 97    	mov.b     [w15-6], w0
    1aa2:	ea 4f 50    	sub.b     w0, #0xa, [w15]
    1aa4:	0a 00 3a    	bra       NZ, 0x1aba <.L11>
    1aa6:	38 00 90    	mov.w     [w8+6], w0
    1aa8:	00 88 a3    	btst.z    w0, #0x8
    1aaa:	07 00 32    	bra       Z, 0x1aba <.L11>
    1aac:	18 01 90    	mov.w     [w8+2], w2
    1aae:	a8 00 90    	mov.w     [w8+4], w1
    1ab0:	48 00 90    	mov.w     [w8+8], w0
    1ab2:	26 f4 07    	rcall     0x300
    1ab4:	19 04 98    	mov.w     w9, [w8+2]
    1ab6:	a8 00 90    	mov.w     [w8+4], w1
    1ab8:	01 0c 78    	mov.w     w1, [w8]

00001aba <.L11>:
    1aba:	af f8 97    	mov.b     [w15-6], w1
    1abc:	01 00 fb    	se        w1, w0

00001abe <.L4>:
    1abe:	4f 04 be    	mov.d     [--w15], w8
    1ac0:	00 80 fa    	ulnk      
    1ac2:	00 00 06    	return    
Disassembly of section __FGS:

00f80004 <__FGS.sec>:
  f80004:	ff ff 00    	nop       
Disassembly of section __FOSCSEL:

00f80006 <__FOSCSEL.sec>:
  f80006:	fb ff 00    	nop       
Disassembly of section __FOSC:

00f80008 <__FOSC.sec>:
  f80008:	f9 ff 00    	nop       
Disassembly of section __FWDT:

00f8000a <__FWDT.sec>:
  f8000a:	7f ff 00    	nop       
Disassembly of section .ivt:

00000004 <.ivt>:
   4:	fc 02 00    	nop       
   6:	6c 76 00    	nop       
   8:	6e 76 00    	nop       
   a:	8a 76 00    	nop       
   c:	8c 76 00    	nop       
   e:	8e 76 00    	nop       
  10:	fc 02 00    	nop       
  12:	fc 02 00    	nop       
  14:	fc 02 00    	nop       
  16:	fc 02 00    	nop       
  18:	fc 02 00    	nop       
  1a:	74 49 00    	nop       
  1c:	b6 44 00    	nop       
  1e:	fc 02 00    	nop       
  20:	fc 02 00    	nop       
  22:	fc 02 00    	nop       
  24:	fc 02 00    	nop       
  26:	fc 02 00    	nop       
  28:	fc 02 00    	nop       
  2a:	fc 02 00    	nop       
  2c:	fc 02 00    	nop       
  2e:	fc 02 00    	nop       
  30:	c2 44 00    	nop       
  32:	fc 02 00    	nop       
  34:	fc 02 00    	nop       
  36:	fc 02 00    	nop       
  38:	fc 02 00    	nop       
  3a:	8c 48 00    	nop       
  3c:	fc 02 00    	nop       
  3e:	fc 02 00    	nop       
  40:	fc 02 00    	nop       
  42:	fc 02 00    	nop       
  44:	fc 02 00    	nop       
  46:	fc 02 00    	nop       
  48:	fc 02 00    	nop       
  4a:	fc 02 00    	nop       
  4c:	dc 6e 00    	nop       
  4e:	fc 02 00    	nop       
  50:	fc 02 00    	nop       
  52:	fc 02 00    	nop       
  54:	fc 02 00    	nop       
  56:	fc 02 00    	nop       
  58:	fc 02 00    	nop       
  5a:	fc 02 00    	nop       
  5c:	fc 02 00    	nop       
  5e:	fc 02 00    	nop       
  60:	fc 02 00    	nop       
  62:	fc 02 00    	nop       
  64:	fc 02 00    	nop       
  66:	fc 02 00    	nop       
  68:	fc 02 00    	nop       
  6a:	fc 02 00    	nop       
  6c:	fc 02 00    	nop       
  6e:	fc 02 00    	nop       
  70:	fc 02 00    	nop       
  72:	fc 02 00    	nop       
  74:	fc 02 00    	nop       
  76:	fc 02 00    	nop       
  78:	fc 02 00    	nop       
  7a:	fc 02 00    	nop       
  7c:	fc 02 00    	nop       
  7e:	fc 02 00    	nop       
  80:	48 52 00    	nop       
  82:	fc 02 00    	nop       
  84:	fc 02 00    	nop       
  86:	fc 02 00    	nop       
  88:	1a 42 00    	nop       
  8a:	fc 02 00    	nop       
  8c:	fc 02 00    	nop       
  8e:	fc 02 00    	nop       
  90:	fc 02 00    	nop       
  92:	fc 02 00    	nop       
  94:	fc 02 00    	nop       
  96:	fc 02 00    	nop       
  98:	fc 02 00    	nop       
  9a:	fc 02 00    	nop       
  9c:	fc 02 00    	nop       
  9e:	fc 02 00    	nop       
  a0:	fc 02 00    	nop       
  a2:	fc 02 00    	nop       
  a4:	fc 02 00    	nop       
  a6:	fc 02 00    	nop       
  a8:	fc 02 00    	nop       
  aa:	fc 02 00    	nop       
  ac:	fc 02 00    	nop       
  ae:	fc 02 00    	nop       
  b0:	fc 02 00    	nop       
  b2:	fc 02 00    	nop       
  b4:	fc 02 00    	nop       
  b6:	fc 02 00    	nop       
  b8:	fc 02 00    	nop       
  ba:	fc 02 00    	nop       
  bc:	fc 02 00    	nop       
  be:	fc 02 00    	nop       
  c0:	fc 02 00    	nop       
  c2:	fc 02 00    	nop       
  c4:	fc 02 00    	nop       
  c6:	fc 02 00    	nop       
  c8:	fc 02 00    	nop       
  ca:	fc 02 00    	nop       
  cc:	fc 02 00    	nop       
  ce:	fc 02 00    	nop       
  d0:	fc 02 00    	nop       
  d2:	fc 02 00    	nop       
  d4:	fc 02 00    	nop       
  d6:	fc 02 00    	nop       
  d8:	fc 02 00    	nop       
  da:	fc 02 00    	nop       
  dc:	fc 02 00    	nop       
  de:	fc 02 00    	nop       
  e0:	fc 02 00    	nop       
  e2:	fc 02 00    	nop       
  e4:	fc 02 00    	nop       
  e6:	fc 02 00    	nop       
  e8:	fc 02 00    	nop       
  ea:	fc 02 00    	nop       
  ec:	fc 02 00    	nop       
  ee:	fc 02 00    	nop       
  f0:	fc 02 00    	nop       
  f2:	fc 02 00    	nop       
  f4:	fc 02 00    	nop       
  f6:	fc 02 00    	nop       
  f8:	fc 02 00    	nop       
  fa:	fc 02 00    	nop       
  fc:	fc 02 00    	nop       
  fe:	fc 02 00    	nop       
Disassembly of section .aivt:

00000104 <.aivt>:
 104:	fc 02 00    	nop       
 106:	6c 76 00    	nop       
 108:	6e 76 00    	nop       
 10a:	8a 76 00    	nop       
 10c:	8c 76 00    	nop       
 10e:	8e 76 00    	nop       
 110:	fc 02 00    	nop       
 112:	fc 02 00    	nop       
 114:	fc 02 00    	nop       
 116:	fc 02 00    	nop       
 118:	fc 02 00    	nop       
 11a:	74 49 00    	nop       
 11c:	b6 44 00    	nop       
 11e:	fc 02 00    	nop       
 120:	fc 02 00    	nop       
 122:	fc 02 00    	nop       
 124:	fc 02 00    	nop       
 126:	fc 02 00    	nop       
 128:	fc 02 00    	nop       
 12a:	fc 02 00    	nop       
 12c:	fc 02 00    	nop       
 12e:	fc 02 00    	nop       
 130:	c2 44 00    	nop       
 132:	fc 02 00    	nop       
 134:	fc 02 00    	nop       
 136:	fc 02 00    	nop       
 138:	fc 02 00    	nop       
 13a:	8c 48 00    	nop       
 13c:	fc 02 00    	nop       
 13e:	fc 02 00    	nop       
 140:	fc 02 00    	nop       
 142:	fc 02 00    	nop       
 144:	fc 02 00    	nop       
 146:	fc 02 00    	nop       
 148:	fc 02 00    	nop       
 14a:	fc 02 00    	nop       
 14c:	dc 6e 00    	nop       
 14e:	fc 02 00    	nop       
 150:	fc 02 00    	nop       
 152:	fc 02 00    	nop       
 154:	fc 02 00    	nop       
 156:	fc 02 00    	nop       
 158:	fc 02 00    	nop       
 15a:	fc 02 00    	nop       
 15c:	fc 02 00    	nop       
 15e:	fc 02 00    	nop       
 160:	fc 02 00    	nop       
 162:	fc 02 00    	nop       
 164:	fc 02 00    	nop       
 166:	fc 02 00    	nop       
 168:	fc 02 00    	nop       
 16a:	fc 02 00    	nop       
 16c:	fc 02 00    	nop       
 16e:	fc 02 00    	nop       
 170:	fc 02 00    	nop       
 172:	fc 02 00    	nop       
 174:	fc 02 00    	nop       
 176:	fc 02 00    	nop       
 178:	fc 02 00    	nop       
 17a:	fc 02 00    	nop       
 17c:	fc 02 00    	nop       
 17e:	fc 02 00    	nop       
 180:	48 52 00    	nop       
 182:	fc 02 00    	nop       
 184:	fc 02 00    	nop       
 186:	fc 02 00    	nop       
 188:	1a 42 00    	nop       
 18a:	fc 02 00    	nop       
 18c:	fc 02 00    	nop       
 18e:	fc 02 00    	nop       
 190:	fc 02 00    	nop       
 192:	fc 02 00    	nop       
 194:	fc 02 00    	nop       
 196:	fc 02 00    	nop       
 198:	fc 02 00    	nop       
 19a:	fc 02 00    	nop       
 19c:	fc 02 00    	nop       
 19e:	fc 02 00    	nop       
 1a0:	fc 02 00    	nop       
 1a2:	fc 02 00    	nop       
 1a4:	fc 02 00    	nop       
 1a6:	fc 02 00    	nop       
 1a8:	fc 02 00    	nop       
 1aa:	fc 02 00    	nop       
 1ac:	fc 02 00    	nop       
 1ae:	fc 02 00    	nop       
 1b0:	fc 02 00    	nop       
 1b2:	fc 02 00    	nop       
 1b4:	fc 02 00    	nop       
 1b6:	fc 02 00    	nop       
 1b8:	fc 02 00    	nop       
 1ba:	fc 02 00    	nop       
 1bc:	fc 02 00    	nop       
 1be:	fc 02 00    	nop       
 1c0:	fc 02 00    	nop       
 1c2:	fc 02 00    	nop       
 1c4:	fc 02 00    	nop       
 1c6:	fc 02 00    	nop       
 1c8:	fc 02 00    	nop       
 1ca:	fc 02 00    	nop       
 1cc:	fc 02 00    	nop       
 1ce:	fc 02 00    	nop       
 1d0:	fc 02 00    	nop       
 1d2:	fc 02 00    	nop       
 1d4:	fc 02 00    	nop       
 1d6:	fc 02 00    	nop       
 1d8:	fc 02 00    	nop       
 1da:	fc 02 00    	nop       
 1dc:	fc 02 00    	nop       
 1de:	fc 02 00    	nop       
 1e0:	fc 02 00    	nop       
 1e2:	fc 02 00    	nop       
 1e4:	fc 02 00    	nop       
 1e6:	fc 02 00    	nop       
 1e8:	fc 02 00    	nop       
 1ea:	fc 02 00    	nop       
 1ec:	fc 02 00    	nop       
 1ee:	fc 02 00    	nop       
 1f0:	fc 02 00    	nop       
 1f2:	fc 02 00    	nop       
 1f4:	fc 02 00    	nop       
 1f6:	fc 02 00    	nop       
 1f8:	fc 02 00    	nop       
 1fa:	fc 02 00    	nop       
 1fc:	fc 02 00    	nop       
 1fe:	fc 02 00    	nop       
Disassembly of section .text:

00002194 <_FuncUWL_EE_TASK_MAC_TIMESLOT>:
    2194:	d0 77 80    	mov.w     0xefa, w0
    2196:	00 00 e0    	cp0.w     w0
    2198:	01 00 32    	bra       Z, 0x219c <.L4>
    219a:	00 00 01    	call      w0

0000219c <.L4>:
    219c:	00 00 06    	return    

0000219e <_FuncUWL_EE_TASK_MAC_BEFORE_TIMESLOT>:
    219e:	c0 77 80    	mov.w     0xef8, w0
    21a0:	00 00 e0    	cp0.w     w0
    21a2:	01 00 32    	bra       Z, 0x21a6 <.L10>
    21a4:	00 00 01    	call      w0

000021a6 <.L10>:
    21a6:	00 00 06    	return    

000021a8 <_FuncUWL_EE_TASK_MAC_BACKOFF_PERIOD>:
    21a8:	60 77 80    	mov.w     0xeec, w0
    21aa:	00 00 e0    	cp0.w     w0
    21ac:	01 00 32    	bra       Z, 0x21b0 <.L16>
    21ae:	00 00 01    	call      w0

000021b0 <.L16>:
    21b0:	00 00 06    	return    

000021b2 <_FuncUWL_EE_TASK_MAC_GTS_SEND>:
    21b2:	b0 77 80    	mov.w     0xef6, w0
    21b4:	00 00 e0    	cp0.w     w0
    21b6:	01 00 32    	bra       Z, 0x21ba <.L22>
    21b8:	00 00 01    	call      w0

000021ba <.L22>:
    21ba:	00 00 06    	return    

000021bc <_before_timeslot_start>:
    21bc:	36 cf bf    	mov.b     0xf36, WREG
    21be:	00 00 e8    	inc.w     w0, w0
    21c0:	6f 00 60    	and.w     w0, #0xf, w0
    21c2:	0f 00 3a    	bra       NZ, 0x21e2 <.L30>
    21c4:	a2 79 80    	mov.w     0xf34, w2
    21c6:	02 18 a3    	btst.z    w2, #0x1
    21c8:	0c 00 3a    	bra       NZ, 0x21e2 <.L30>

000021ca <.bb>:
    21ca:	20 71 80    	mov.w     0xe24, w0
    21cc:	43 00 de    	lsr.w     w0, #0x3, w0
    21ce:	7f 00 60    	and.w     w0, #0x1f, w0
    21d0:	4a 00 dd    	sl.w      w0, #0xa, w0
    21d2:	f1 3f 28    	mov.w     #0x83ff, w1
    21d4:	81 00 61    	and.w     w2, w1, w1
    21d6:	80 80 70    	ior.w     w1, w0, w1
    21d8:	a1 79 88    	mov.w     w1, 0xf34
    21da:	40 71 80    	mov.w     0xe28, w0
    21dc:	66 00 60    	and.w     w0, #0x6, w0
    21de:	01 00 32    	bra       Z, 0x21e2 <.L30>
    21e0:	6e 27 07    	rcall     0x70be <_uwl_radio_mac_create_beacon>

000021e2 <.L30>:
    21e2:	00 00 06    	return    

000021e4 <_uwl_mac_set_before_beacon_callback>:
    21e4:	a0 fe 2f    	mov.w     #0xffea, w0
    21e6:	00 00 06    	return    

000021e8 <_uwl_mac_set_on_beacon_callback>:
    21e8:	a0 fe 2f    	mov.w     #0xffea, w0
    21ea:	00 00 06    	return    

000021ec <_uwl_mac_superframe_check_gts>:
    21ec:	88 9f be    	mov.d     w8, [w15++]
    21ee:	8a 9f be    	mov.d     w10, [w15++]
    21f0:	80 45 78    	mov.b     w0, w11
    21f2:	40 71 80    	mov.w     0xe28, w0
    21f4:	66 00 60    	and.w     w0, #0x6, w0
    21f6:	25 00 32    	bra       Z, 0x2242 <.L42>
    21f8:	01 80 fb    	ze        w1, w0
    21fa:	42 00 dd    	sl.w      w0, #0x2, w0
    21fc:	c1 16 23    	mov.w     #0x316c, w1
    21fe:	01 05 40    	add.w     w0, w1, w10

00002200 <.bb>:
    2200:	30 00 20    	mov.w     #0x3, w0
    2202:	0d 29 07    	rcall     0x741e <_EE_fp_GetResource>

00002204 <.eb>:
    2204:	c0 15 2a    	mov.w     #0xa15c, w0
    2206:	42 18 07    	rcall     0x528c <_uwl_debug_print>
    2208:	1a 01 be    	mov.d     [w10], w2
    220a:	0b 80 fb    	ze        w11, w0
    220c:	6a 00 40    	add.w     w0, #0xa, w0
    220e:	61 04 b9    	mul.su    w0, #0x1, w8
    2210:	88 0f 51    	sub.w     w2, w8, [w15]
    2212:	89 8f 59    	subb.w    w3, w9, [w15]
    2214:	26 00 39    	bra       NC, 0x2262 <.L63>

00002216 <.L66>:
    2216:	34 af ab    	btst.b    0xf34, #0x5
    2218:	2b 00 3a    	bra       NZ, 0x2270 <.L65>

0000221a <.L50>:
    221a:	08 00 51    	sub.w     w2, w8, w0
    221c:	89 80 59    	subb.w    w3, w9, w1
    221e:	00 8d be    	mov.d     w0, [w10]
    2220:	f1 cf 55    	sub.b     w11, #0x11, [w15]
    2222:	43 00 3e    	bra       GTU, 0x22aa <.L56>
    2224:	32 77 80    	mov.w     0xee6, w2

00002226 <.L58>:
    2226:	03 00 20    	mov.w     #0x0, w3
    2228:	60 22 b8    	mul.uu    w4, #0x0, w4
    222a:	82 0f 50    	sub.w     w0, w2, [w15]
    222c:	83 8f 58    	subb.w    w1, w3, [w15]
    222e:	02 00 39    	bra       NC, 0x2234 <.L61>
    2230:	02 02 50    	sub.w     w0, w2, w4
    2232:	83 82 58    	subb.w    w1, w3, w5

00002234 <.L61>:
    2234:	04 8d be    	mov.d     w4, [w10]

00002236 <.bb>:
    2236:	30 00 20    	mov.w     #0x3, w0
    2238:	cd 28 07    	rcall     0x73d4 <_EE_fp_ReleaseResource>
    223a:	10 00 20    	mov.w     #0x1, w0

0000223c <.L47>:
    223c:	4f 05 be    	mov.d     [--w15], w10
    223e:	4f 04 be    	mov.d     [--w15], w8
    2240:	00 00 06    	return    

00002242 <.L42>:
    2242:	21 71 80    	mov.w     0xe24, w1
    2244:	00 00 2f    	mov.w     #0xf000, w0
    2246:	00 80 60    	and.w     w1, w0, w0
    2248:	ca 16 23    	mov.w     #0x316c, w10
    224a:	f8 ff 32    	bra       Z, 0x223c <.L47>

0000224c <.bb>:
    224c:	30 00 20    	mov.w     #0x3, w0
    224e:	e7 28 07    	rcall     0x741e <_EE_fp_GetResource>

00002250 <.eb>:
    2250:	c0 15 2a    	mov.w     #0xa15c, w0
    2252:	1c 18 07    	rcall     0x528c <_uwl_debug_print>
    2254:	1a 01 be    	mov.d     [w10], w2
    2256:	0b 80 fb    	ze        w11, w0
    2258:	6a 00 40    	add.w     w0, #0xa, w0
    225a:	61 04 b9    	mul.su    w0, #0x1, w8
    225c:	88 0f 51    	sub.w     w2, w8, [w15]
    225e:	89 8f 59    	subb.w    w3, w9, [w15]
    2260:	da ff 31    	bra       C, 0x2216 <.L66>

00002262 <.L63>:
    2262:	30 00 20    	mov.w     #0x3, w0
    2264:	b7 28 07    	rcall     0x73d4 <_EE_fp_ReleaseResource>
    2266:	00 00 eb    	clr.w     w0

00002268 <.L68>:
    2268:	4f 05 be    	mov.d     [--w15], w10
    226a:	4f 04 be    	mov.d     [--w15], w8
    226c:	00 00 06    	return    
    226e:	e9 ff 37    	bra       0x2242 <.L42>

00002270 <.L65>:
    2270:	62 7a 80    	mov.w     0xf4c, w2
    2272:	73 7a 80    	mov.w     0xf4e, w3

00002274 <.eb>:
    2274:	40 77 80    	mov.w     0xee8, w0
    2276:	51 77 80    	mov.w     0xeea, w1
    2278:	80 0f 51    	sub.w     w2, w0, [w15]
    227a:	81 8f 59    	subb.w    w3, w1, [w15]
    227c:	18 00 36    	bra       LEU, 0x22ae <.L67>
    227e:	02 00 50    	sub.w     w0, w2, w0
    2280:	83 80 58    	subb.w    w1, w3, w1
    2282:	61 03 50    	sub.w     w0, #0x1, w6
    2284:	e0 83 58    	subb.w    w1, #0x0, w7

00002286 <.L54>:
    2286:	02 6a 28    	mov.w     #0x86a0, w2
    2288:	02 30 b8    	mul.uu    w6, w2, w0
    228a:	01 02 43    	add.w     w6, w1, w4
    228c:	02 b9 b9    	mul.ss    w7, w2, w2
    228e:	82 00 42    	add.w     w4, w2, w1
    2290:	02 71 22    	mov.w     #0x2710, w2
    2292:	03 00 20    	mov.w     #0x0, w3
    2294:	df f0 07    	rcall     0x454
    2296:	00 01 be    	mov.d     w0, w2

00002298 <.eb>:
    2298:	80 0f 54    	sub.w     w8, w0, [w15]
    229a:	81 8f 5c    	subb.w    w9, w1, [w15]
    229c:	be ff 36    	bra       LEU, 0x221a <.L50>
    229e:	00 0d eb    	clr.w     [w10]
    22a0:	3a 15 78    	mov.w     [w10++], [w10--]

000022a2 <.bb>:
    22a2:	30 00 20    	mov.w     #0x3, w0
    22a4:	97 28 07    	rcall     0x73d4 <_EE_fp_ReleaseResource>
    22a6:	00 00 eb    	clr.w     w0
    22a8:	df ff 37    	bra       0x2268 <.L68>

000022aa <.L56>:
    22aa:	22 77 80    	mov.w     0xee4, w2
    22ac:	bc ff 37    	bra       0x2226 <.L58>

000022ae <.L67>:
    22ae:	02 03 50    	sub.w     w0, w2, w6
    22b0:	83 83 58    	subb.w    w1, w3, w7
    22b2:	e9 ff 37    	bra       0x2286 <.L54>

000022b4 <_uwl_mac_superframe_init>:
    22b4:	11 00 20    	mov.w     #0x1, w1
    22b6:	29 8e ab    	btst.b    0xe29, #0x4
    22b8:	02 00 32    	bra       Z, 0x22be <.L83>

000022ba <.L74>:
    22ba:	01 00 78    	mov.w     w1, w0
    22bc:	00 00 06    	return    

000022be <.L83>:
    22be:	02 c4 29    	mov.w     #0x9c40, w2
    22c0:	03 00 20    	mov.w     #0x0, w3
    22c2:	00 14 20    	mov.w     #0x140, w0
    22c4:	01 00 20    	mov.w     #0x0, w1
    22c6:	4f 25 07    	rcall     0x6d66 <_uwl_timer_init>

000022c8 <.eb>:
    22c8:	61 ff 2f    	mov.w     #0xfff6, w1

000022ca <.bb>:
    22ca:	00 04 e0    	cp0.b     w0
    22cc:	f6 ff 35    	bra       LT, 0x22ba <.L74>
    22ce:	e0 70 27    	mov.w     #0x770e, w0
    22d0:	fd 25 07    	rcall     0x6ecc <_uwl_timer_set_isr_callback>

000022d2 <.bb>:
    22d2:	87 80 a9    	bclr.b    0x87, #0x4
    22d4:	97 80 a8    	bset.b    0x97, #0x4
    22d6:	21 e1 a8    	bset.b    0x121, #0x7

000022d8 <.bb>:
    22d8:	60 78 22    	mov.w     #0x2786, w0
    22da:	d0 77 88    	mov.w     w0, 0xefa

000022dc <.bb>:
    22dc:	c0 1b 22    	mov.w     #0x21bc, w0
    22de:	c0 77 88    	mov.w     w0, 0xef8

000022e0 <.bb>:
    22e0:	00 30 22    	mov.w     #0x2300, w0
    22e2:	60 77 88    	mov.w     w0, 0xeec

000022e4 <.bb>:
    22e4:	e0 fb 22    	mov.w     #0x2fbe, w0
    22e6:	b0 77 88    	mov.w     w0, 0xef6

000022e8 <.eb>:
    22e8:	29 8e a8    	bset.b    0xe29, #0x4
    22ea:	fd 4e a9    	bclr.b    0xefd, #0x2
    22ec:	fd 6e a9    	bclr.b    0xefd, #0x3
    22ee:	fd 8e a8    	bset.b    0xefd, #0x4
    22f0:	40 01 20    	mov.w     #0x14, w0
    22f2:	20 77 88    	mov.w     w0, 0xee4
    22f4:	a0 00 20    	mov.w     #0xa, w0
    22f6:	30 77 88    	mov.w     w0, 0xee6
    22f8:	a0 77 88    	mov.w     w0, 0xef4
    22fa:	10 00 20    	mov.w     #0x1, w0
    22fc:	00 00 06    	return    
    22fe:	df ff 37    	bra       0x22be <.L83>

00002300 <_on_backoff_period_start>:
    2300:	0a 00 fa    	lnk       #0xa
    2302:	88 9f be    	mov.d     w8, [w15++]
    2304:	8a 9f be    	mov.d     w10, [w15++]
    2306:	e4 77 80    	mov.w     0xefc, w4
    2308:	00 00 21    	mov.w     #0x1000, w0
    230a:	00 04 62    	and.w     w4, w0, w8
    230c:	09 00 32    	bra       Z, 0x2320 <.L241>

0000230e <.bb>:
    230e:	40 71 80    	mov.w     0xe28, w0
    2310:	00 0c b2    	and.w     #0xc0, w0
    2312:	01 04 20    	mov.w     #0x40, w1
    2314:	81 0f 50    	sub.w     w0, w1, [w15]
    2316:	3e 00 32    	bra       Z, 0x2394 <.L226>

00002318 <.L202>:
    2318:	4f 05 be    	mov.d     [--w15], w10
    231a:	4f 04 be    	mov.d     [--w15], w8
    231c:	00 80 fa    	ulnk      
    231e:	00 00 06    	return    

00002320 <.L241>:
    2320:	00 c0 20    	mov.w     #0xc00, w0
    2322:	80 00 62    	and.w     w4, w0, w1
    2324:	45 00 32    	bra       Z, 0x23b0 <.L224>
    2326:	00 40 20    	mov.w     #0x400, w0
    2328:	80 8f 50    	sub.w     w1, w0, [w15]
    232a:	c5 00 32    	bra       Z, 0x24b6 <.L227>

0000232c <.L163>:
    232c:	00 c0 20    	mov.w     #0xc00, w0
    232e:	00 00 62    	and.w     w4, w0, w0
    2330:	01 80 20    	mov.w     #0x800, w1
    2332:	81 0f 50    	sub.w     w0, w1, [w15]
    2334:	f1 ff 3a    	bra       NZ, 0x2318 <.L202>

00002336 <.L234>:
    2336:	e6 c2 bf    	mov.b     0x2e6, WREG

00002338 <.eb>:
    2338:	00 18 a3    	btst.z    w0, #0x1
    233a:	e1 00 3a    	bra       NZ, 0x24fe <.L172>
    233c:	ef 40 62    	and.b     w4, #0xf, w1
    233e:	a7 c8 bf    	mov.b     0x8a7, WREG
    2340:	81 4f 50    	sub.b     w0, w1, [w15]
    2342:	2c 01 39    	bra       NC, 0x259c <.L217>
    2344:	81 40 e8    	inc.b     w1, w1
    2346:	ef 80 60    	and.w     w1, #0xf, w1
    2348:	00 ff 2f    	mov.w     #0xfff0, w0
    234a:	00 00 62    	and.w     w4, w0, w0
    234c:	01 02 70    	ior.w     w0, w1, w4
    234e:	e4 77 88    	mov.w     w4, 0xefc
    2350:	44 20 de    	lsr.w     w4, #0x4, w0
    2352:	ef 40 60    	and.b     w0, #0xf, w1
    2354:	a6 c8 bf    	mov.b     0x8a6, WREG
    2356:	81 4f 50    	sub.b     w0, w1, [w15]
    2358:	07 00 36    	bra       LEU, 0x2368 <.L179>
    235a:	81 40 e8    	inc.b     w1, w1
    235c:	ef 80 60    	and.w     w1, #0xf, w1
    235e:	c4 08 dd    	sl.w      w1, #0x4, w1
    2360:	f0 f0 2f    	mov.w     #0xff0f, w0
    2362:	00 00 62    	and.w     w4, w0, w0
    2364:	01 00 70    	ior.w     w0, w1, w0
    2366:	e0 77 88    	mov.w     w0, 0xefc

00002368 <.L179>:
    2368:	b5 f5 07    	rcall     0xed4 <_rand>

0000236a <.eb>:
    236a:	f2 0f 20    	mov.w     #0xff, w2
    236c:	11 00 09    	repeat    #0x11
    236e:	02 00 d8    	div.sw    w0, w2
    2370:	81 80 fb    	ze        w1, w1
    2372:	e0 77 80    	mov.w     0xefc, w0
    2374:	44 00 de    	lsr.w     w0, #0x4, w0
    2376:	6f 00 60    	and.w     w0, #0xf, w0
    2378:	12 00 20    	mov.w     #0x1, w2
    237a:	00 11 dd    	sl.w      w2, w0, w2
    237c:	02 01 e9    	dec.w     w2, w2
    237e:	11 00 09    	repeat    #0x11
    2380:	82 00 d8    	div.sw    w1, w2
    2382:	80 00 fd    	exch      w0, w1
    2384:	ee ee b7    	mov.b     WREG, 0xeee

00002386 <.eb>:
    2386:	fd 4e a8    	bset.b    0xefd, #0x2
    2388:	fd 6e a9    	bclr.b    0xefd, #0x3

0000238a <.L230>:
    238a:	4f 05 be    	mov.d     [--w15], w10
    238c:	4f 04 be    	mov.d     [--w15], w8
    238e:	00 80 fa    	ulnk      
    2390:	00 00 06    	return    
    2392:	c6 ff 37    	bra       0x2320 <.L241>

00002394 <.L226>:
    2394:	a0 77 80    	mov.w     0xef4, w0
    2396:	61 01 b8    	mul.uu    w0, #0x1, w2
    2398:	80 77 80    	mov.w     0xef0, w0
    239a:	91 77 80    	mov.w     0xef2, w1
    239c:	80 0f 51    	sub.w     w2, w0, [w15]
    239e:	81 8f 59    	subb.w    w3, w1, [w15]
    23a0:	04 00 3e    	bra       GTU, 0x23aa <.L91>
    23a2:	02 00 50    	sub.w     w0, w2, w0
    23a4:	83 80 58    	subb.w    w1, w3, w1
    23a6:	80 77 88    	mov.w     w0, 0xef0
    23a8:	91 77 88    	mov.w     w1, 0xef2

000023aa <.L91>:
    23aa:	00 c0 20    	mov.w     #0xc00, w0
    23ac:	80 00 62    	and.w     w4, w0, w1
    23ae:	4d 00 3a    	bra       NZ, 0x244a <.L228>

000023b0 <.L224>:
    23b0:	10 0e e2    	cp0.w     0xe10
    23b2:	28 00 32    	bra       Z, 0x2404 <.L229>

000023b4 <.bb>:
    23b4:	fc 0e a9    	bclr.b    0xefc, #0x0
    23b6:	fc 2e a9    	bclr.b    0xefc, #0x1
    23b8:	fc 4e a9    	bclr.b    0xefc, #0x2
    23ba:	fc 6e a9    	bclr.b    0xefc, #0x3
    23bc:	e2 77 80    	mov.w     0xefc, w2
    23be:	02 c8 a3    	btst.z    w2, #0xc
    23c0:	2a 00 32    	bra       Z, 0x2416 <.L156>

000023c2 <.L231>:
    23c2:	fd 0e a9    	bclr.b    0xefd, #0x0
    23c4:	fd 2e a8    	bset.b    0xefd, #0x1
    23c6:	8d 68 ab    	btst.b    0x88d, #0x3
    23c8:	90 00 32    	bra       Z, 0x24ea <.L158>
    23ca:	21 c0 b3    	mov.b     #0x2, w1
    23cc:	d0 8a 20    	mov.w     #0x8ad, w0
    23ce:	90 cf 10    	subr.b    w1, [w0], [w15]
    23d0:	8c 00 36    	bra       LEU, 0x24ea <.L158>
    23d2:	6f 80 60    	and.w     w1, #0xf, w0
    23d4:	44 00 dd    	sl.w      w0, #0x4, w0
    23d6:	e1 77 80    	mov.w     0xefc, w1
    23d8:	f2 f0 2f    	mov.w     #0xff0f, w2
    23da:	82 80 60    	and.w     w1, w2, w1
    23dc:	00 82 70    	ior.w     w1, w0, w4
    23de:	e4 77 88    	mov.w     w4, 0xefc

000023e0 <.L235>:
    23e0:	79 f5 07    	rcall     0xed4 <_rand>

000023e2 <.eb>:
    23e2:	f2 0f 20    	mov.w     #0xff, w2
    23e4:	11 00 09    	repeat    #0x11
    23e6:	02 00 d8    	div.sw    w0, w2
    23e8:	81 80 fb    	ze        w1, w1
    23ea:	e0 77 80    	mov.w     0xefc, w0
    23ec:	44 00 de    	lsr.w     w0, #0x4, w0
    23ee:	6f 00 60    	and.w     w0, #0xf, w0
    23f0:	12 00 20    	mov.w     #0x1, w2
    23f2:	00 11 dd    	sl.w      w2, w0, w2
    23f4:	02 01 e9    	dec.w     w2, w2
    23f6:	11 00 09    	repeat    #0x11
    23f8:	82 00 d8    	div.sw    w1, w2
    23fa:	80 00 fd    	exch      w0, w1
    23fc:	ee ee b7    	mov.b     WREG, 0xeee

000023fe <.eb>:
    23fe:	fd 4e a8    	bset.b    0xefd, #0x2
    2400:	fd 6e a9    	bclr.b    0xefd, #0x3
    2402:	c3 ff 37    	bra       0x238a <.L230>

00002404 <.L229>:
    2404:	18 0e ab    	btst.b    0xe18, #0x0
    2406:	88 ff 32    	bra       Z, 0x2318 <.L202>

00002408 <.bb>:
    2408:	fc 0e a9    	bclr.b    0xefc, #0x0
    240a:	fc 2e a9    	bclr.b    0xefc, #0x1
    240c:	fc 4e a9    	bclr.b    0xefc, #0x2
    240e:	fc 6e a9    	bclr.b    0xefc, #0x3
    2410:	e2 77 80    	mov.w     0xefc, w2
    2412:	02 c8 a3    	btst.z    w2, #0xc
    2414:	d6 ff 3a    	bra       NZ, 0x23c2 <.L231>

00002416 <.L156>:
    2416:	d1 8a 20    	mov.w     #0x8ad, w1
    2418:	91 40 78    	mov.b     [w1], w1
    241a:	ef 80 60    	and.w     w1, #0xf, w1
    241c:	c4 08 dd    	sl.w      w1, #0x4, w1
    241e:	f0 f0 2f    	mov.w     #0xff0f, w0
    2420:	00 00 61    	and.w     w2, w0, w0
    2422:	01 02 70    	ior.w     w0, w1, w4
    2424:	e4 77 88    	mov.w     w4, 0xefc

00002426 <.bb>:
    2426:	56 f5 07    	rcall     0xed4 <_rand>

00002428 <.eb>:
    2428:	f2 0f 20    	mov.w     #0xff, w2
    242a:	11 00 09    	repeat    #0x11
    242c:	02 00 d8    	div.sw    w0, w2
    242e:	81 80 fb    	ze        w1, w1
    2430:	e0 77 80    	mov.w     0xefc, w0
    2432:	44 00 de    	lsr.w     w0, #0x4, w0
    2434:	6f 00 60    	and.w     w0, #0xf, w0
    2436:	12 00 20    	mov.w     #0x1, w2
    2438:	00 11 dd    	sl.w      w2, w0, w2
    243a:	02 01 e9    	dec.w     w2, w2
    243c:	11 00 09    	repeat    #0x11
    243e:	82 00 d8    	div.sw    w1, w2
    2440:	80 00 fd    	exch      w0, w1
    2442:	ee ee b7    	mov.b     WREG, 0xeee

00002444 <.eb>:
    2444:	fd 4e a8    	bset.b    0xefd, #0x2
    2446:	fd 6e a9    	bclr.b    0xefd, #0x3
    2448:	a0 ff 37    	bra       0x238a <.L230>

0000244a <.L228>:
    244a:	00 40 20    	mov.w     #0x400, w0
    244c:	80 8f 50    	sub.w     w1, w0, [w15]
    244e:	7a 00 32    	bra       Z, 0x2544 <.L232>

00002450 <.L105>:
    2450:	00 c0 20    	mov.w     #0xc00, w0
    2452:	00 00 62    	and.w     w4, w0, w0
    2454:	01 80 20    	mov.w     #0x800, w1
    2456:	81 0f 50    	sub.w     w0, w1, [w15]
    2458:	5f ff 3a    	bra       NZ, 0x2318 <.L202>

0000245a <.L237>:
    245a:	e6 c2 bf    	mov.b     0x2e6, WREG

0000245c <.eb>:
    245c:	00 18 a3    	btst.z    w0, #0x1
    245e:	09 01 3a    	bra       NZ, 0x2672 <.L122>
    2460:	fd 0e a9    	bclr.b    0xefd, #0x0
    2462:	fd 2e a8    	bset.b    0xefd, #0x1
    2464:	e2 77 80    	mov.w     0xefc, w2
    2466:	ef 40 61    	and.b     w2, #0xf, w1
    2468:	a7 c8 bf    	mov.b     0x8a7, WREG
    246a:	81 4f 50    	sub.b     w0, w1, [w15]
    246c:	97 00 39    	bra       NC, 0x259c <.L217>
    246e:	81 40 e8    	inc.b     w1, w1
    2470:	ef 80 60    	and.w     w1, #0xf, w1
    2472:	00 ff 2f    	mov.w     #0xfff0, w0
    2474:	00 00 61    	and.w     w2, w0, w0
    2476:	01 02 70    	ior.w     w0, w1, w4
    2478:	e4 77 88    	mov.w     w4, 0xefc
    247a:	44 20 de    	lsr.w     w4, #0x4, w0
    247c:	ef 40 60    	and.b     w0, #0xf, w1
    247e:	a6 c8 bf    	mov.b     0x8a6, WREG
    2480:	81 4f 50    	sub.b     w0, w1, [w15]
    2482:	72 ff 36    	bra       LEU, 0x2368 <.L179>
    2484:	81 40 e8    	inc.b     w1, w1
    2486:	ef 80 60    	and.w     w1, #0xf, w1
    2488:	c4 08 dd    	sl.w      w1, #0x4, w1
    248a:	f0 f0 2f    	mov.w     #0xff0f, w0
    248c:	00 00 62    	and.w     w4, w0, w0
    248e:	01 02 70    	ior.w     w0, w1, w4
    2490:	e4 77 88    	mov.w     w4, 0xefc

00002492 <.bb>:
    2492:	20 f5 07    	rcall     0xed4 <_rand>

00002494 <.eb>:
    2494:	f2 0f 20    	mov.w     #0xff, w2
    2496:	11 00 09    	repeat    #0x11
    2498:	02 00 d8    	div.sw    w0, w2
    249a:	81 80 fb    	ze        w1, w1
    249c:	e0 77 80    	mov.w     0xefc, w0
    249e:	44 00 de    	lsr.w     w0, #0x4, w0
    24a0:	6f 00 60    	and.w     w0, #0xf, w0
    24a2:	12 00 20    	mov.w     #0x1, w2
    24a4:	00 11 dd    	sl.w      w2, w0, w2
    24a6:	02 01 e9    	dec.w     w2, w2
    24a8:	11 00 09    	repeat    #0x11
    24aa:	82 00 d8    	div.sw    w1, w2
    24ac:	80 00 fd    	exch      w0, w1
    24ae:	ee ee b7    	mov.b     WREG, 0xeee

000024b0 <.eb>:
    24b0:	fd 4e a8    	bset.b    0xefd, #0x2
    24b2:	fd 6e a9    	bclr.b    0xefd, #0x3
    24b4:	6a ff 37    	bra       0x238a <.L230>

000024b6 <.L227>:
    24b6:	ee 4e ed    	dec.b     0xeee, WREG
    24b8:	ee ee b7    	mov.b     WREG, 0xeee
    24ba:	e1 4f 40    	add.b     w0, #0x1, [w15]
    24bc:	37 ff 3a    	bra       NZ, 0x232c <.L163>

000024be <.bb>:
    24be:	70 00 20    	mov.w     #0x7, w0
    24c0:	ae 27 07    	rcall     0x741e <_EE_fp_GetResource>

000024c2 <.bb>:
    24c2:	10 0e e2    	cp0.w     0xe10
    24c4:	05 00 32    	bra       Z, 0x24d0 <.L168>
    24c6:	72 70 80    	mov.w     0xe0e, w2
    24c8:	a0 70 80    	mov.w     0xe14, w0
    24ca:	00 91 b9    	mul.ss    w2, w0, w2
    24cc:	b0 70 80    	mov.w     0xe16, w0
    24ce:	00 04 41    	add.w     w2, w0, w8

000024d0 <.L168>:
    24d0:	70 00 20    	mov.w     #0x7, w0
    24d2:	80 27 07    	rcall     0x73d4 <_EE_fp_ReleaseResource>

000024d4 <.eb>:
    24d4:	08 00 e0    	cp0.w     w8
    24d6:	07 01 32    	bra       Z, 0x26e6 <.L233>
    24d8:	fd 4e a9    	bclr.b    0xefd, #0x2
    24da:	fd 6e a8    	bset.b    0xefd, #0x3
    24dc:	e4 77 80    	mov.w     0xefc, w4

000024de <.L238>:
    24de:	00 c0 20    	mov.w     #0xc00, w0
    24e0:	00 00 62    	and.w     w4, w0, w0
    24e2:	01 80 20    	mov.w     #0x800, w1
    24e4:	81 0f 50    	sub.w     w0, w1, [w15]
    24e6:	18 ff 3a    	bra       NZ, 0x2318 <.L202>
    24e8:	26 ff 37    	bra       0x2336 <.L234>

000024ea <.L158>:
    24ea:	ad c8 bf    	mov.b     0x8ad, WREG
    24ec:	ef 40 60    	and.b     w0, #0xf, w1
    24ee:	6f 80 60    	and.w     w1, #0xf, w0
    24f0:	44 00 dd    	sl.w      w0, #0x4, w0
    24f2:	e1 77 80    	mov.w     0xefc, w1
    24f4:	f2 f0 2f    	mov.w     #0xff0f, w2
    24f6:	82 80 60    	and.w     w1, w2, w1
    24f8:	00 82 70    	ior.w     w1, w0, w4
    24fa:	e4 77 88    	mov.w     w4, 0xefc
    24fc:	71 ff 37    	bra       0x23e0 <.L235>

000024fe <.L172>:
    24fe:	18 0e ab    	btst.b    0xe18, #0x0
    2500:	67 00 3a    	bra       NZ, 0x25d0 <.L236>

00002502 <.L181>:
    2502:	10 0e e2    	cp0.w     0xe10
    2504:	18 00 32    	bra       Z, 0x2536 <.L196>
    2506:	70 70 80    	mov.w     0xe0e, w0
    2508:	a2 70 80    	mov.w     0xe14, w2
    250a:	02 81 b9    	mul.ss    w0, w2, w2
    250c:	b1 70 80    	mov.w     0xe16, w1
    250e:	01 01 41    	add.w     w2, w1, w2
    2510:	00 00 e8    	inc.w     w0, w0
    2512:	94 70 80    	mov.w     0xe12, w4
    2514:	11 00 09    	repeat    #0x11
    2516:	04 80 d8    	div.uw    w0, w4
    2518:	71 70 88    	mov.w     w1, 0xe0e
    251a:	10 2e ed    	dec.w     0xe10
    251c:	02 04 78    	mov.w     w2, w8

0000251e <.L193>:
    251e:	08 00 e0    	cp0.w     w8
    2520:	0a 00 32    	bra       Z, 0x2536 <.L196>
    2522:	f8 38 90    	mov.w     [w8+126], w1
    2524:	c9 08 de    	lsr.w     w1, #0x9, w1
    2526:	08 00 78    	mov.w     w8, w0
    2528:	0c 26 07    	rcall     0x7142 <_uwl_radio_phy_send_now>
    252a:	00 04 e0    	cp0.b     w0
    252c:	09 01 3a    	bra       NZ, 0x2740 <.L198>
    252e:	08 40 91    	mov.b     [w8+128], w0
    2530:	60 11 b8    	mul.uu    w2, #0x0, w2
    2532:	80 00 eb    	clr.w     w1
    2534:	52 1a 07    	rcall     0x59da <_uwl_MCPS_DATA_confirm>

00002536 <.L196>:
    2536:	fd 4e a9    	bclr.b    0xefd, #0x2
    2538:	fd 6e a9    	bclr.b    0xefd, #0x3

0000253a <.L239>:
    253a:	4f 05 be    	mov.d     [--w15], w10
    253c:	4f 04 be    	mov.d     [--w15], w8
    253e:	00 80 fa    	ulnk      
    2540:	00 00 06    	return    
    2542:	ee fe 37    	bra       0x2320 <.L241>

00002544 <.L232>:
    2544:	ee 4e ed    	dec.b     0xeee, WREG
    2546:	ee ee b7    	mov.b     WREG, 0xeee
    2548:	e1 4f 40    	add.b     w0, #0x1, [w15]
    254a:	82 ff 3a    	bra       NZ, 0x2450 <.L105>

0000254c <.bb>:
    254c:	70 00 20    	mov.w     #0x7, w0
    254e:	67 27 07    	rcall     0x741e <_EE_fp_GetResource>

00002550 <.bb>:
    2550:	10 0e e2    	cp0.w     0xe10
    2552:	fd 00 3a    	bra       NZ, 0x274e <.L108>
    2554:	00 04 eb    	clr.w     w8
    2556:	88 04 78    	mov.w     w8, w9

00002558 <.L110>:
    2558:	70 00 20    	mov.w     #0x7, w0
    255a:	3c 27 07    	rcall     0x73d4 <_EE_fp_ReleaseResource>

0000255c <.eb>:
    255c:	08 00 e0    	cp0.w     w8
    255e:	07 01 32    	bra       Z, 0x276e <.L111>
    2560:	79 38 90    	mov.w     [w9+126], w0
    2562:	49 02 de    	lsr.w     w0, #0x9, w4

00002564 <.bb>:
    2564:	04 80 fb    	ze        w4, w0
    2566:	01 00 20    	mov.w     #0x0, w1
    2568:	00 01 40    	add.w     w0, w0, w2
    256a:	81 81 48    	addc.w    w1, w1, w3
    256c:	01 c2 b3    	mov.b     #0x20, w1
    256e:	19 c0 60    	and.b     w1, [w9], w0
    2570:	02 00 32    	bra       Z, 0x2576 <.L113>
    2572:	72 01 41    	add.w     w2, #0x12, w2
    2574:	e0 81 49    	addc.w    w3, #0x0, w3

00002576 <.L113>:
    2576:	f1 4f 52    	sub.b     w4, #0x11, [w15]
    2578:	f1 00 3e    	bra       GTU, 0x275c <.L115>
    257a:	30 77 80    	mov.w     0xee6, w0

0000257c <.eb>:
    257c:	00 01 41    	add.w     w2, w0, w2
    257e:	e0 81 49    	addc.w    w3, #0x0, w3
    2580:	80 77 80    	mov.w     0xef0, w0
    2582:	91 77 80    	mov.w     0xef2, w1
    2584:	80 0f 51    	sub.w     w2, w0, [w15]
    2586:	81 8f 59    	subb.w    w3, w1, [w15]
    2588:	ef fe 3e    	bra       GTU, 0x2368 <.L179>

0000258a <.L118>:
    258a:	fd 4e a9    	bclr.b    0xefd, #0x2
    258c:	fd 6e a8    	bset.b    0xefd, #0x3
    258e:	e4 77 80    	mov.w     0xefc, w4

00002590 <.L240>:
    2590:	00 c0 20    	mov.w     #0xc00, w0
    2592:	00 00 62    	and.w     w4, w0, w0
    2594:	01 80 20    	mov.w     #0x800, w1
    2596:	81 0f 50    	sub.w     w0, w1, [w15]
    2598:	bf fe 3a    	bra       NZ, 0x2318 <.L202>
    259a:	5f ff 37    	bra       0x245a <.L237>

0000259c <.L217>:
    259c:	00 00 eb    	clr.w     w0
    259e:	10 0e e2    	cp0.w     0xe10
    25a0:	0c 00 32    	bra       Z, 0x25ba <.L178>
    25a2:	70 70 80    	mov.w     0xe0e, w0
    25a4:	a2 70 80    	mov.w     0xe14, w2
    25a6:	02 81 b9    	mul.ss    w0, w2, w2
    25a8:	b1 70 80    	mov.w     0xe16, w1
    25aa:	01 01 41    	add.w     w2, w1, w2
    25ac:	00 00 e8    	inc.w     w0, w0
    25ae:	94 70 80    	mov.w     0xe12, w4
    25b0:	11 00 09    	repeat    #0x11
    25b2:	04 80 d8    	div.uw    w0, w4
    25b4:	71 70 88    	mov.w     w1, 0xe0e
    25b6:	10 2e ed    	dec.w     0xe10
    25b8:	02 00 78    	mov.w     w2, w0

000025ba <.L178>:
    25ba:	00 40 91    	mov.b     [w0+128], w0
    25bc:	60 11 b8    	mul.uu    w2, #0x0, w2
    25be:	11 0e 20    	mov.w     #0xe1, w1
    25c0:	0c 1a 07    	rcall     0x59da <_uwl_MCPS_DATA_confirm>
    25c2:	fd 4e a9    	bclr.b    0xefd, #0x2
    25c4:	fd 6e a9    	bclr.b    0xefd, #0x3

000025c6 <.eb>:
    25c6:	4f 05 be    	mov.d     [--w15], w10
    25c8:	4f 04 be    	mov.d     [--w15], w8
    25ca:	00 80 fa    	ulnk      
    25cc:	00 00 06    	return    
    25ce:	a8 fe 37    	bra       0x2320 <.L241>

000025d0 <.L236>:
    25d0:	00 e0 20    	mov.w     #0xe00, w0
    25d2:	03 1b 07    	rcall     0x5bda <_list_iter_front>
    25d4:	00 04 78    	mov.w     w0, w8
    25d6:	63 00 40    	add.w     w0, #0x3, w0
    25d8:	10 41 78    	mov.b     [w0], w2
    25da:	e2 ef 9f    	mov.b     w2, [w15-18]
    25dc:	10 40 90    	mov.b     [w0+1], w0
    25de:	f0 ef 9f    	mov.b     w0, [w15-17]
    25e0:	ec 85 57    	sub.w     w15, #0xc, w11
    25e2:	65 00 44    	add.w     w8, #0x5, w0
    25e4:	03 00 09    	repeat    #0x3
    25e6:	b0 5d 78    	mov.b     [w0++], [w11++]
    25e8:	4b 00 b1    	sub.w     #0x4, w11
    25ea:	40 00 b1    	sub.w     #0x4, w0
    25ec:	70 85 57    	sub.w     w15, #0x10, w10
    25ee:	69 00 44    	add.w     w8, #0x9, w0
    25f0:	03 00 09    	repeat    #0x3
    25f2:	30 5d 78    	mov.b     [w0++], [w10++]
    25f4:	4a 00 b1    	sub.w     #0x4, w10
    25f6:	40 00 b1    	sub.w     #0x4, w0
    25f8:	2f b9 97    	mov.w     [w15-12], w2
    25fa:	bf b9 97    	mov.w     [w15-10], w3
    25fc:	e0 70 80    	mov.w     0xe1c, w0
    25fe:	f1 70 80    	mov.w     0xe1e, w1
    2600:	80 0f 51    	sub.w     w2, w0, [w15]
    2602:	81 8f 59    	subb.w    w3, w1, [w15]
    2604:	6b 00 32    	bra       Z, 0x26dc <.L183>
    2606:	0f b9 97    	mov.w     [w15-16], w2
    2608:	9f b9 97    	mov.w     [w15-14], w3
    260a:	00 71 80    	mov.w     0xe20, w0
    260c:	11 71 80    	mov.w     0xe22, w1
    260e:	80 0f 51    	sub.w     w2, w0, [w15]
    2610:	81 8f 59    	subb.w    w3, w1, [w15]
    2612:	64 00 32    	bra       Z, 0x26dc <.L183>
    2614:	80 44 eb    	clr.b     w9
    2616:	d0 70 80    	mov.w     0xe1a, w0
    2618:	7f b1 97    	mov.w     [w15-18], w2
    261a:	80 0f 51    	sub.w     w2, w0, [w15]
    261c:	5f 00 32    	bra       Z, 0x26dc <.L183>

0000261e <.L186>:
    261e:	00 e0 20    	mov.w     #0xe00, w0
    2620:	e7 1a 07    	rcall     0x5bf0 <_list_iter_next>
    2622:	00 04 78    	mov.w     w0, w8
    2624:	89 44 e8    	inc.b     w9, w9
    2626:	63 00 40    	add.w     w0, #0x3, w0
    2628:	90 40 78    	mov.b     [w0], w1
    262a:	e1 ef 9f    	mov.b     w1, [w15-18]
    262c:	10 40 90    	mov.b     [w0+1], w0
    262e:	f0 ef 9f    	mov.b     w0, [w15-17]
    2630:	65 00 44    	add.w     w8, #0x5, w0
    2632:	03 00 09    	repeat    #0x3
    2634:	b0 5d 78    	mov.b     [w0++], [w11++]
    2636:	4b 00 b1    	sub.w     #0x4, w11
    2638:	40 00 b1    	sub.w     #0x4, w0
    263a:	69 00 44    	add.w     w8, #0x9, w0
    263c:	03 00 09    	repeat    #0x3
    263e:	30 5d 78    	mov.b     [w0++], [w10++]
    2640:	4a 00 b1    	sub.w     #0x4, w10
    2642:	40 00 b1    	sub.w     #0x4, w0
    2644:	2f b9 97    	mov.w     [w15-12], w2
    2646:	bf b9 97    	mov.w     [w15-10], w3
    2648:	e0 70 80    	mov.w     0xe1c, w0
    264a:	f1 70 80    	mov.w     0xe1e, w1
    264c:	80 0f 51    	sub.w     w2, w0, [w15]
    264e:	81 8f 59    	subb.w    w3, w1, [w15]
    2650:	0b 00 32    	bra       Z, 0x2668 <.L206>
    2652:	0f b9 97    	mov.w     [w15-16], w2
    2654:	9f b9 97    	mov.w     [w15-14], w3
    2656:	00 71 80    	mov.w     0xe20, w0
    2658:	11 71 80    	mov.w     0xe22, w1
    265a:	80 0f 51    	sub.w     w2, w0, [w15]
    265c:	81 8f 59    	subb.w    w3, w1, [w15]
    265e:	04 00 32    	bra       Z, 0x2668 <.L206>
    2660:	d0 70 80    	mov.w     0xe1a, w0
    2662:	7f b1 97    	mov.w     [w15-18], w2
    2664:	80 0f 51    	sub.w     w2, w0, [w15]
    2666:	db ff 3a    	bra       NZ, 0x261e <.L186>

00002668 <.L206>:
    2668:	89 80 fb    	ze        w9, w1

0000266a <.L189>:
    266a:	00 e0 20    	mov.w     #0xe00, w0
    266c:	74 1a 07    	rcall     0x5b56 <_list_extract>
    266e:	18 0e a9    	bclr.b    0xe18, #0x0
    2670:	56 ff 37    	bra       0x251e <.L193>

00002672 <.L122>:
    2672:	48 20 de    	lsr.w     w4, #0x8, w0
    2674:	63 40 40    	add.b     w0, #0x3, w0
    2676:	63 00 60    	and.w     w0, #0x3, w0
    2678:	48 00 dd    	sl.w      w0, #0x8, w0
    267a:	f1 cf 2f    	mov.w     #0xfcff, w1
    267c:	81 00 62    	and.w     w4, w1, w1
    267e:	00 82 70    	ior.w     w1, w0, w4
    2680:	e4 77 88    	mov.w     w4, 0xefc
    2682:	48 20 de    	lsr.w     w4, #0x8, w0
    2684:	63 00 60    	and.w     w0, #0x3, w0
    2686:	42 40 a9    	bclr.b    0x42, #0x2
    2688:	47 fe 3c    	bra       GT, 0x2318 <.L202>
    268a:	18 0e ab    	btst.b    0xe18, #0x0
    268c:	3a ff 32    	bra       Z, 0x2502 <.L181>
    268e:	00 e0 20    	mov.w     #0xe00, w0
    2690:	a4 1a 07    	rcall     0x5bda <_list_iter_front>
    2692:	00 04 78    	mov.w     w0, w8
    2694:	63 00 40    	add.w     w0, #0x3, w0
    2696:	10 41 78    	mov.b     [w0], w2
    2698:	e2 ef 9f    	mov.b     w2, [w15-18]
    269a:	10 40 90    	mov.b     [w0+1], w0
    269c:	f0 ef 9f    	mov.b     w0, [w15-17]
    269e:	ec 85 57    	sub.w     w15, #0xc, w11
    26a0:	65 00 44    	add.w     w8, #0x5, w0
    26a2:	03 00 09    	repeat    #0x3
    26a4:	b0 5d 78    	mov.b     [w0++], [w11++]
    26a6:	4b 00 b1    	sub.w     #0x4, w11
    26a8:	40 00 b1    	sub.w     #0x4, w0
    26aa:	70 85 57    	sub.w     w15, #0x10, w10
    26ac:	69 00 44    	add.w     w8, #0x9, w0
    26ae:	03 00 09    	repeat    #0x3
    26b0:	30 5d 78    	mov.b     [w0++], [w10++]
    26b2:	4a 00 b1    	sub.w     #0x4, w10
    26b4:	40 00 b1    	sub.w     #0x4, w0
    26b6:	e2 70 80    	mov.w     0xe1c, w2
    26b8:	f3 70 80    	mov.w     0xe1e, w3
    26ba:	2f b8 97    	mov.w     [w15-12], w0
    26bc:	bf b8 97    	mov.w     [w15-10], w1
    26be:	80 0f 51    	sub.w     w2, w0, [w15]
    26c0:	81 8f 59    	subb.w    w3, w1, [w15]
    26c2:	0c 00 32    	bra       Z, 0x26dc <.L183>
    26c4:	02 71 80    	mov.w     0xe20, w2
    26c6:	13 71 80    	mov.w     0xe22, w3
    26c8:	0f b8 97    	mov.w     [w15-16], w0
    26ca:	9f b8 97    	mov.w     [w15-14], w1
    26cc:	80 0f 51    	sub.w     w2, w0, [w15]
    26ce:	81 8f 59    	subb.w    w3, w1, [w15]
    26d0:	05 00 32    	bra       Z, 0x26dc <.L183>
    26d2:	80 44 eb    	clr.b     w9
    26d4:	d0 70 80    	mov.w     0xe1a, w0
    26d6:	ff b0 97    	mov.w     [w15-18], w1
    26d8:	81 0f 50    	sub.w     w0, w1, [w15]
    26da:	0b 00 3a    	bra       NZ, 0x26f2 <.L137>

000026dc <.L183>:
    26dc:	80 00 eb    	clr.w     w1
    26de:	00 e0 20    	mov.w     #0xe00, w0
    26e0:	3a 1a 07    	rcall     0x5b56 <_list_extract>
    26e2:	18 0e a9    	bclr.b    0xe18, #0x0
    26e4:	1c ff 37    	bra       0x251e <.L193>

000026e6 <.L233>:
    26e6:	18 0e ab    	btst.b    0xe18, #0x0
    26e8:	17 fe 32    	bra       Z, 0x2318 <.L202>
    26ea:	fd 4e a9    	bclr.b    0xefd, #0x2
    26ec:	fd 6e a8    	bset.b    0xefd, #0x3
    26ee:	e4 77 80    	mov.w     0xefc, w4
    26f0:	f6 fe 37    	bra       0x24de <.L238>

000026f2 <.L137>:
    26f2:	00 e0 20    	mov.w     #0xe00, w0
    26f4:	7d 1a 07    	rcall     0x5bf0 <_list_iter_next>
    26f6:	00 04 78    	mov.w     w0, w8
    26f8:	89 44 e8    	inc.b     w9, w9
    26fa:	63 00 40    	add.w     w0, #0x3, w0
    26fc:	90 40 78    	mov.b     [w0], w1
    26fe:	e1 ef 9f    	mov.b     w1, [w15-18]
    2700:	10 40 90    	mov.b     [w0+1], w0
    2702:	f0 ef 9f    	mov.b     w0, [w15-17]
    2704:	65 00 44    	add.w     w8, #0x5, w0
    2706:	03 00 09    	repeat    #0x3
    2708:	b0 5d 78    	mov.b     [w0++], [w11++]
    270a:	4b 00 b1    	sub.w     #0x4, w11
    270c:	40 00 b1    	sub.w     #0x4, w0
    270e:	69 00 44    	add.w     w8, #0x9, w0
    2710:	03 00 09    	repeat    #0x3
    2712:	30 5d 78    	mov.b     [w0++], [w10++]
    2714:	4a 00 b1    	sub.w     #0x4, w10
    2716:	40 00 b1    	sub.w     #0x4, w0
    2718:	e2 70 80    	mov.w     0xe1c, w2
    271a:	f3 70 80    	mov.w     0xe1e, w3
    271c:	2f b8 97    	mov.w     [w15-12], w0
    271e:	bf b8 97    	mov.w     [w15-10], w1
    2720:	80 0f 51    	sub.w     w2, w0, [w15]
    2722:	81 8f 59    	subb.w    w3, w1, [w15]
    2724:	a1 ff 32    	bra       Z, 0x2668 <.L206>
    2726:	02 71 80    	mov.w     0xe20, w2
    2728:	13 71 80    	mov.w     0xe22, w3
    272a:	0f b8 97    	mov.w     [w15-16], w0
    272c:	9f b8 97    	mov.w     [w15-14], w1
    272e:	80 0f 51    	sub.w     w2, w0, [w15]
    2730:	81 8f 59    	subb.w    w3, w1, [w15]
    2732:	9a ff 32    	bra       Z, 0x2668 <.L206>
    2734:	d0 70 80    	mov.w     0xe1a, w0
    2736:	7f b1 97    	mov.w     [w15-18], w2
    2738:	82 0f 50    	sub.w     w0, w2, [w15]
    273a:	db ff 3a    	bra       NZ, 0x26f2 <.L137>

0000273c <.bb>:
    273c:	89 80 fb    	ze        w9, w1
    273e:	95 ff 37    	bra       0x266a <.L189>

00002740 <.L198>:
    2740:	08 40 91    	mov.b     [w8+128], w0
    2742:	60 11 b8    	mul.uu    w2, #0x0, w2
    2744:	11 0e 20    	mov.w     #0xe1, w1
    2746:	49 19 07    	rcall     0x59da <_uwl_MCPS_DATA_confirm>
    2748:	fd 4e a9    	bclr.b    0xefd, #0x2
    274a:	fd 6e a9    	bclr.b    0xefd, #0x3
    274c:	f6 fe 37    	bra       0x253a <.L239>

0000274e <.L108>:
    274e:	72 70 80    	mov.w     0xe0e, w2
    2750:	a0 70 80    	mov.w     0xe14, w0
    2752:	00 91 b9    	mul.ss    w2, w0, w2
    2754:	b0 70 80    	mov.w     0xe16, w0
    2756:	00 04 41    	add.w     w2, w0, w8
    2758:	88 04 78    	mov.w     w8, w9
    275a:	fe fe 37    	bra       0x2558 <.L110>

0000275c <.L115>:
    275c:	20 77 80    	mov.w     0xee4, w0

0000275e <.eb>:
    275e:	00 01 41    	add.w     w2, w0, w2
    2760:	e0 81 49    	addc.w    w3, #0x0, w3
    2762:	80 77 80    	mov.w     0xef0, w0
    2764:	91 77 80    	mov.w     0xef2, w1
    2766:	80 0f 51    	sub.w     w2, w0, [w15]
    2768:	81 8f 59    	subb.w    w3, w1, [w15]
    276a:	fe fd 3e    	bra       GTU, 0x2368 <.L179>
    276c:	0e ff 37    	bra       0x258a <.L118>

0000276e <.L111>:
    276e:	18 0e ab    	btst.b    0xe18, #0x0
    2770:	d3 fd 32    	bra       Z, 0x2318 <.L202>
    2772:	fd 4e a9    	bclr.b    0xefd, #0x2
    2774:	fd 6e a8    	bset.b    0xefd, #0x3
    2776:	e4 77 80    	mov.w     0xefc, w4
    2778:	0b ff 37    	bra       0x2590 <.L240>

0000277a <_uwl_mac_superframe_stop>:
    277a:	20 00 20    	mov.w     #0x2, w0
    277c:	cb 26 07    	rcall     0x7514 <_EE_alarm_CancelAlarm>

0000277e <.bb>:
    277e:	30 00 20    	mov.w     #0x3, w0
    2780:	c9 26 07    	rcall     0x7514 <_EE_alarm_CancelAlarm>

00002782 <.bb>:
    2782:	40 00 20    	mov.w     #0x4, w0

00002784 <.eb>:
    2784:	c7 26 37    	bra       0x7514 <_EE_alarm_CancelAlarm>

00002786 <_on_timeslot_start>:
    2786:	08 00 fa    	lnk       #0x8
    2788:	88 9f be    	mov.d     w8, [w15++]
    278a:	8a 9f be    	mov.d     w10, [w15++]
    278c:	8c 9f be    	mov.d     w12, [w15++]
    278e:	36 cf bf    	mov.b     0xf36, WREG
    2790:	00 80 fb    	ze        w0, w0
    2792:	00 00 e8    	inc.w     w0, w0
    2794:	02 01 20    	mov.w     #0x10, w2
    2796:	11 00 09    	repeat    #0x11
    2798:	02 00 d8    	div.sw    w0, w2
    279a:	01 00 78    	mov.w     w1, w0
    279c:	36 ef b7    	mov.b     WREG, 0xf36
    279e:	01 04 e0    	cp0.b     w1
    27a0:	74 00 3a    	bra       NZ, 0x288a <.L248>
    27a2:	a0 79 80    	mov.w     0xf34, w0
    27a4:	00 08 a3    	btst.z    w0, #0x0
    27a6:	b7 01 3a    	bra       NZ, 0x2b16 <.L352>
    27a8:	00 38 a3    	btst.z    w0, #0x3
    27aa:	41 01 32    	bra       Z, 0x2a2e <.L266>

000027ac <.bb>:
    27ac:	43 71 80    	mov.w     0xe28, w3
    27ae:	66 84 61    	and.w     w3, #0x6, w8
    27b0:	a6 02 3a    	bra       NZ, 0x2cfe <.L353>
    27b2:	48 19 de    	lsr.w     w3, #0x8, w2
    27b4:	6f 41 61    	and.b     w2, #0xf, w2
    27b6:	82 40 e8    	inc.b     w2, w1
    27b8:	ef 80 60    	and.w     w1, #0xf, w1
    27ba:	c8 08 dd    	sl.w      w1, #0x8, w1
    27bc:	f0 0f 2f    	mov.w     #0xf0ff, w0
    27be:	00 80 61    	and.w     w3, w0, w0
    27c0:	01 00 70    	ior.w     w0, w1, w0
    27c2:	40 71 88    	mov.w     w0, 0xe28
    27c4:	02 81 fb    	ze        w2, w2
    27c6:	e4 0f 51    	sub.w     w2, #0x4, [w15]
    27c8:	c7 02 3c    	bra       GT, 0x2d58 <.L354>

000027ca <.L270>:
    27ca:	34 af a9    	bclr.b    0xf34, #0x5
    27cc:	34 4f ab    	btst.b    0xf34, #0x2
    27ce:	02 00 32    	bra       Z, 0x27d4 <.L272>
    27d0:	29 ae ab    	btst.b    0xe29, #0x5
    27d2:	ea 02 32    	bra       Z, 0x2da8 <.L355>

000027d4 <.L272>:
    27d4:	30 00 20    	mov.w     #0x3, w0
    27d6:	23 26 07    	rcall     0x741e <_EE_fp_GetResource>

000027d8 <.eb>:
    27d8:	40 71 80    	mov.w     0xe28, w0
    27da:	66 00 60    	and.w     w0, #0x6, w0
    27dc:	63 02 32    	bra       Z, 0x2ca4 <.L276>

000027de <.bb>:
    27de:	b8 c8 bf    	mov.b     0x8b8, WREG
    27e0:	00 80 fb    	ze        w0, w0
    27e2:	3c 00 20    	mov.w     #0x3, w12
    27e4:	0d 00 20    	mov.w     #0x0, w13

000027e6 <.LB1531>:
    27e6:	00 00 e9    	dec.w     w0, w0
    27e8:	03 00 33    	bra       N, 0x27f0 <.LE1531>
    27ea:	0c 06 46    	add.w     w12, w12, w12
    27ec:	8d 86 4e    	addc.w    w13, w13, w13
    27ee:	fb ff 37    	bra       0x27e6 <.LB1531>

000027f0 <.LE1531>:
    27f0:	20 77 80    	mov.w     0xee4, w0
    27f2:	61 01 b8    	mul.uu    w0, #0x1, w2
    27f4:	82 bf 9f    	mov.w     w2, [w15-16]
    27f6:	93 bf 9f    	mov.w     w3, [w15-14]
    27f8:	00 05 eb    	clr.w     w10
    27fa:	c9 16 23    	mov.w     #0x316c, w9
    27fc:	0b 6a 28    	mov.w     #0x86a0, w11
    27fe:	68 f5 20    	mov.w     #0xf56, w8

00002800 <.L278>:
    2800:	18 00 78    	mov.w     [w8], w0
    2802:	66 04 44    	add.w     w8, #0x6, w8
    2804:	44 00 de    	lsr.w     w0, #0x4, w0
    2806:	6f 40 60    	and.b     w0, #0xf, w0

00002808 <.bb>:
    2808:	37 02 32    	bra       Z, 0x2c78 <.L279>
    280a:	00 80 fb    	ze        w0, w0
    280c:	01 00 20    	mov.w     #0x0, w1
    280e:	0c 01 b8    	mul.uu    w0, w12, w2
    2810:	0d 80 b9    	mul.ss    w0, w13, w0
    2812:	80 81 41    	add.w     w3, w0, w3

00002814 <.bb>:
    2814:	0b 10 b8    	mul.uu    w2, w11, w0
    2816:	01 02 41    	add.w     w2, w1, w4
    2818:	0b 99 b9    	mul.ss    w3, w11, w2
    281a:	82 00 42    	add.w     w4, w2, w1

0000281c <.eb>:
    281c:	02 71 22    	mov.w     #0x2710, w2
    281e:	03 00 20    	mov.w     #0x0, w3
    2820:	19 ee 07    	rcall     0x454
    2822:	0f b9 97    	mov.w     [w15-16], w2
    2824:	9f b9 97    	mov.w     [w15-14], w3
    2826:	82 1c 50    	sub.w     w0, w2, [w9++]
    2828:	83 94 58    	subb.w    w1, w3, [w9--]
    282a:	0a 05 e8    	inc.w     w10, w10
    282c:	e4 84 44    	add.w     w9, #0x4, w9

0000282e <.eb>:
    282e:	e7 0f 55    	sub.w     w10, #0x7, [w15]
    2830:	e7 ff 3a    	bra       NZ, 0x2800 <.L278>

00002832 <.L282>:
    2832:	30 00 20    	mov.w     #0x3, w0
    2834:	cf 25 07    	rcall     0x73d4 <_EE_fp_ReleaseResource>

00002836 <.L275>:
    2836:	88 8b 20    	mov.w     #0x8b8, w8
    2838:	18 44 78    	mov.b     [w8], w8
    283a:	33 89 20    	mov.w     #0x893, w3
    283c:	93 41 78    	mov.b     [w3], w3
    283e:	03 44 e1    	cp.b      w8, w3
    2840:	02 00 31    	bra       C, 0x2846 <.L285>
    2842:	34 0f a8    	bset.b    0xf34, #0x0
    2844:	34 2f a8    	bset.b    0xf34, #0x1

00002846 <.L285>:
    2846:	22 71 80    	mov.w     0xe24, w2
    2848:	43 11 de    	lsr.w     w2, #0x3, w2
    284a:	7f 41 61    	and.b     w2, #0x1f, w2
    284c:	02 81 fb    	ze        w2, w2
    284e:	03 00 20    	mov.w     #0x0, w3

00002850 <.bb>:
    2850:	04 6a 28    	mov.w     #0x86a0, w4
    2852:	04 10 b8    	mul.uu    w2, w4, w0
    2854:	82 80 40    	add.w     w1, w2, w1

00002856 <.eb>:
    2856:	02 71 22    	mov.w     #0x2710, w2
    2858:	03 00 20    	mov.w     #0x0, w3
    285a:	fc ed 07    	rcall     0x454
    285c:	08 82 fb    	ze        w8, w4
    285e:	32 00 20    	mov.w     #0x3, w2
    2860:	03 00 20    	mov.w     #0x0, w3

00002862 <.LB1624>:
    2862:	04 02 e9    	dec.w     w4, w4
    2864:	03 00 33    	bra       N, 0x286c <.LE1624>
    2866:	02 01 41    	add.w     w2, w2, w2
    2868:	83 81 49    	addc.w    w3, w3, w3
    286a:	fb ff 37    	bra       0x2862 <.LB1624>

0000286c <.LE1624>:
    286c:	00 13 b8    	mul.uu    w2, w0, w6
    286e:	03 82 b9    	mul.ss    w0, w3, w4
    2870:	07 02 42    	add.w     w4, w7, w4
    2872:	01 91 b9    	mul.ss    w2, w1, w2
    2874:	82 03 42    	add.w     w4, w2, w7
    2876:	86 77 88    	mov.w     w6, 0xef0
    2878:	97 77 88    	mov.w     w7, 0xef2
    287a:	28 ce a8    	bset.b    0xe28, #0x6
    287c:	28 ee a9    	bclr.b    0xe28, #0x7
    287e:	29 ae a9    	bclr.b    0xe29, #0x5

00002880 <.L346>:
    2880:	4f 06 be    	mov.d     [--w15], w12
    2882:	4f 05 be    	mov.d     [--w15], w10
    2884:	4f 04 be    	mov.d     [--w15], w8
    2886:	00 80 fa    	ulnk      
    2888:	00 00 06    	return    

0000288a <.L248>:
    288a:	e1 cf 50    	sub.b     w1, #0x1, [w15]
    288c:	96 01 32    	bra       Z, 0x2bba <.L356>

0000288e <.L300>:
    288e:	a5 48 e2    	cp0.b     0x8a5
    2890:	f7 ff 32    	bra       Z, 0x2880 <.L346>

00002892 <.L365>:
    2892:	61 f3 20    	mov.w     #0xf36, w1
    2894:	91 40 78    	mov.b     [w1], w1
    2896:	81 80 fb    	ze        w1, w1
    2898:	a0 79 80    	mov.w     0xf34, w0
    289a:	4a 00 de    	lsr.w     w0, #0xa, w0
    289c:	7f 00 60    	and.w     w0, #0x1f, w0
    289e:	80 8f 50    	sub.w     w1, w0, [w15]
    28a0:	af 01 32    	bra       Z, 0x2c00 <.L357>

000028a2 <.L322>:
    28a2:	41 71 80    	mov.w     0xe28, w1
    28a4:	66 80 60    	and.w     w1, #0x6, w0
    28a6:	85 00 32    	bra       Z, 0x29b2 <.L324>

000028a8 <.bb>:
    28a8:	01 0c b2    	and.w     #0xc0, w1
    28aa:	00 08 20    	mov.w     #0x80, w0
    28ac:	80 8f 50    	sub.w     w1, w0, [w15]
    28ae:	e8 ff 3a    	bra       NZ, 0x2880 <.L346>
    28b0:	a3 79 80    	mov.w     0xf34, w3
    28b2:	47 18 de    	lsr.w     w3, #0x7, w0
    28b4:	67 00 60    	and.w     w0, #0x7, w0
    28b6:	66 00 b9    	mul.su    w0, #0x6, w0
    28b8:	62 f5 20    	mov.w     #0xf56, w2
    28ba:	00 05 41    	add.w     w2, w0, w10
    28bc:	36 cf bf    	mov.b     0xf36, WREG
    28be:	00 81 fb    	ze        w0, w2
    28c0:	ca 19 de    	lsr.w     w3, #0xa, w3
    28c2:	ff 81 61    	and.w     w3, #0x1f, w3
    28c4:	83 0f 51    	sub.w     w2, w3, [w15]
    28c6:	45 00 32    	bra       Z, 0x2952 <.L327>
    28c8:	1a 00 78    	mov.w     [w10], w0
    28ca:	ef 00 60    	and.w     w0, #0xf, w1
    28cc:	44 00 de    	lsr.w     w0, #0x4, w0
    28ce:	6f 00 60    	and.w     w0, #0xf, w0
    28d0:	80 80 40    	add.w     w1, w0, w1
    28d2:	81 0f 51    	sub.w     w2, w1, [w15]
    28d4:	d5 ff 3a    	bra       NZ, 0x2880 <.L346>

000028d6 <.bb>:
    28d6:	20 00 20    	mov.w     #0x2, w0
    28d8:	a2 25 07    	rcall     0x741e <_EE_fp_GetResource>

000028da <.eb>:
    28da:	34 8f ab    	btst.b    0xf34, #0x4
    28dc:	eb 02 3a    	bra       NZ, 0x2eb4 <.L358>

000028de <.L330>:
    28de:	30 00 20    	mov.w     #0x3, w0
    28e0:	9e 25 07    	rcall     0x741e <_EE_fp_GetResource>

000028e2 <.eb>:
    28e2:	a0 79 80    	mov.w     0xf34, w0
    28e4:	47 00 de    	lsr.w     w0, #0x7, w0
    28e6:	67 44 60    	and.b     w0, #0x7, w8
    28e8:	1a 00 78    	mov.w     [w10], w0
    28ea:	44 00 de    	lsr.w     w0, #0x4, w0
    28ec:	6f 40 60    	and.b     w0, #0xf, w0

000028ee <.bb>:
    28ee:	35 03 32    	bra       Z, 0x2f5a <.L332>
    28f0:	00 83 fb    	ze        w0, w6
    28f2:	07 00 20    	mov.w     #0x0, w7
    28f4:	82 8b 20    	mov.w     #0x8b8, w2
    28f6:	12 41 78    	mov.b     [w2], w2
    28f8:	02 81 fb    	ze        w2, w2
    28fa:	30 00 20    	mov.w     #0x3, w0
    28fc:	01 00 20    	mov.w     #0x0, w1

000028fe <.LB1751>:
    28fe:	02 01 e9    	dec.w     w2, w2
    2900:	03 00 33    	bra       N, 0x2908 <.LE1751>
    2902:	00 00 40    	add.w     w0, w0, w0
    2904:	81 80 48    	addc.w    w1, w1, w1
    2906:	fb ff 37    	bra       0x28fe <.LB1751>

00002908 <.LE1751>:
    2908:	00 32 b8    	mul.uu    w6, w0, w4
    290a:	01 b3 b9    	mul.ss    w6, w1, w6
    290c:	86 82 42    	add.w     w5, w6, w5

0000290e <.bb>:
    290e:	02 6a 28    	mov.w     #0x86a0, w2
    2910:	02 20 b8    	mul.uu    w4, w2, w0
    2912:	01 03 42    	add.w     w4, w1, w6
    2914:	02 a9 b9    	mul.ss    w5, w2, w2
    2916:	82 00 43    	add.w     w6, w2, w1

00002918 <.eb>:
    2918:	08 84 fb    	ze        w8, w8
    291a:	42 44 dd    	sl.w      w8, #0x2, w8
    291c:	c2 16 23    	mov.w     #0x316c, w2
    291e:	02 04 44    	add.w     w8, w2, w8
    2920:	02 71 22    	mov.w     #0x2710, w2
    2922:	03 00 20    	mov.w     #0x0, w3
    2924:	97 ed 07    	rcall     0x454
    2926:	22 77 80    	mov.w     0xee4, w2
    2928:	02 00 50    	sub.w     w0, w2, w0
    292a:	e0 80 58    	subb.w    w1, #0x0, w1
    292c:	00 8c be    	mov.d     w0, [w8]

0000292e <.bb>:
    292e:	30 00 20    	mov.w     #0x3, w0
    2930:	51 25 07    	rcall     0x73d4 <_EE_fp_ReleaseResource>

00002932 <.eb>:
    2932:	a0 79 80    	mov.w     0xf34, w0
    2934:	47 00 de    	lsr.w     w0, #0x7, w0
    2936:	67 40 60    	and.b     w0, #0x7, w0
    2938:	1d 07 07    	rcall     0x3774 <_uwl_gts_queue_flush>
    293a:	a2 79 80    	mov.w     0xf34, w2
    293c:	47 10 de    	lsr.w     w2, #0x7, w0
    293e:	00 40 e8    	inc.b     w0, w0
    2940:	67 00 60    	and.w     w0, #0x7, w0
    2942:	47 00 dd    	sl.w      w0, #0x7, w0
    2944:	f1 c7 2f    	mov.w     #0xfc7f, w1
    2946:	01 01 61    	and.w     w2, w1, w2
    2948:	00 01 71    	ior.w     w2, w0, w2
    294a:	a2 79 88    	mov.w     w2, 0xf34
    294c:	66 05 45    	add.w     w10, #0x6, w10

0000294e <.bb>:
    294e:	20 00 20    	mov.w     #0x2, w0
    2950:	41 25 07    	rcall     0x73d4 <_EE_fp_ReleaseResource>

00002952 <.L327>:
    2952:	00 10 20    	mov.w     #0x100, w0
    2954:	1a 00 60    	and.w     w0, [w10], w0
    2956:	3e 02 32    	bra       Z, 0x2dd4 <.L359>
    2958:	34 af a8    	bset.b    0xf34, #0x5
    295a:	34 8f a8    	bset.b    0xf34, #0x4

0000295c <.bb>:
    295c:	68 7a 80    	mov.w     0xf4c, w8
    295e:	79 7a 80    	mov.w     0xf4e, w9

00002960 <.eb>:
    2960:	22 71 80    	mov.w     0xe24, w2
    2962:	4c 11 de    	lsr.w     w2, #0xc, w2
    2964:	02 81 fb    	ze        w2, w2
    2966:	03 00 20    	mov.w     #0x0, w3
    2968:	b8 c8 bf    	mov.b     0x8b8, WREG
    296a:	00 80 fb    	ze        w0, w0
    296c:	34 00 20    	mov.w     #0x3, w4
    296e:	05 00 20    	mov.w     #0x0, w5

00002970 <.LB1833>:
    2970:	00 00 e9    	dec.w     w0, w0
    2972:	03 00 33    	bra       N, 0x297a <.LE1833>
    2974:	04 02 42    	add.w     w4, w4, w4
    2976:	85 82 4a    	addc.w    w5, w5, w5
    2978:	fb ff 37    	bra       0x2970 <.LB1833>

0000297a <.LE1833>:
    297a:	04 10 b8    	mul.uu    w2, w4, w0
    297c:	05 91 b9    	mul.ss    w2, w5, w2
    297e:	82 80 40    	add.w     w1, w2, w1
    2980:	00 04 44    	add.w     w8, w0, w8
    2982:	81 84 4c    	addc.w    w9, w1, w9
    2984:	48 77 88    	mov.w     w8, 0xee8
    2986:	59 77 88    	mov.w     w9, 0xeea

00002988 <.bb>:
    2988:	50 00 20    	mov.w     #0x5, w0
    298a:	c4 25 07    	rcall     0x7514 <_EE_alarm_CancelAlarm>
    298c:	60 22 b8    	mul.uu    w4, #0x0, w4
    298e:	22 00 20    	mov.w     #0x2, w2
    2990:	03 00 20    	mov.w     #0x0, w3
    2992:	50 00 20    	mov.w     #0x5, w0
    2994:	a1 26 07    	rcall     0x76d8 <_EE_alarm_SetRelAlarm>

00002996 <.eb>:
    2996:	1a 00 78    	mov.w     [w10], w0
    2998:	ef 00 60    	and.w     w0, #0xf, w1
    299a:	44 00 de    	lsr.w     w0, #0x4, w0
    299c:	6f 00 60    	and.w     w0, #0xf, w0
    299e:	80 80 40    	add.w     w1, w0, w1
    29a0:	ef 8f 50    	sub.w     w1, #0xf, [w15]
    29a2:	6e ff 3a    	bra       NZ, 0x2880 <.L346>

000029a4 <.L349>:
    29a4:	34 cf a8    	bset.b    0xf34, #0x6

000029a6 <.eb>:
    29a6:	4f 06 be    	mov.d     [--w15], w12
    29a8:	4f 05 be    	mov.d     [--w15], w10
    29aa:	4f 04 be    	mov.d     [--w15], w8
    29ac:	00 80 fa    	ulnk      
    29ae:	00 00 06    	return    
    29b0:	6c ff 37    	bra       0x288a <.L248>

000029b2 <.L324>:
    29b2:	21 71 80    	mov.w     0xe24, w1
    29b4:	00 00 2f    	mov.w     #0xf000, w0
    29b6:	00 80 60    	and.w     w1, w0, w0
    29b8:	63 ff 32    	bra       Z, 0x2880 <.L346>
    29ba:	36 cf bf    	mov.b     0xf36, WREG
    29bc:	80 81 fb    	ze        w0, w3
    29be:	48 08 de    	lsr.w     w1, #0x8, w0
    29c0:	6f 01 60    	and.w     w0, #0xf, w2
    29c2:	82 8f 51    	sub.w     w3, w2, [w15]
    29c4:	95 02 32    	bra       Z, 0x2ef0 <.L360>
    29c6:	4c 08 de    	lsr.w     w1, #0xc, w0
    29c8:	02 00 40    	add.w     w0, w2, w0
    29ca:	83 0f 50    	sub.w     w0, w3, [w15]
    29cc:	59 ff 3c    	bra       GT, 0x2880 <.L346>
    29ce:	34 af a9    	bclr.b    0xf34, #0x5
    29d0:	34 8f a9    	bclr.b    0xf34, #0x4

000029d2 <.bb>:
    29d2:	30 00 20    	mov.w     #0x3, w0
    29d4:	24 25 07    	rcall     0x741e <_EE_fp_GetResource>

000029d6 <.eb>:
    29d6:	20 71 80    	mov.w     0xe24, w0
    29d8:	4c 00 de    	lsr.w     w0, #0xc, w0

000029da <.bb>:
    29da:	00 04 e0    	cp0.b     w0
    29dc:	b4 02 32    	bra       Z, 0x2f46 <.L343>
    29de:	00 83 fb    	ze        w0, w6
    29e0:	07 00 20    	mov.w     #0x0, w7
    29e2:	82 8b 20    	mov.w     #0x8b8, w2
    29e4:	12 41 78    	mov.b     [w2], w2
    29e6:	02 81 fb    	ze        w2, w2
    29e8:	30 00 20    	mov.w     #0x3, w0
    29ea:	01 00 20    	mov.w     #0x0, w1

000029ec <.LB1931>:
    29ec:	02 01 e9    	dec.w     w2, w2
    29ee:	03 00 33    	bra       N, 0x29f6 <.LE1931>
    29f0:	00 00 40    	add.w     w0, w0, w0
    29f2:	81 80 48    	addc.w    w1, w1, w1
    29f4:	fb ff 37    	bra       0x29ec <.LB1931>

000029f6 <.LE1931>:
    29f6:	00 32 b8    	mul.uu    w6, w0, w4
    29f8:	01 b3 b9    	mul.ss    w6, w1, w6
    29fa:	86 82 42    	add.w     w5, w6, w5

000029fc <.bb>:
    29fc:	02 6a 28    	mov.w     #0x86a0, w2
    29fe:	02 20 b8    	mul.uu    w4, w2, w0
    2a00:	01 03 42    	add.w     w4, w1, w6
    2a02:	02 a9 b9    	mul.ss    w5, w2, w2
    2a04:	82 00 43    	add.w     w6, w2, w1

00002a06 <.eb>:
    2a06:	02 71 22    	mov.w     #0x2710, w2
    2a08:	03 00 20    	mov.w     #0x0, w3
    2a0a:	24 ed 07    	rcall     0x454
    2a0c:	22 77 80    	mov.w     0xee4, w2
    2a0e:	02 00 50    	sub.w     w0, w2, w0
    2a10:	e0 80 58    	subb.w    w1, #0x0, w1
    2a12:	60 8b 89    	mov.w     w0, 0x316c
    2a14:	71 8b 89    	mov.w     w1, 0x316e

00002a16 <.bb>:
    2a16:	30 00 20    	mov.w     #0x3, w0
    2a18:	dd 24 07    	rcall     0x73d4 <_EE_fp_ReleaseResource>

00002a1a <.eb>:
    2a1a:	00 40 eb    	clr.b     w0
    2a1c:	ab 06 07    	rcall     0x3774 <_uwl_gts_queue_flush>

00002a1e <.bb>:
    2a1e:	50 00 20    	mov.w     #0x5, w0
    2a20:	79 25 07    	rcall     0x7514 <_EE_alarm_CancelAlarm>

00002a22 <.L372>:
    2a22:	4f 06 be    	mov.d     [--w15], w12
    2a24:	4f 05 be    	mov.d     [--w15], w10
    2a26:	4f 04 be    	mov.d     [--w15], w8
    2a28:	00 80 fa    	ulnk      
    2a2a:	00 00 06    	return    
    2a2c:	2e ff 37    	bra       0x288a <.L248>

00002a2e <.L266>:
    2a2e:	34 6f a8    	bset.b    0xf34, #0x3

00002a30 <.bb>:
    2a30:	34 cf ab    	btst.b    0xf34, #0x6
    2a32:	ed 00 3a    	bra       NZ, 0x2c0e <.L361>

00002a34 <.L287>:
    2a34:	60 7a 80    	mov.w     0xf4c, w0
    2a36:	71 7a 80    	mov.w     0xf4e, w1
    2a38:	40 77 88    	mov.w     w0, 0xee8
    2a3a:	51 77 88    	mov.w     w1, 0xeea

00002a3c <.bb>:
    2a3c:	43 71 80    	mov.w     0xe28, w3
    2a3e:	66 84 61    	and.w     w3, #0x6, w8
    2a40:	4d 01 3a    	bra       NZ, 0x2cdc <.L362>
    2a42:	48 19 de    	lsr.w     w3, #0x8, w2
    2a44:	6f 41 61    	and.b     w2, #0xf, w2
    2a46:	82 40 e8    	inc.b     w2, w1
    2a48:	ef 80 60    	and.w     w1, #0xf, w1
    2a4a:	c8 08 dd    	sl.w      w1, #0x8, w1
    2a4c:	f0 0f 2f    	mov.w     #0xf0ff, w0
    2a4e:	00 80 61    	and.w     w3, w0, w0
    2a50:	01 00 70    	ior.w     w0, w1, w0
    2a52:	40 71 88    	mov.w     w0, 0xe28
    2a54:	02 81 fb    	ze        w2, w2
    2a56:	e4 0f 51    	sub.w     w2, #0x4, [w15]
    2a58:	5a 01 3c    	bra       GT, 0x2d0e <.L363>

00002a5a <.L298>:
    2a5a:	34 af a9    	bclr.b    0xf34, #0x5
    2a5c:	34 4f ab    	btst.b    0xf34, #0x2
    2a5e:	02 00 32    	bra       Z, 0x2a64 <.L301>
    2a60:	29 ae ab    	btst.b    0xe29, #0x5
    2a62:	ad 01 32    	bra       Z, 0x2dbe <.L364>

00002a64 <.L301>:
    2a64:	30 00 20    	mov.w     #0x3, w0
    2a66:	db 24 07    	rcall     0x741e <_EE_fp_GetResource>

00002a68 <.eb>:
    2a68:	40 71 80    	mov.w     0xe28, w0
    2a6a:	66 00 60    	and.w     w0, #0x6, w0
    2a6c:	11 01 32    	bra       Z, 0x2c90 <.L305>

00002a6e <.bb>:
    2a6e:	b8 c8 bf    	mov.b     0x8b8, WREG
    2a70:	00 80 fb    	ze        w0, w0
    2a72:	3c 00 20    	mov.w     #0x3, w12
    2a74:	0d 00 20    	mov.w     #0x0, w13

00002a76 <.LB2055>:
    2a76:	00 00 e9    	dec.w     w0, w0
    2a78:	03 00 33    	bra       N, 0x2a80 <.LE2055>
    2a7a:	0c 06 46    	add.w     w12, w12, w12
    2a7c:	8d 86 4e    	addc.w    w13, w13, w13
    2a7e:	fb ff 37    	bra       0x2a76 <.LB2055>

00002a80 <.LE2055>:
    2a80:	20 77 80    	mov.w     0xee4, w0
    2a82:	61 01 b8    	mul.uu    w0, #0x1, w2
    2a84:	e2 b7 9f    	mov.w     w2, [w15-20]
    2a86:	f3 b7 9f    	mov.w     w3, [w15-18]
    2a88:	00 05 eb    	clr.w     w10
    2a8a:	c9 16 23    	mov.w     #0x316c, w9
    2a8c:	0b 6a 28    	mov.w     #0x86a0, w11
    2a8e:	68 f5 20    	mov.w     #0xf56, w8

00002a90 <.L307>:
    2a90:	18 00 78    	mov.w     [w8], w0
    2a92:	66 04 44    	add.w     w8, #0x6, w8
    2a94:	44 00 de    	lsr.w     w0, #0x4, w0
    2a96:	6f 40 60    	and.b     w0, #0xf, w0

00002a98 <.bb>:
    2a98:	e8 00 32    	bra       Z, 0x2c6a <.L308>
    2a9a:	00 80 fb    	ze        w0, w0
    2a9c:	01 00 20    	mov.w     #0x0, w1
    2a9e:	0c 01 b8    	mul.uu    w0, w12, w2
    2aa0:	0d 80 b9    	mul.ss    w0, w13, w0
    2aa2:	80 81 41    	add.w     w3, w0, w3

00002aa4 <.bb>:
    2aa4:	0b 10 b8    	mul.uu    w2, w11, w0
    2aa6:	01 02 41    	add.w     w2, w1, w4
    2aa8:	0b 99 b9    	mul.ss    w3, w11, w2
    2aaa:	82 00 42    	add.w     w4, w2, w1

00002aac <.eb>:
    2aac:	02 71 22    	mov.w     #0x2710, w2
    2aae:	03 00 20    	mov.w     #0x0, w3
    2ab0:	d1 ec 07    	rcall     0x454
    2ab2:	6f b1 97    	mov.w     [w15-20], w2
    2ab4:	ff b1 97    	mov.w     [w15-18], w3
    2ab6:	82 1c 50    	sub.w     w0, w2, [w9++]
    2ab8:	83 94 58    	subb.w    w1, w3, [w9--]
    2aba:	0a 05 e8    	inc.w     w10, w10
    2abc:	e4 84 44    	add.w     w9, #0x4, w9

00002abe <.eb>:
    2abe:	e7 0f 55    	sub.w     w10, #0x7, [w15]
    2ac0:	e7 ff 3a    	bra       NZ, 0x2a90 <.L307>

00002ac2 <.L311>:
    2ac2:	30 00 20    	mov.w     #0x3, w0
    2ac4:	87 24 07    	rcall     0x73d4 <_EE_fp_ReleaseResource>

00002ac6 <.L304>:
    2ac6:	88 8b 20    	mov.w     #0x8b8, w8
    2ac8:	18 44 78    	mov.b     [w8], w8
    2aca:	33 89 20    	mov.w     #0x893, w3
    2acc:	93 41 78    	mov.b     [w3], w3
    2ace:	03 44 e1    	cp.b      w8, w3
    2ad0:	02 00 31    	bra       C, 0x2ad6 <.L314>
    2ad2:	34 0f a8    	bset.b    0xf34, #0x0
    2ad4:	34 2f a8    	bset.b    0xf34, #0x1

00002ad6 <.L314>:
    2ad6:	22 71 80    	mov.w     0xe24, w2
    2ad8:	43 11 de    	lsr.w     w2, #0x3, w2
    2ada:	7f 41 61    	and.b     w2, #0x1f, w2
    2adc:	02 81 fb    	ze        w2, w2
    2ade:	03 00 20    	mov.w     #0x0, w3

00002ae0 <.bb>:
    2ae0:	04 6a 28    	mov.w     #0x86a0, w4
    2ae2:	04 10 b8    	mul.uu    w2, w4, w0
    2ae4:	82 80 40    	add.w     w1, w2, w1

00002ae6 <.eb>:
    2ae6:	02 71 22    	mov.w     #0x2710, w2
    2ae8:	03 00 20    	mov.w     #0x0, w3
    2aea:	b4 ec 07    	rcall     0x454
    2aec:	08 82 fb    	ze        w8, w4
    2aee:	32 00 20    	mov.w     #0x3, w2
    2af0:	03 00 20    	mov.w     #0x0, w3

00002af2 <.LB2148>:
    2af2:	04 02 e9    	dec.w     w4, w4
    2af4:	03 00 33    	bra       N, 0x2afc <.LE2148>
    2af6:	02 01 41    	add.w     w2, w2, w2
    2af8:	83 81 49    	addc.w    w3, w3, w3
    2afa:	fb ff 37    	bra       0x2af2 <.LB2148>

00002afc <.LE2148>:
    2afc:	00 13 b8    	mul.uu    w2, w0, w6
    2afe:	03 82 b9    	mul.ss    w0, w3, w4
    2b00:	07 02 42    	add.w     w4, w7, w4
    2b02:	01 91 b9    	mul.ss    w2, w1, w2
    2b04:	82 03 42    	add.w     w4, w2, w7
    2b06:	86 77 88    	mov.w     w6, 0xef0
    2b08:	97 77 88    	mov.w     w7, 0xef2
    2b0a:	28 ce a8    	bset.b    0xe28, #0x6
    2b0c:	28 ee a9    	bclr.b    0xe28, #0x7
    2b0e:	29 ae a9    	bclr.b    0xe29, #0x5

00002b10 <.eb>:
    2b10:	a5 48 e2    	cp0.b     0x8a5
    2b12:	bf fe 3a    	bra       NZ, 0x2892 <.L365>
    2b14:	b5 fe 37    	bra       0x2880 <.L346>

00002b16 <.L352>:
    2b16:	28 ce a8    	bset.b    0xe28, #0x6
    2b18:	28 ee a8    	bset.b    0xe28, #0x7
    2b1a:	34 2f a9    	bclr.b    0xf34, #0x1
    2b1c:	32 89 20    	mov.w     #0x893, w2
    2b1e:	12 41 78    	mov.b     [w2], w2
    2b20:	02 81 fb    	ze        w2, w2
    2b22:	00 03 20    	mov.w     #0x30, w0
    2b24:	01 00 20    	mov.w     #0x0, w1
    2b26:	00 02 be    	mov.d     w0, w4

00002b28 <.LB2182>:
    2b28:	02 01 e9    	dec.w     w2, w2
    2b2a:	03 00 33    	bra       N, 0x2b32 <.LE2182>
    2b2c:	04 02 42    	add.w     w4, w4, w4
    2b2e:	85 82 4a    	addc.w    w5, w5, w5
    2b30:	fb ff 37    	bra       0x2b28 <.LB2182>

00002b32 <.LE2182>:
    2b32:	82 8b 20    	mov.w     #0x8b8, w2
    2b34:	12 41 78    	mov.b     [w2], w2
    2b36:	02 81 fb    	ze        w2, w2

00002b38 <.LB2185>:
    2b38:	02 01 e9    	dec.w     w2, w2
    2b3a:	03 00 33    	bra       N, 0x2b42 <.LE2185>
    2b3c:	00 00 40    	add.w     w0, w0, w0
    2b3e:	81 80 48    	addc.w    w1, w1, w1
    2b40:	fb ff 37    	bra       0x2b38 <.LB2185>

00002b42 <.LE2185>:
    2b42:	00 06 52    	sub.w     w4, w0, w12
    2b44:	81 86 5a    	subb.w    w5, w1, w13

00002b46 <.bb>:
    2b46:	20 00 20    	mov.w     #0x2, w0
    2b48:	e5 24 07    	rcall     0x7514 <_EE_alarm_CancelAlarm>

00002b4a <.bb>:
    2b4a:	30 00 20    	mov.w     #0x3, w0
    2b4c:	e3 24 07    	rcall     0x7514 <_EE_alarm_CancelAlarm>

00002b4e <.bb>:
    2b4e:	40 00 20    	mov.w     #0x4, w0
    2b50:	e1 24 07    	rcall     0x7514 <_EE_alarm_CancelAlarm>

00002b52 <.bb>:
    2b52:	e0 0f 56    	sub.w     w12, #0x0, [w15]
    2b54:	e0 8f 5e    	subb.w    w13, #0x0, [w15]
    2b56:	02 00 3a    	bra       NZ, 0x2b5c <.L252>
    2b58:	2c 00 20    	mov.w     #0x2, w12
    2b5a:	0d 00 20    	mov.w     #0x0, w13

00002b5c <.L252>:
    2b5c:	b8 c8 bf    	mov.b     0x8b8, WREG
    2b5e:	00 80 fb    	ze        w0, w0
    2b60:	3a 00 20    	mov.w     #0x3, w10
    2b62:	0b 00 20    	mov.w     #0x0, w11

00002b64 <.LB2222>:
    2b64:	00 00 e9    	dec.w     w0, w0
    2b66:	03 00 33    	bra       N, 0x2b6e <.LE2222>
    2b68:	0a 05 45    	add.w     w10, w10, w10
    2b6a:	8b 85 4d    	addc.w    w11, w11, w11
    2b6c:	fb ff 37    	bra       0x2b64 <.LB2222>

00002b6e <.LE2222>:
    2b6e:	0c 00 45    	add.w     w10, w12, w0
    2b70:	8d 80 4d    	addc.w    w11, w13, w1
    2b72:	62 04 50    	sub.w     w0, #0x2, w8
    2b74:	e0 84 58    	subb.w    w1, #0x0, w9

00002b76 <.bb>:
    2b76:	a2 01 3a    	bra       NZ, 0x2ebc <.L366>
    2b78:	e0 0f 55    	sub.w     w10, #0x0, [w15]
    2b7a:	e0 8f 5d    	subb.w    w11, #0x0, [w15]
    2b7c:	b7 00 3a    	bra       NZ, 0x2cec <.L257>
    2b7e:	80 00 20    	mov.w     #0x8, w0
    2b80:	98 24 07    	rcall     0x74b2 <_EE_fp_ActivateTask>

00002b82 <.L256>:
    2b82:	e0 0f 56    	sub.w     w12, #0x0, [w15]
    2b84:	e0 8f 5e    	subb.w    w13, #0x0, [w15]
    2b86:	a1 01 3a    	bra       NZ, 0x2eca <.L367>
    2b88:	e0 0f 55    	sub.w     w10, #0x0, [w15]
    2b8a:	e0 8f 5d    	subb.w    w11, #0x0, [w15]
    2b8c:	95 00 3a    	bra       NZ, 0x2cb8 <.L262>
    2b8e:	70 00 20    	mov.w     #0x7, w0
    2b90:	90 24 07    	rcall     0x74b2 <_EE_fp_ActivateTask>

00002b92 <.bb>:
    2b92:	90 00 20    	mov.w     #0x9, w0
    2b94:	8e 24 07    	rcall     0x74b2 <_EE_fp_ActivateTask>
    2b96:	40 00 20    	mov.w     #0x4, w0
    2b98:	bd 24 07    	rcall     0x7514 <_EE_alarm_CancelAlarm>
    2b9a:	14 00 20    	mov.w     #0x1, w4
    2b9c:	05 00 20    	mov.w     #0x0, w5
    2b9e:	04 01 be    	mov.d     w4, w2
    2ba0:	40 00 20    	mov.w     #0x4, w0
    2ba2:	9a 25 07    	rcall     0x76d8 <_EE_alarm_SetRelAlarm>

00002ba4 <.L261>:
    2ba4:	f0 c0 b3    	mov.b     #0xf, w0
    2ba6:	36 ef b7    	mov.b     WREG, 0xf36
    2ba8:	34 af a9    	bclr.b    0xf34, #0x5
    2baa:	34 2f a9    	bclr.b    0xf34, #0x1
    2bac:	34 0f a9    	bclr.b    0xf34, #0x0

00002bae <.L371>:
    2bae:	4f 06 be    	mov.d     [--w15], w12
    2bb0:	4f 05 be    	mov.d     [--w15], w10
    2bb2:	4f 04 be    	mov.d     [--w15], w8
    2bb4:	00 80 fa    	ulnk      
    2bb6:	00 00 06    	return    
    2bb8:	68 fe 37    	bra       0x288a <.L248>

00002bba <.L356>:
    2bba:	34 6f a9    	bclr.b    0xf34, #0x3

00002bbc <.bb>:
    2bbc:	62 7a 80    	mov.w     0xf4c, w2
    2bbe:	73 7a 80    	mov.w     0xf4e, w3

00002bc0 <.eb>:
    2bc0:	40 77 80    	mov.w     0xee8, w0
    2bc2:	51 77 80    	mov.w     0xeea, w1
    2bc4:	80 0f 51    	sub.w     w2, w0, [w15]
    2bc6:	81 8f 59    	subb.w    w3, w1, [w15]
    2bc8:	5e 00 39    	bra       NC, 0x2c86 <.L317>
    2bca:	00 02 51    	sub.w     w2, w0, w4
    2bcc:	81 82 59    	subb.w    w3, w1, w5

00002bce <.L319>:
    2bce:	b8 c8 bf    	mov.b     0x8b8, WREG
    2bd0:	00 80 fb    	ze        w0, w0
    2bd2:	32 00 20    	mov.w     #0x3, w2
    2bd4:	03 00 20    	mov.w     #0x0, w3

00002bd6 <.LB2325>:
    2bd6:	00 00 e9    	dec.w     w0, w0
    2bd8:	03 00 33    	bra       N, 0x2be0 <.LE2325>
    2bda:	02 01 41    	add.w     w2, w2, w2
    2bdc:	83 81 49    	addc.w    w3, w3, w3
    2bde:	fb ff 37    	bra       0x2bd6 <.LB2325>

00002be0 <.LE2325>:
    2be0:	4e 1b dd    	sl.w      w3, #0xe, w6
    2be2:	42 10 de    	lsr.w     w2, #0x2, w0
    2be4:	00 00 73    	ior.w     w6, w0, w0
    2be6:	c2 18 de    	lsr.w     w3, #0x2, w1
    2be8:	00 01 51    	sub.w     w2, w0, w2
    2bea:	81 81 59    	subb.w    w3, w1, w3
    2bec:	82 0f 52    	sub.w     w4, w2, [w15]
    2bee:	83 8f 5a    	subb.w    w5, w3, [w15]
    2bf0:	4e fe 31    	bra       C, 0x288e <.L300>
    2bf2:	36 6f ef    	clr.b     0xf36
    2bf4:	4f 06 be    	mov.d     [--w15], w12
    2bf6:	4f 05 be    	mov.d     [--w15], w10
    2bf8:	4f 04 be    	mov.d     [--w15], w8
    2bfa:	00 80 fa    	ulnk      
    2bfc:	00 00 06    	return    
    2bfe:	45 fe 37    	bra       0x288a <.L248>

00002c00 <.L357>:
    2c00:	28 ce a9    	bclr.b    0xe28, #0x6
    2c02:	28 ee a8    	bset.b    0xe28, #0x7
    2c04:	34 4f a8    	bset.b    0xf34, #0x2
    2c06:	34 cf a9    	bclr.b    0xf34, #0x6

00002c08 <.bb>:
    2c08:	40 00 20    	mov.w     #0x4, w0
    2c0a:	84 24 07    	rcall     0x7514 <_EE_alarm_CancelAlarm>
    2c0c:	4a fe 37    	bra       0x28a2 <.L322>

00002c0e <.L361>:
    2c0e:	30 00 20    	mov.w     #0x3, w0
    2c10:	06 24 07    	rcall     0x741e <_EE_fp_GetResource>

00002c12 <.eb>:
    2c12:	40 71 80    	mov.w     0xe28, w0
    2c14:	66 04 60    	and.w     w0, #0x6, w8
    2c16:	24 01 3a    	bra       NZ, 0x2e60 <.L368>
    2c18:	20 71 80    	mov.w     0xe24, w0
    2c1a:	4c 00 de    	lsr.w     w0, #0xc, w0

00002c1c <.bb>:
    2c1c:	00 04 e0    	cp0.b     w0
    2c1e:	b6 01 32    	bra       Z, 0x2f8c
    2c20:	00 83 fb    	ze        w0, w6
    2c22:	07 00 20    	mov.w     #0x0, w7
    2c24:	82 8b 20    	mov.w     #0x8b8, w2
    2c26:	12 41 78    	mov.b     [w2], w2
    2c28:	02 81 fb    	ze        w2, w2
    2c2a:	30 00 20    	mov.w     #0x3, w0
    2c2c:	01 00 20    	mov.w     #0x0, w1

00002c2e <.LB2395>:
    2c2e:	02 01 e9    	dec.w     w2, w2
    2c30:	03 00 33    	bra       N, 0x2c38 <.LE2395>
    2c32:	00 00 40    	add.w     w0, w0, w0
    2c34:	81 80 48    	addc.w    w1, w1, w1
    2c36:	fb ff 37    	bra       0x2c2e <.LB2395>

00002c38 <.LE2395>:
    2c38:	00 32 b8    	mul.uu    w6, w0, w4
    2c3a:	01 b3 b9    	mul.ss    w6, w1, w6
    2c3c:	86 82 42    	add.w     w5, w6, w5

00002c3e <.bb>:
    2c3e:	02 6a 28    	mov.w     #0x86a0, w2
    2c40:	02 20 b8    	mul.uu    w4, w2, w0
    2c42:	01 03 42    	add.w     w4, w1, w6
    2c44:	02 a9 b9    	mul.ss    w5, w2, w2
    2c46:	82 00 43    	add.w     w6, w2, w1

00002c48 <.eb>:
    2c48:	02 71 22    	mov.w     #0x2710, w2
    2c4a:	03 00 20    	mov.w     #0x0, w3
    2c4c:	03 ec 07    	rcall     0x454
    2c4e:	22 77 80    	mov.w     0xee4, w2
    2c50:	02 00 50    	sub.w     w0, w2, w0
    2c52:	e0 80 58    	subb.w    w1, #0x0, w1
    2c54:	60 8b 89    	mov.w     w0, 0x316c
    2c56:	71 8b 89    	mov.w     w1, 0x316e

00002c58 <.bb>:
    2c58:	30 00 20    	mov.w     #0x3, w0
    2c5a:	bc 23 07    	rcall     0x73d4 <_EE_fp_ReleaseResource>

00002c5c <.eb>:
    2c5c:	34 af a9    	bclr.b    0xf34, #0x5
    2c5e:	34 8f a9    	bclr.b    0xf34, #0x4
    2c60:	08 40 78    	mov.b     w8, w0
    2c62:	88 05 07    	rcall     0x3774 <_uwl_gts_queue_flush>

00002c64 <.bb>:
    2c64:	50 00 20    	mov.w     #0x5, w0
    2c66:	56 24 07    	rcall     0x7514 <_EE_alarm_CancelAlarm>
    2c68:	e5 fe 37    	bra       0x2a34 <.L287>

00002c6a <.L308>:
    2c6a:	80 0c eb    	clr.w     [w9]
    2c6c:	b9 14 78    	mov.w     [w9++], [w9--]
    2c6e:	0a 05 e8    	inc.w     w10, w10
    2c70:	e4 84 44    	add.w     w9, #0x4, w9

00002c72 <.eb>:
    2c72:	e7 0f 55    	sub.w     w10, #0x7, [w15]
    2c74:	0d ff 3a    	bra       NZ, 0x2a90 <.L307>
    2c76:	25 ff 37    	bra       0x2ac2 <.L311>

00002c78 <.L279>:
    2c78:	80 0c eb    	clr.w     [w9]
    2c7a:	b9 14 78    	mov.w     [w9++], [w9--]
    2c7c:	0a 05 e8    	inc.w     w10, w10
    2c7e:	e4 84 44    	add.w     w9, #0x4, w9

00002c80 <.eb>:
    2c80:	e7 0f 55    	sub.w     w10, #0x7, [w15]
    2c82:	be fd 3a    	bra       NZ, 0x2800 <.L278>
    2c84:	d6 fd 37    	bra       0x2832 <.L282>

00002c86 <.L317>:
    2c86:	00 00 51    	sub.w     w2, w0, w0
    2c88:	81 80 59    	subb.w    w3, w1, w1
    2c8a:	61 02 50    	sub.w     w0, #0x1, w4
    2c8c:	e0 82 58    	subb.w    w1, #0x0, w5
    2c8e:	9f ff 37    	bra       0x2bce <.L319>

00002c90 <.L305>:
    2c90:	20 71 80    	mov.w     0xe24, w0
    2c92:	4c 00 de    	lsr.w     w0, #0xc, w0

00002c94 <.bb>:
    2c94:	00 04 e0    	cp0.b     w0
    2c96:	c5 00 3a    	bra       NZ, 0x2e22 <.L369>
    2c98:	c0 16 23    	mov.w     #0x316c, w0
    2c9a:	00 08 eb    	clr.w     [w0]
    2c9c:	30 10 78    	mov.w     [w0++], [w0--]

00002c9e <.bb>:
    2c9e:	30 00 20    	mov.w     #0x3, w0
    2ca0:	99 23 07    	rcall     0x73d4 <_EE_fp_ReleaseResource>
    2ca2:	11 ff 37    	bra       0x2ac6 <.L304>

00002ca4 <.L276>:
    2ca4:	20 71 80    	mov.w     0xe24, w0
    2ca6:	4c 00 de    	lsr.w     w0, #0xc, w0

00002ca8 <.bb>:
    2ca8:	00 04 e0    	cp0.b     w0
    2caa:	9c 00 3a    	bra       NZ, 0x2de4 <.L370>
    2cac:	c0 16 23    	mov.w     #0x316c, w0
    2cae:	00 08 eb    	clr.w     [w0]
    2cb0:	30 10 78    	mov.w     [w0++], [w0--]

00002cb2 <.bb>:
    2cb2:	30 00 20    	mov.w     #0x3, w0
    2cb4:	8f 23 07    	rcall     0x73d4 <_EE_fp_ReleaseResource>
    2cb6:	bf fd 37    	bra       0x2836 <.L275>

00002cb8 <.L262>:
    2cb8:	70 00 20    	mov.w     #0x7, w0
    2cba:	fb 23 07    	rcall     0x74b2 <_EE_fp_ActivateTask>
    2cbc:	20 00 20    	mov.w     #0x2, w0
    2cbe:	2a 24 07    	rcall     0x7514 <_EE_alarm_CancelAlarm>
    2cc0:	0a 02 be    	mov.d     w10, w4
    2cc2:	0a 01 be    	mov.d     w10, w2
    2cc4:	20 00 20    	mov.w     #0x2, w0
    2cc6:	08 25 07    	rcall     0x76d8 <_EE_alarm_SetRelAlarm>

00002cc8 <.bb>:
    2cc8:	90 00 20    	mov.w     #0x9, w0
    2cca:	f3 23 07    	rcall     0x74b2 <_EE_fp_ActivateTask>
    2ccc:	40 00 20    	mov.w     #0x4, w0
    2cce:	22 24 07    	rcall     0x7514 <_EE_alarm_CancelAlarm>
    2cd0:	14 00 20    	mov.w     #0x1, w4
    2cd2:	05 00 20    	mov.w     #0x0, w5
    2cd4:	04 01 be    	mov.d     w4, w2
    2cd6:	40 00 20    	mov.w     #0x4, w0
    2cd8:	ff 24 07    	rcall     0x76d8 <_EE_alarm_SetRelAlarm>
    2cda:	64 ff 37    	bra       0x2ba4 <.L261>

00002cdc <.L362>:
    2cdc:	20 00 20    	mov.w     #0x2, w0
    2cde:	9f 23 07    	rcall     0x741e <_EE_fp_GetResource>

00002ce0 <.eb>:
    2ce0:	f0 c7 2f    	mov.w     #0xfc7f, w0
    2ce2:	34 2f b6    	and.w     0xf34

00002ce4 <.bb>:
    2ce4:	20 00 20    	mov.w     #0x2, w0
    2ce6:	76 23 07    	rcall     0x73d4 <_EE_fp_ReleaseResource>

00002ce8 <.eb>:
    2ce8:	4d 22 07    	rcall     0x7184 <_uwl_radio_mac_send_beacon>
    2cea:	b7 fe 37    	bra       0x2a5a <.L298>

00002cec <.L257>:
    2cec:	80 00 20    	mov.w     #0x8, w0
    2cee:	e1 23 07    	rcall     0x74b2 <_EE_fp_ActivateTask>
    2cf0:	30 00 20    	mov.w     #0x3, w0
    2cf2:	10 24 07    	rcall     0x7514 <_EE_alarm_CancelAlarm>
    2cf4:	0a 02 be    	mov.d     w10, w4
    2cf6:	0a 01 be    	mov.d     w10, w2
    2cf8:	30 00 20    	mov.w     #0x3, w0
    2cfa:	ee 24 07    	rcall     0x76d8 <_EE_alarm_SetRelAlarm>
    2cfc:	42 ff 37    	bra       0x2b82 <.L256>

00002cfe <.L353>:
    2cfe:	20 00 20    	mov.w     #0x2, w0
    2d00:	8e 23 07    	rcall     0x741e <_EE_fp_GetResource>

00002d02 <.eb>:
    2d02:	f0 c7 2f    	mov.w     #0xfc7f, w0
    2d04:	34 2f b6    	and.w     0xf34

00002d06 <.bb>:
    2d06:	20 00 20    	mov.w     #0x2, w0
    2d08:	65 23 07    	rcall     0x73d4 <_EE_fp_ReleaseResource>

00002d0a <.eb>:
    2d0a:	3c 22 07    	rcall     0x7184 <_uwl_radio_mac_send_beacon>
    2d0c:	5e fd 37    	bra       0x27ca <.L270>

00002d0e <.L363>:
    2d0e:	34 8f a9    	bclr.b    0xf34, #0x4

00002d10 <.bb>:
    2d10:	30 00 20    	mov.w     #0x3, w0
    2d12:	85 23 07    	rcall     0x741e <_EE_fp_GetResource>

00002d14 <.eb>:
    2d14:	c0 16 23    	mov.w     #0x316c, w0
    2d16:	00 08 eb    	clr.w     [w0]
    2d18:	30 10 78    	mov.w     [w0++], [w0--]
    2d1a:	00 17 23    	mov.w     #0x3170, w0
    2d1c:	00 08 eb    	clr.w     [w0]
    2d1e:	30 10 78    	mov.w     [w0++], [w0--]
    2d20:	40 17 23    	mov.w     #0x3174, w0
    2d22:	00 08 eb    	clr.w     [w0]
    2d24:	30 10 78    	mov.w     [w0++], [w0--]
    2d26:	80 17 23    	mov.w     #0x3178, w0
    2d28:	00 08 eb    	clr.w     [w0]
    2d2a:	30 10 78    	mov.w     [w0++], [w0--]
    2d2c:	c0 17 23    	mov.w     #0x317c, w0
    2d2e:	00 08 eb    	clr.w     [w0]
    2d30:	30 10 78    	mov.w     [w0++], [w0--]
    2d32:	00 18 23    	mov.w     #0x3180, w0
    2d34:	00 08 eb    	clr.w     [w0]
    2d36:	30 10 78    	mov.w     [w0++], [w0--]
    2d38:	40 18 23    	mov.w     #0x3184, w0
    2d3a:	00 08 eb    	clr.w     [w0]
    2d3c:	30 10 78    	mov.w     [w0++], [w0--]

00002d3e <.bb>:
    2d3e:	30 00 20    	mov.w     #0x3, w0
    2d40:	49 23 07    	rcall     0x73d4 <_EE_fp_ReleaseResource>

00002d42 <.eb>:
    2d42:	08 40 78    	mov.b     w8, w0
    2d44:	17 05 07    	rcall     0x3774 <_uwl_gts_queue_flush>

00002d46 <.bb>:
    2d46:	20 00 20    	mov.w     #0x2, w0
    2d48:	e5 23 07    	rcall     0x7514 <_EE_alarm_CancelAlarm>

00002d4a <.bb>:
    2d4a:	30 00 20    	mov.w     #0x3, w0
    2d4c:	e3 23 07    	rcall     0x7514 <_EE_alarm_CancelAlarm>

00002d4e <.bb>:
    2d4e:	40 00 20    	mov.w     #0x4, w0
    2d50:	e1 23 07    	rcall     0x7514 <_EE_alarm_CancelAlarm>

00002d52 <.eb>:
    2d52:	a5 48 e2    	cp0.b     0x8a5
    2d54:	9e fd 3a    	bra       NZ, 0x2892 <.L365>
    2d56:	94 fd 37    	bra       0x2880 <.L346>

00002d58 <.L354>:
    2d58:	34 8f a9    	bclr.b    0xf34, #0x4

00002d5a <.bb>:
    2d5a:	30 00 20    	mov.w     #0x3, w0
    2d5c:	60 23 07    	rcall     0x741e <_EE_fp_GetResource>

00002d5e <.eb>:
    2d5e:	c0 16 23    	mov.w     #0x316c, w0
    2d60:	00 08 eb    	clr.w     [w0]
    2d62:	30 10 78    	mov.w     [w0++], [w0--]
    2d64:	00 17 23    	mov.w     #0x3170, w0
    2d66:	00 08 eb    	clr.w     [w0]
    2d68:	30 10 78    	mov.w     [w0++], [w0--]
    2d6a:	40 17 23    	mov.w     #0x3174, w0
    2d6c:	00 08 eb    	clr.w     [w0]
    2d6e:	30 10 78    	mov.w     [w0++], [w0--]
    2d70:	80 17 23    	mov.w     #0x3178, w0
    2d72:	00 08 eb    	clr.w     [w0]
    2d74:	30 10 78    	mov.w     [w0++], [w0--]
    2d76:	c0 17 23    	mov.w     #0x317c, w0
    2d78:	00 08 eb    	clr.w     [w0]
    2d7a:	30 10 78    	mov.w     [w0++], [w0--]
    2d7c:	00 18 23    	mov.w     #0x3180, w0
    2d7e:	00 08 eb    	clr.w     [w0]
    2d80:	30 10 78    	mov.w     [w0++], [w0--]
    2d82:	40 18 23    	mov.w     #0x3184, w0
    2d84:	00 08 eb    	clr.w     [w0]
    2d86:	30 10 78    	mov.w     [w0++], [w0--]

00002d88 <.bb>:
    2d88:	30 00 20    	mov.w     #0x3, w0
    2d8a:	24 23 07    	rcall     0x73d4 <_EE_fp_ReleaseResource>

00002d8c <.eb>:
    2d8c:	08 40 78    	mov.b     w8, w0
    2d8e:	f2 04 07    	rcall     0x3774 <_uwl_gts_queue_flush>

00002d90 <.bb>:
    2d90:	20 00 20    	mov.w     #0x2, w0
    2d92:	c0 23 07    	rcall     0x7514 <_EE_alarm_CancelAlarm>

00002d94 <.bb>:
    2d94:	30 00 20    	mov.w     #0x3, w0
    2d96:	be 23 07    	rcall     0x7514 <_EE_alarm_CancelAlarm>

00002d98 <.bb>:
    2d98:	40 00 20    	mov.w     #0x4, w0
    2d9a:	bc 23 07    	rcall     0x7514 <_EE_alarm_CancelAlarm>

00002d9c <.eb>:
    2d9c:	4f 06 be    	mov.d     [--w15], w12
    2d9e:	4f 05 be    	mov.d     [--w15], w10
    2da0:	4f 04 be    	mov.d     [--w15], w8
    2da2:	00 80 fa    	ulnk      
    2da4:	00 00 06    	return    
    2da6:	71 fd 37    	bra       0x288a <.L248>

00002da8 <.L355>:
    2da8:	34 4f a9    	bclr.b    0xf34, #0x2

00002daa <.bb>:
    2daa:	90 00 20    	mov.w     #0x9, w0
    2dac:	82 23 07    	rcall     0x74b2 <_EE_fp_ActivateTask>
    2dae:	40 00 20    	mov.w     #0x4, w0
    2db0:	b1 23 07    	rcall     0x7514 <_EE_alarm_CancelAlarm>
    2db2:	14 00 20    	mov.w     #0x1, w4
    2db4:	05 00 20    	mov.w     #0x0, w5
    2db6:	04 01 be    	mov.d     w4, w2
    2db8:	40 00 20    	mov.w     #0x4, w0
    2dba:	8e 24 07    	rcall     0x76d8 <_EE_alarm_SetRelAlarm>
    2dbc:	3c fd 37    	bra       0x2836 <.L275>

00002dbe <.L364>:
    2dbe:	34 4f a9    	bclr.b    0xf34, #0x2

00002dc0 <.bb>:
    2dc0:	90 00 20    	mov.w     #0x9, w0
    2dc2:	77 23 07    	rcall     0x74b2 <_EE_fp_ActivateTask>
    2dc4:	40 00 20    	mov.w     #0x4, w0
    2dc6:	a6 23 07    	rcall     0x7514 <_EE_alarm_CancelAlarm>
    2dc8:	14 00 20    	mov.w     #0x1, w4
    2dca:	05 00 20    	mov.w     #0x0, w5
    2dcc:	04 01 be    	mov.d     w4, w2
    2dce:	40 00 20    	mov.w     #0x4, w0
    2dd0:	83 24 07    	rcall     0x76d8 <_EE_alarm_SetRelAlarm>
    2dd2:	79 fe 37    	bra       0x2ac6 <.L304>

00002dd4 <.L359>:
    2dd4:	34 af a9    	bclr.b    0xf34, #0x5
    2dd6:	a8 21 07    	rcall     0x7128 <_uwl_radio_phy_set_rx_on>

00002dd8 <.eb>:
    2dd8:	4f 06 be    	mov.d     [--w15], w12
    2dda:	4f 05 be    	mov.d     [--w15], w10
    2ddc:	4f 04 be    	mov.d     [--w15], w8
    2dde:	00 80 fa    	ulnk      
    2de0:	00 00 06    	return    
    2de2:	53 fd 37    	bra       0x288a <.L248>

00002de4 <.L370>:
    2de4:	00 83 fb    	ze        w0, w6
    2de6:	07 00 20    	mov.w     #0x0, w7
    2de8:	82 8b 20    	mov.w     #0x8b8, w2
    2dea:	12 41 78    	mov.b     [w2], w2
    2dec:	02 81 fb    	ze        w2, w2
    2dee:	30 00 20    	mov.w     #0x3, w0
    2df0:	01 00 20    	mov.w     #0x0, w1

00002df2 <.LB2896>:
    2df2:	02 01 e9    	dec.w     w2, w2
    2df4:	03 00 33    	bra       N, 0x2dfc <.LE2896>
    2df6:	00 00 40    	add.w     w0, w0, w0
    2df8:	81 80 48    	addc.w    w1, w1, w1
    2dfa:	fb ff 37    	bra       0x2df2 <.LB2896>

00002dfc <.LE2896>:
    2dfc:	00 32 b8    	mul.uu    w6, w0, w4
    2dfe:	01 b3 b9    	mul.ss    w6, w1, w6
    2e00:	86 82 42    	add.w     w5, w6, w5

00002e02 <.bb>:
    2e02:	02 6a 28    	mov.w     #0x86a0, w2
    2e04:	02 20 b8    	mul.uu    w4, w2, w0
    2e06:	01 03 42    	add.w     w4, w1, w6
    2e08:	02 a9 b9    	mul.ss    w5, w2, w2
    2e0a:	82 00 43    	add.w     w6, w2, w1

00002e0c <.eb>:
    2e0c:	02 71 22    	mov.w     #0x2710, w2
    2e0e:	03 00 20    	mov.w     #0x0, w3
    2e10:	21 eb 07    	rcall     0x454
    2e12:	22 77 80    	mov.w     0xee4, w2
    2e14:	02 00 50    	sub.w     w0, w2, w0
    2e16:	e0 80 58    	subb.w    w1, #0x0, w1
    2e18:	60 8b 89    	mov.w     w0, 0x316c
    2e1a:	71 8b 89    	mov.w     w1, 0x316e

00002e1c <.bb>:
    2e1c:	30 00 20    	mov.w     #0x3, w0
    2e1e:	da 22 07    	rcall     0x73d4 <_EE_fp_ReleaseResource>
    2e20:	0a fd 37    	bra       0x2836 <.L275>

00002e22 <.L369>:
    2e22:	00 83 fb    	ze        w0, w6
    2e24:	07 00 20    	mov.w     #0x0, w7
    2e26:	82 8b 20    	mov.w     #0x8b8, w2
    2e28:	12 41 78    	mov.b     [w2], w2
    2e2a:	02 81 fb    	ze        w2, w2
    2e2c:	30 00 20    	mov.w     #0x3, w0
    2e2e:	01 00 20    	mov.w     #0x0, w1

00002e30 <.LB2940>:
    2e30:	02 01 e9    	dec.w     w2, w2
    2e32:	03 00 33    	bra       N, 0x2e3a <.LE2940>
    2e34:	00 00 40    	add.w     w0, w0, w0
    2e36:	81 80 48    	addc.w    w1, w1, w1
    2e38:	fb ff 37    	bra       0x2e30 <.LB2940>

00002e3a <.LE2940>:
    2e3a:	00 32 b8    	mul.uu    w6, w0, w4
    2e3c:	01 b3 b9    	mul.ss    w6, w1, w6
    2e3e:	86 82 42    	add.w     w5, w6, w5

00002e40 <.bb>:
    2e40:	02 6a 28    	mov.w     #0x86a0, w2
    2e42:	02 20 b8    	mul.uu    w4, w2, w0
    2e44:	01 03 42    	add.w     w4, w1, w6
    2e46:	02 a9 b9    	mul.ss    w5, w2, w2
    2e48:	82 00 43    	add.w     w6, w2, w1

00002e4a <.eb>:
    2e4a:	02 71 22    	mov.w     #0x2710, w2
    2e4c:	03 00 20    	mov.w     #0x0, w3
    2e4e:	02 eb 07    	rcall     0x454
    2e50:	22 77 80    	mov.w     0xee4, w2
    2e52:	02 00 50    	sub.w     w0, w2, w0
    2e54:	e0 80 58    	subb.w    w1, #0x0, w1
    2e56:	60 8b 89    	mov.w     w0, 0x316c
    2e58:	71 8b 89    	mov.w     w1, 0x316e

00002e5a <.bb>:
    2e5a:	30 00 20    	mov.w     #0x3, w0
    2e5c:	bb 22 07    	rcall     0x73d4 <_EE_fp_ReleaseResource>
    2e5e:	33 fe 37    	bra       0x2ac6 <.L304>

00002e60 <.L368>:
    2e60:	d0 7b 80    	mov.w     0xf7a, w0
    2e62:	44 00 de    	lsr.w     w0, #0x4, w0
    2e64:	6f 40 60    	and.b     w0, #0xf, w0

00002e66 <.bb>:
    2e66:	9e 00 32    	bra       Z, 0x2fa4 <.L291>
    2e68:	00 83 fb    	ze        w0, w6
    2e6a:	07 00 20    	mov.w     #0x0, w7
    2e6c:	82 8b 20    	mov.w     #0x8b8, w2
    2e6e:	12 41 78    	mov.b     [w2], w2
    2e70:	02 81 fb    	ze        w2, w2
    2e72:	30 00 20    	mov.w     #0x3, w0
    2e74:	01 00 20    	mov.w     #0x0, w1

00002e76 <.LB2992>:
    2e76:	02 01 e9    	dec.w     w2, w2
    2e78:	03 00 33    	bra       N, 0x2e80 <.LE2992>
    2e7a:	00 00 40    	add.w     w0, w0, w0
    2e7c:	81 80 48    	addc.w    w1, w1, w1
    2e7e:	fb ff 37    	bra       0x2e76 <.LB2992>

00002e80 <.LE2992>:
    2e80:	00 32 b8    	mul.uu    w6, w0, w4
    2e82:	01 b3 b9    	mul.ss    w6, w1, w6
    2e84:	86 82 42    	add.w     w5, w6, w5

00002e86 <.bb>:
    2e86:	02 6a 28    	mov.w     #0x86a0, w2
    2e88:	02 20 b8    	mul.uu    w4, w2, w0
    2e8a:	01 03 42    	add.w     w4, w1, w6
    2e8c:	02 a9 b9    	mul.ss    w5, w2, w2
    2e8e:	82 00 43    	add.w     w6, w2, w1

00002e90 <.eb>:
    2e90:	02 71 22    	mov.w     #0x2710, w2
    2e92:	03 00 20    	mov.w     #0x0, w3
    2e94:	df ea 07    	rcall     0x454
    2e96:	22 77 80    	mov.w     0xee4, w2
    2e98:	02 00 50    	sub.w     w0, w2, w0
    2e9a:	e0 80 58    	subb.w    w1, #0x0, w1
    2e9c:	20 8c 89    	mov.w     w0, 0x3184
    2e9e:	31 8c 89    	mov.w     w1, 0x3186
    2ea0:	68 c0 b3    	mov.b     #0x6, w8

00002ea2 <.bb>:
    2ea2:	30 00 20    	mov.w     #0x3, w0
    2ea4:	97 22 07    	rcall     0x73d4 <_EE_fp_ReleaseResource>

00002ea6 <.eb>:
    2ea6:	34 af a9    	bclr.b    0xf34, #0x5
    2ea8:	34 8f a9    	bclr.b    0xf34, #0x4
    2eaa:	08 40 78    	mov.b     w8, w0
    2eac:	63 04 07    	rcall     0x3774 <_uwl_gts_queue_flush>

00002eae <.bb>:
    2eae:	50 00 20    	mov.w     #0x5, w0
    2eb0:	31 23 07    	rcall     0x7514 <_EE_alarm_CancelAlarm>
    2eb2:	c0 fd 37    	bra       0x2a34 <.L287>

00002eb4 <.L358>:
    2eb4:	34 8f a9    	bclr.b    0xf34, #0x4

00002eb6 <.bb>:
    2eb6:	50 00 20    	mov.w     #0x5, w0
    2eb8:	2d 23 07    	rcall     0x7514 <_EE_alarm_CancelAlarm>
    2eba:	11 fd 37    	bra       0x28de <.L330>

00002ebc <.L366>:
    2ebc:	30 00 20    	mov.w     #0x3, w0
    2ebe:	2a 23 07    	rcall     0x7514 <_EE_alarm_CancelAlarm>
    2ec0:	0a 02 be    	mov.d     w10, w4
    2ec2:	08 01 be    	mov.d     w8, w2
    2ec4:	30 00 20    	mov.w     #0x3, w0
    2ec6:	08 24 07    	rcall     0x76d8 <_EE_alarm_SetRelAlarm>
    2ec8:	5c fe 37    	bra       0x2b82 <.L256>

00002eca <.L367>:
    2eca:	20 00 20    	mov.w     #0x2, w0
    2ecc:	23 23 07    	rcall     0x7514 <_EE_alarm_CancelAlarm>
    2ece:	0a 02 be    	mov.d     w10, w4
    2ed0:	0c 01 be    	mov.d     w12, w2
    2ed2:	20 00 20    	mov.w     #0x2, w0
    2ed4:	01 24 07    	rcall     0x76d8 <_EE_alarm_SetRelAlarm>

00002ed6 <.bb>:
    2ed6:	40 00 20    	mov.w     #0x4, w0
    2ed8:	1d 23 07    	rcall     0x7514 <_EE_alarm_CancelAlarm>
    2eda:	14 00 20    	mov.w     #0x1, w4
    2edc:	05 00 20    	mov.w     #0x0, w5
    2ede:	0c 01 be    	mov.d     w12, w2
    2ee0:	40 00 20    	mov.w     #0x4, w0
    2ee2:	fa 23 07    	rcall     0x76d8 <_EE_alarm_SetRelAlarm>

00002ee4 <.eb>:
    2ee4:	f0 c0 b3    	mov.b     #0xf, w0
    2ee6:	36 ef b7    	mov.b     WREG, 0xf36
    2ee8:	34 af a9    	bclr.b    0xf34, #0x5
    2eea:	34 2f a9    	bclr.b    0xf34, #0x1
    2eec:	34 0f a9    	bclr.b    0xf34, #0x0
    2eee:	5f fe 37    	bra       0x2bae <.L371>

00002ef0 <.L360>:
    2ef0:	34 af a8    	bset.b    0xf34, #0x5
    2ef2:	34 8f a8    	bset.b    0xf34, #0x4

00002ef4 <.bb>:
    2ef4:	68 7a 80    	mov.w     0xf4c, w8
    2ef6:	79 7a 80    	mov.w     0xf4e, w9

00002ef8 <.eb>:
    2ef8:	4c 0a de    	lsr.w     w1, #0xc, w4
    2efa:	04 82 fb    	ze        w4, w4
    2efc:	05 00 20    	mov.w     #0x0, w5
    2efe:	b8 c8 bf    	mov.b     0x8b8, WREG
    2f00:	00 80 fb    	ze        w0, w0
    2f02:	32 00 20    	mov.w     #0x3, w2
    2f04:	03 00 20    	mov.w     #0x0, w3

00002f06 <.LB3140>:
    2f06:	00 00 e9    	dec.w     w0, w0
    2f08:	03 00 33    	bra       N, 0x2f10 <.LE3140>
    2f0a:	02 01 41    	add.w     w2, w2, w2
    2f0c:	83 81 49    	addc.w    w3, w3, w3
    2f0e:	fb ff 37    	bra       0x2f06 <.LB3140>

00002f10 <.LE3140>:
    2f10:	02 20 b8    	mul.uu    w4, w2, w0
    2f12:	03 a2 b9    	mul.ss    w4, w3, w4
    2f14:	84 80 40    	add.w     w1, w4, w1
    2f16:	00 04 44    	add.w     w8, w0, w8
    2f18:	81 84 4c    	addc.w    w9, w1, w9
    2f1a:	48 77 88    	mov.w     w8, 0xee8
    2f1c:	59 77 88    	mov.w     w9, 0xeea

00002f1e <.bb>:
    2f1e:	50 00 20    	mov.w     #0x5, w0
    2f20:	f9 22 07    	rcall     0x7514 <_EE_alarm_CancelAlarm>
    2f22:	60 22 b8    	mul.uu    w4, #0x0, w4
    2f24:	22 00 20    	mov.w     #0x2, w2
    2f26:	03 00 20    	mov.w     #0x0, w3
    2f28:	50 00 20    	mov.w     #0x5, w0
    2f2a:	d6 23 07    	rcall     0x76d8 <_EE_alarm_SetRelAlarm>

00002f2c <.eb>:
    2f2c:	21 71 80    	mov.w     0xe24, w1
    2f2e:	48 08 de    	lsr.w     w1, #0x8, w0
    2f30:	6f 00 60    	and.w     w0, #0xf, w0
    2f32:	cc 08 de    	lsr.w     w1, #0xc, w1
    2f34:	01 00 40    	add.w     w0, w1, w0
    2f36:	ef 0f 50    	sub.w     w0, #0xf, [w15]
    2f38:	35 fd 32    	bra       Z, 0x29a4 <.L349>

00002f3a <.eb>:
    2f3a:	4f 06 be    	mov.d     [--w15], w12
    2f3c:	4f 05 be    	mov.d     [--w15], w10
    2f3e:	4f 04 be    	mov.d     [--w15], w8
    2f40:	00 80 fa    	ulnk      
    2f42:	00 00 06    	return    
    2f44:	a2 fc 37    	bra       0x288a <.L248>

00002f46 <.L343>:
    2f46:	c0 16 23    	mov.w     #0x316c, w0
    2f48:	00 08 eb    	clr.w     [w0]
    2f4a:	30 10 78    	mov.w     [w0++], [w0--]

00002f4c <.bb>:
    2f4c:	30 00 20    	mov.w     #0x3, w0
    2f4e:	42 22 07    	rcall     0x73d4 <_EE_fp_ReleaseResource>

00002f50 <.eb>:
    2f50:	00 40 eb    	clr.b     w0
    2f52:	10 04 07    	rcall     0x3774 <_uwl_gts_queue_flush>

00002f54 <.bb>:
    2f54:	50 00 20    	mov.w     #0x5, w0
    2f56:	de 22 07    	rcall     0x7514 <_EE_alarm_CancelAlarm>
    2f58:	64 fd 37    	bra       0x2a22 <.L372>

00002f5a <.L332>:
    2f5a:	08 80 fb    	ze        w8, w0
    2f5c:	42 00 dd    	sl.w      w0, #0x2, w0
    2f5e:	c1 16 23    	mov.w     #0x316c, w1
    2f60:	01 00 40    	add.w     w0, w1, w0
    2f62:	00 08 eb    	clr.w     [w0]
    2f64:	30 10 78    	mov.w     [w0++], [w0--]

00002f66 <.bb>:
    2f66:	30 00 20    	mov.w     #0x3, w0
    2f68:	35 22 07    	rcall     0x73d4 <_EE_fp_ReleaseResource>

00002f6a <.eb>:
    2f6a:	a0 79 80    	mov.w     0xf34, w0
    2f6c:	47 00 de    	lsr.w     w0, #0x7, w0
    2f6e:	67 40 60    	and.b     w0, #0x7, w0
    2f70:	01 04 07    	rcall     0x3774 <_uwl_gts_queue_flush>
    2f72:	a2 79 80    	mov.w     0xf34, w2
    2f74:	47 10 de    	lsr.w     w2, #0x7, w0
    2f76:	00 40 e8    	inc.b     w0, w0
    2f78:	67 00 60    	and.w     w0, #0x7, w0
    2f7a:	47 00 dd    	sl.w      w0, #0x7, w0
    2f7c:	f1 c7 2f    	mov.w     #0xfc7f, w1
    2f7e:	01 01 61    	and.w     w2, w1, w2
    2f80:	00 01 71    	ior.w     w2, w0, w2
    2f82:	a2 79 88    	mov.w     w2, 0xf34
    2f84:	66 05 45    	add.w     w10, #0x6, w10

00002f86 <.bb>:
    2f86:	20 00 20    	mov.w     #0x2, w0
    2f88:	25 22 07    	rcall     0x73d4 <_EE_fp_ReleaseResource>
    2f8a:	e3 fc 37    	bra       0x2952 <.L327>

00002f8c <.L294>:
    2f8c:	c0 16 23    	mov.w     #0x316c, w0
    2f8e:	00 08 eb    	clr.w     [w0]
    2f90:	30 10 78    	mov.w     [w0++], [w0--]

00002f92 <.bb>:
    2f92:	30 00 20    	mov.w     #0x3, w0
    2f94:	1f 22 07    	rcall     0x73d4 <_EE_fp_ReleaseResource>

00002f96 <.eb>:
    2f96:	34 af a9    	bclr.b    0xf34, #0x5
    2f98:	34 8f a9    	bclr.b    0xf34, #0x4
    2f9a:	08 40 78    	mov.b     w8, w0
    2f9c:	eb 03 07    	rcall     0x3774 <_uwl_gts_queue_flush>

00002f9e <.bb>:
    2f9e:	50 00 20    	mov.w     #0x5, w0
    2fa0:	b9 22 07    	rcall     0x7514 <_EE_alarm_CancelAlarm>
    2fa2:	48 fd 37    	bra       0x2a34 <.L287>

00002fa4 <.L291>:
    2fa4:	40 18 23    	mov.w     #0x3184, w0
    2fa6:	00 08 eb    	clr.w     [w0]
    2fa8:	30 10 78    	mov.w     [w0++], [w0--]
    2faa:	68 c0 b3    	mov.b     #0x6, w8

00002fac <.bb>:
    2fac:	30 00 20    	mov.w     #0x3, w0
    2fae:	12 22 07    	rcall     0x73d4 <_EE_fp_ReleaseResource>

00002fb0 <.eb>:
    2fb0:	34 af a9    	bclr.b    0xf34, #0x5
    2fb2:	34 8f a9    	bclr.b    0xf34, #0x4
    2fb4:	08 40 78    	mov.b     w8, w0
    2fb6:	de 03 07    	rcall     0x3774 <_uwl_gts_queue_flush>

00002fb8 <.bb>:
    2fb8:	50 00 20    	mov.w     #0x5, w0
    2fba:	ac 22 07    	rcall     0x7514 <_EE_alarm_CancelAlarm>
    2fbc:	3b fd 37    	bra       0x2a34 <.L287>

00002fbe <_on_gts_send>:
    2fbe:	88 1f 78    	mov.w     w8, [w15++]
    2fc0:	34 8f ab    	btst.b    0xf34, #0x4
    2fc2:	02 00 3a    	bra       NZ, 0x2fc8 <.L392>
    2fc4:	4f 04 78    	mov.w     [--w15], w8
    2fc6:	00 00 06    	return    

00002fc8 <.L392>:
    2fc8:	20 00 20    	mov.w     #0x2, w0
    2fca:	29 22 07    	rcall     0x741e <_EE_fp_GetResource>

00002fcc <.eb>:
    2fcc:	a0 79 80    	mov.w     0xf34, w0
    2fce:	47 00 de    	lsr.w     w0, #0x7, w0
    2fd0:	67 40 60    	and.b     w0, #0x7, w0
    2fd2:	d3 01 07    	rcall     0x337a <_uwl_gts_queue_is_empty>
    2fd4:	00 04 e0    	cp0.b     w0
    2fd6:	06 00 32    	bra       Z, 0x2fe4 <.L378>
    2fd8:	34 8f a9    	bclr.b    0xf34, #0x4

00002fda <.bb>:
    2fda:	20 00 20    	mov.w     #0x2, w0
    2fdc:	fb 21 07    	rcall     0x73d4 <_EE_fp_ReleaseResource>

00002fde <.eb>:
    2fde:	4f 04 78    	mov.w     [--w15], w8
    2fe0:	00 00 06    	return    
    2fe2:	f2 ff 37    	bra       0x2fc8 <.L392>

00002fe4 <.L378>:
    2fe4:	a0 79 80    	mov.w     0xf34, w0
    2fe6:	47 00 de    	lsr.w     w0, #0x7, w0
    2fe8:	67 40 60    	and.b     w0, #0x7, w0
    2fea:	e7 01 07    	rcall     0x33ba <_uwl_gts_queue_extract>
    2fec:	00 04 78    	mov.w     w0, w8
    2fee:	00 00 e0    	cp0.w     w0
    2ff0:	16 00 32    	bra       Z, 0x301e <.L389>
    2ff2:	34 af ab    	btst.b    0xf34, #0x5
    2ff4:	19 00 32    	bra       Z, 0x3028 <.L393>
    2ff6:	f0 38 90    	mov.w     [w0+126], w1
    2ff8:	c9 08 de    	lsr.w     w1, #0x9, w1
    2ffa:	a3 20 07    	rcall     0x7142 <_uwl_radio_phy_send_now>
    2ffc:	00 04 e0    	cp0.b     w0
    2ffe:	1d 00 3a    	bra       NZ, 0x303a <.L384>
    3000:	08 40 91    	mov.b     [w8+128], w0
    3002:	60 11 b8    	mul.uu    w2, #0x0, w2
    3004:	80 00 eb    	clr.w     w1
    3006:	e9 14 07    	rcall     0x59da <_uwl_MCPS_DATA_confirm>

00003008 <.L386>:
    3008:	78 38 90    	mov.w     [w8+126], w0
    300a:	49 00 de    	lsr.w     w0, #0x9, w0
    300c:	f2 0f 50    	sub.w     w0, #0x12, [w15]
    300e:	1a 00 34    	bra       LE, 0x3044 <.L387>

00003010 <.bb>:
    3010:	50 00 20    	mov.w     #0x5, w0
    3012:	80 22 07    	rcall     0x7514 <_EE_alarm_CancelAlarm>
    3014:	60 22 b8    	mul.uu    w4, #0x0, w4
    3016:	22 00 20    	mov.w     #0x2, w2
    3018:	03 00 20    	mov.w     #0x0, w3
    301a:	50 00 20    	mov.w     #0x5, w0
    301c:	5d 23 07    	rcall     0x76d8 <_EE_alarm_SetRelAlarm>

0000301e <.L389>:
    301e:	20 00 20    	mov.w     #0x2, w0
    3020:	d9 21 07    	rcall     0x73d4 <_EE_fp_ReleaseResource>

00003022 <.L394>:
    3022:	4f 04 78    	mov.w     [--w15], w8
    3024:	00 00 06    	return    
    3026:	d0 ff 37    	bra       0x2fc8 <.L392>

00003028 <.L393>:
    3028:	20 00 20    	mov.w     #0x2, w0
    302a:	d4 21 07    	rcall     0x73d4 <_EE_fp_ReleaseResource>

0000302c <.eb>:
    302c:	08 40 91    	mov.b     [w8+128], w0
    302e:	60 11 b8    	mul.uu    w2, #0x0, w2
    3030:	61 0e 20    	mov.w     #0xe6, w1
    3032:	d3 14 07    	rcall     0x59da <_uwl_MCPS_DATA_confirm>
    3034:	4f 04 78    	mov.w     [--w15], w8
    3036:	00 00 06    	return    
    3038:	c7 ff 37    	bra       0x2fc8 <.L392>

0000303a <.L384>:
    303a:	08 40 91    	mov.b     [w8+128], w0
    303c:	60 11 b8    	mul.uu    w2, #0x0, w2
    303e:	61 0e 20    	mov.w     #0xe6, w1
    3040:	cc 14 07    	rcall     0x59da <_uwl_MCPS_DATA_confirm>
    3042:	e2 ff 37    	bra       0x3008 <.L386>

00003044 <.L387>:
    3044:	50 00 20    	mov.w     #0x5, w0
    3046:	66 22 07    	rcall     0x7514 <_EE_alarm_CancelAlarm>
    3048:	60 22 b8    	mul.uu    w4, #0x0, w4
    304a:	12 00 20    	mov.w     #0x1, w2
    304c:	03 00 20    	mov.w     #0x0, w3
    304e:	50 00 20    	mov.w     #0x5, w0
    3050:	43 23 07    	rcall     0x76d8 <_EE_alarm_SetRelAlarm>

00003052 <.bb>:
    3052:	20 00 20    	mov.w     #0x2, w0
    3054:	bf 21 07    	rcall     0x73d4 <_EE_fp_ReleaseResource>
    3056:	e5 ff 37    	bra       0x3022 <.L394>

00003058 <_uwl_mac_csma_unslotted_init>:
    3058:	02 c4 29    	mov.w     #0x9c40, w2
    305a:	03 00 20    	mov.w     #0x0, w3
    305c:	00 14 20    	mov.w     #0x140, w0
    305e:	01 00 20    	mov.w     #0x0, w1
    3060:	82 1e 07    	rcall     0x6d66 <_uwl_timer_init>

00003062 <.eb>:
    3062:	61 ff 2f    	mov.w     #0xfff6, w1

00003064 <.bb>:
    3064:	00 04 e0    	cp0.b     w0
    3066:	15 00 35    	bra       LT, 0x3092 <.L403>
    3068:	e0 70 27    	mov.w     #0x770e, w0
    306a:	30 1f 07    	rcall     0x6ecc <_uwl_timer_set_isr_callback>

0000306c <.bb>:
    306c:	87 80 a9    	bclr.b    0x87, #0x4
    306e:	97 80 a8    	bset.b    0x97, #0x4
    3070:	21 e1 a8    	bset.b    0x121, #0x7

00003072 <.bb>:
    3072:	00 30 22    	mov.w     #0x2300, w0
    3074:	60 77 88    	mov.w     w0, 0xeec

00003076 <.bb>:
    3076:	90 00 20    	mov.w     #0x9, w0
    3078:	1c 22 07    	rcall     0x74b2 <_EE_fp_ActivateTask>
    307a:	40 00 20    	mov.w     #0x4, w0
    307c:	4b 22 07    	rcall     0x7514 <_EE_alarm_CancelAlarm>
    307e:	a4 00 20    	mov.w     #0xa, w4
    3080:	05 00 20    	mov.w     #0x0, w5
    3082:	04 01 be    	mov.d     w4, w2
    3084:	40 00 20    	mov.w     #0x4, w0
    3086:	28 23 07    	rcall     0x76d8 <_EE_alarm_SetRelAlarm>

00003088 <.eb>:
    3088:	fd 4e a9    	bclr.b    0xefd, #0x2
    308a:	fd 6e a9    	bclr.b    0xefd, #0x3
    308c:	fd 8e a9    	bclr.b    0xefd, #0x4
    308e:	4c 20 07    	rcall     0x7128 <_uwl_radio_phy_set_rx_on>
    3090:	11 00 20    	mov.w     #0x1, w1

00003092 <.L403>:
    3092:	01 00 78    	mov.w     w1, w0
    3094:	00 00 06    	return    

00003096 <_uwl_mac_superframe_start>:
    3096:	88 9f be    	mov.d     w8, [w15++]
    3098:	8a 9f be    	mov.d     w10, [w15++]
    309a:	8c 9f be    	mov.d     w12, [w15++]
    309c:	00 06 be    	mov.d     w0, w12
    309e:	41 71 80    	mov.w     0xe28, w1
    30a0:	01 58 a3    	btst.z    w1, #0x5
    30a2:	3c 00 3a    	bra       NZ, 0x311c
    30a4:	f0 c0 b3    	mov.b     #0xf, w0
    30a6:	36 ef b7    	mov.b     WREG, 0xf36
    30a8:	34 2f a9    	bclr.b    0xf34, #0x1
    30aa:	34 0f a9    	bclr.b    0xf34, #0x0
    30ac:	34 4f a9    	bclr.b    0xf34, #0x2
    30ae:	34 6f a9    	bclr.b    0xf34, #0x3
    30b0:	34 cf a9    	bclr.b    0xf34, #0x6
    30b2:	66 80 60    	and.w     w1, #0x6, w0
    30b4:	2f 00 32    	bra       Z, 0x3114 <.L425>

000030b6 <.bb>:
    30b6:	e0 0f 56    	sub.w     w12, #0x0, [w15]
    30b8:	e0 8f 5e    	subb.w    w13, #0x0, [w15]
    30ba:	02 00 3a    	bra       NZ, 0x30c0 <.L413>
    30bc:	2c 00 20    	mov.w     #0x2, w12
    30be:	0d 00 20    	mov.w     #0x0, w13

000030c0 <.L413>:
    30c0:	b8 c8 bf    	mov.b     0x8b8, WREG
    30c2:	00 80 fb    	ze        w0, w0
    30c4:	3a 00 20    	mov.w     #0x3, w10
    30c6:	0b 00 20    	mov.w     #0x0, w11

000030c8 <.LB3626>:
    30c8:	00 00 e9    	dec.w     w0, w0
    30ca:	03 00 33    	bra       N, 0x30d2 <.LE3626>
    30cc:	0a 05 45    	add.w     w10, w10, w10
    30ce:	8b 85 4d    	addc.w    w11, w11, w11
    30d0:	fb ff 37    	bra       0x30c8 <.LB3626>

000030d2 <.LE3626>:
    30d2:	0c 00 45    	add.w     w10, w12, w0
    30d4:	8d 80 4d    	addc.w    w11, w13, w1
    30d6:	62 04 50    	sub.w     w0, #0x2, w8
    30d8:	e0 84 58    	subb.w    w1, #0x0, w9

000030da <.bb>:
    30da:	4f 00 3a    	bra       NZ, 0x317a <.L428>
    30dc:	e0 0f 55    	sub.w     w10, #0x0, [w15]
    30de:	e0 8f 5d    	subb.w    w11, #0x0, [w15]
    30e0:	23 00 32    	bra       Z, 0x3128 <.L429>
    30e2:	80 00 20    	mov.w     #0x8, w0
    30e4:	e6 21 07    	rcall     0x74b2 <_EE_fp_ActivateTask>
    30e6:	30 00 20    	mov.w     #0x3, w0
    30e8:	15 22 07    	rcall     0x7514 <_EE_alarm_CancelAlarm>
    30ea:	0a 02 be    	mov.d     w10, w4
    30ec:	0a 01 be    	mov.d     w10, w2
    30ee:	30 00 20    	mov.w     #0x3, w0
    30f0:	f3 22 07    	rcall     0x76d8 <_EE_alarm_SetRelAlarm>

000030f2 <.L417>:
    30f2:	e0 0f 56    	sub.w     w12, #0x0, [w15]
    30f4:	e0 8f 5e    	subb.w    w13, #0x0, [w15]
    30f6:	1d 00 3a    	bra       NZ, 0x3132 <.L430>

000030f8 <.L420>:
    30f8:	e0 0f 55    	sub.w     w10, #0x0, [w15]
    30fa:	e0 8f 5d    	subb.w    w11, #0x0, [w15]
    30fc:	2c 00 3a    	bra       NZ, 0x3156 <.L422>
    30fe:	70 00 20    	mov.w     #0x7, w0
    3100:	d8 21 07    	rcall     0x74b2 <_EE_fp_ActivateTask>

00003102 <.bb>:
    3102:	90 00 20    	mov.w     #0x9, w0
    3104:	d6 21 07    	rcall     0x74b2 <_EE_fp_ActivateTask>
    3106:	40 00 20    	mov.w     #0x4, w0
    3108:	05 22 07    	rcall     0x7514 <_EE_alarm_CancelAlarm>
    310a:	14 00 20    	mov.w     #0x1, w4
    310c:	05 00 20    	mov.w     #0x0, w5
    310e:	04 01 be    	mov.d     w4, w2
    3110:	40 00 20    	mov.w     #0x4, w0
    3112:	e2 22 07    	rcall     0x76d8 <_EE_alarm_SetRelAlarm>

00003114 <.L425>:
    3114:	4f 06 be    	mov.d     [--w15], w12
    3116:	4f 05 be    	mov.d     [--w15], w10
    3118:	4f 04 be    	mov.d     [--w15], w8
    311a:	00 00 06    	return    

0000311c <.L427>:
    311c:	05 20 07    	rcall     0x7128 <_uwl_radio_phy_set_rx_on>
    311e:	4f 06 be    	mov.d     [--w15], w12
    3120:	4f 05 be    	mov.d     [--w15], w10
    3122:	4f 04 be    	mov.d     [--w15], w8
    3124:	00 00 06    	return    
    3126:	fa ff 37    	bra       0x311c

00003128 <.L429>:
    3128:	80 00 20    	mov.w     #0x8, w0
    312a:	c3 21 07    	rcall     0x74b2 <_EE_fp_ActivateTask>

0000312c <.bb>:
    312c:	e0 0f 56    	sub.w     w12, #0x0, [w15]
    312e:	e0 8f 5e    	subb.w    w13, #0x0, [w15]
    3130:	e3 ff 32    	bra       Z, 0x30f8 <.L420>

00003132 <.L430>:
    3132:	20 00 20    	mov.w     #0x2, w0
    3134:	ef 21 07    	rcall     0x7514 <_EE_alarm_CancelAlarm>
    3136:	0a 02 be    	mov.d     w10, w4
    3138:	0c 01 be    	mov.d     w12, w2
    313a:	20 00 20    	mov.w     #0x2, w0
    313c:	cd 22 07    	rcall     0x76d8 <_EE_alarm_SetRelAlarm>

0000313e <.bb>:
    313e:	40 00 20    	mov.w     #0x4, w0
    3140:	e9 21 07    	rcall     0x7514 <_EE_alarm_CancelAlarm>
    3142:	14 00 20    	mov.w     #0x1, w4
    3144:	05 00 20    	mov.w     #0x0, w5
    3146:	0c 01 be    	mov.d     w12, w2
    3148:	40 00 20    	mov.w     #0x4, w0
    314a:	c6 22 07    	rcall     0x76d8 <_EE_alarm_SetRelAlarm>

0000314c <.eb>:
    314c:	4f 06 be    	mov.d     [--w15], w12
    314e:	4f 05 be    	mov.d     [--w15], w10
    3150:	4f 04 be    	mov.d     [--w15], w8
    3152:	00 00 06    	return    
    3154:	e3 ff 37    	bra       0x311c

00003156 <.L422>:
    3156:	70 00 20    	mov.w     #0x7, w0
    3158:	ac 21 07    	rcall     0x74b2 <_EE_fp_ActivateTask>
    315a:	20 00 20    	mov.w     #0x2, w0
    315c:	db 21 07    	rcall     0x7514 <_EE_alarm_CancelAlarm>
    315e:	0a 02 be    	mov.d     w10, w4
    3160:	0a 01 be    	mov.d     w10, w2
    3162:	20 00 20    	mov.w     #0x2, w0
    3164:	b9 22 07    	rcall     0x76d8 <_EE_alarm_SetRelAlarm>

00003166 <.bb>:
    3166:	90 00 20    	mov.w     #0x9, w0
    3168:	a4 21 07    	rcall     0x74b2 <_EE_fp_ActivateTask>
    316a:	40 00 20    	mov.w     #0x4, w0
    316c:	d3 21 07    	rcall     0x7514 <_EE_alarm_CancelAlarm>
    316e:	14 00 20    	mov.w     #0x1, w4
    3170:	05 00 20    	mov.w     #0x0, w5
    3172:	04 01 be    	mov.d     w4, w2
    3174:	40 00 20    	mov.w     #0x4, w0
    3176:	b0 22 07    	rcall     0x76d8 <_EE_alarm_SetRelAlarm>
    3178:	cd ff 37    	bra       0x3114 <.L425>

0000317a <.L428>:
    317a:	30 00 20    	mov.w     #0x3, w0
    317c:	cb 21 07    	rcall     0x7514 <_EE_alarm_CancelAlarm>
    317e:	0a 02 be    	mov.d     w10, w4
    3180:	08 01 be    	mov.d     w8, w2
    3182:	30 00 20    	mov.w     #0x3, w0
    3184:	a9 22 07    	rcall     0x76d8 <_EE_alarm_SetRelAlarm>
    3186:	b5 ff 37    	bra       0x30f2 <.L417>

00003188 <_uwl_mac_superframe_resync>:
    3188:	88 9f be    	mov.d     w8, [w15++]
    318a:	8a 9f be    	mov.d     w10, [w15++]
    318c:	29 0e a9    	bclr.b    0xe29, #0x0
    318e:	29 2e a9    	bclr.b    0xe29, #0x1
    3190:	29 4e a9    	bclr.b    0xe29, #0x2
    3192:	29 6e a9    	bclr.b    0xe29, #0x3
    3194:	29 ae a8    	bset.b    0xe29, #0x5
    3196:	28 ae ab    	btst.b    0xe28, #0x5
    3198:	03 00 3a    	bra       NZ, 0x31a0 <.L446>
    319a:	4f 05 be    	mov.d     [--w15], w10
    319c:	4f 04 be    	mov.d     [--w15], w8
    319e:	00 00 06    	return    

000031a0 <.L446>:
    31a0:	20 00 20    	mov.w     #0x2, w0
    31a2:	b8 21 07    	rcall     0x7514 <_EE_alarm_CancelAlarm>

000031a4 <.bb>:
    31a4:	30 00 20    	mov.w     #0x3, w0
    31a6:	b6 21 07    	rcall     0x7514 <_EE_alarm_CancelAlarm>

000031a8 <.bb>:
    31a8:	40 00 20    	mov.w     #0x4, w0
    31aa:	b4 21 07    	rcall     0x7514 <_EE_alarm_CancelAlarm>

000031ac <.eb>:
    31ac:	b8 c8 bf    	mov.b     0x8b8, WREG
    31ae:	00 80 fb    	ze        w0, w0
    31b0:	3a 00 20    	mov.w     #0x3, w10
    31b2:	0b 00 20    	mov.w     #0x0, w11

000031b4 <.LB3885>:
    31b4:	00 00 e9    	dec.w     w0, w0
    31b6:	03 00 33    	bra       N, 0x31be <.LE3885>
    31b8:	0a 05 45    	add.w     w10, w10, w10
    31ba:	8b 85 4d    	addc.w    w11, w11, w11
    31bc:	fb ff 37    	bra       0x31b4 <.LB3885>

000031be <.LE3885>:
    31be:	f0 c0 b3    	mov.b     #0xf, w0
    31c0:	36 ef b7    	mov.b     WREG, 0xf36
    31c2:	62 04 55    	sub.w     w10, #0x2, w8
    31c4:	e0 84 5d    	subb.w    w11, #0x0, w9

000031c6 <.bb>:
    31c6:	2e 00 3a    	bra       NZ, 0x3224 <.L447>
    31c8:	e0 0f 55    	sub.w     w10, #0x0, [w15]
    31ca:	e0 8f 5d    	subb.w    w11, #0x0, [w15]
    31cc:	1d 00 32    	bra       Z, 0x3208 <.L448>
    31ce:	80 00 20    	mov.w     #0x8, w0
    31d0:	70 21 07    	rcall     0x74b2 <_EE_fp_ActivateTask>
    31d2:	30 00 20    	mov.w     #0x3, w0
    31d4:	9f 21 07    	rcall     0x7514 <_EE_alarm_CancelAlarm>
    31d6:	0a 02 be    	mov.d     w10, w4
    31d8:	0a 01 be    	mov.d     w10, w2
    31da:	30 00 20    	mov.w     #0x3, w0
    31dc:	7d 22 07    	rcall     0x76d8 <_EE_alarm_SetRelAlarm>

000031de <.bb>:
    31de:	70 00 20    	mov.w     #0x7, w0
    31e0:	68 21 07    	rcall     0x74b2 <_EE_fp_ActivateTask>
    31e2:	20 00 20    	mov.w     #0x2, w0
    31e4:	97 21 07    	rcall     0x7514 <_EE_alarm_CancelAlarm>
    31e6:	0a 02 be    	mov.d     w10, w4
    31e8:	0a 01 be    	mov.d     w10, w2
    31ea:	20 00 20    	mov.w     #0x2, w0
    31ec:	75 22 07    	rcall     0x76d8 <_EE_alarm_SetRelAlarm>

000031ee <.L442>:
    31ee:	90 00 20    	mov.w     #0x9, w0
    31f0:	60 21 07    	rcall     0x74b2 <_EE_fp_ActivateTask>
    31f2:	40 00 20    	mov.w     #0x4, w0
    31f4:	8f 21 07    	rcall     0x7514 <_EE_alarm_CancelAlarm>
    31f6:	14 00 20    	mov.w     #0x1, w4
    31f8:	05 00 20    	mov.w     #0x0, w5
    31fa:	04 01 be    	mov.d     w4, w2
    31fc:	40 00 20    	mov.w     #0x4, w0
    31fe:	6c 22 07    	rcall     0x76d8 <_EE_alarm_SetRelAlarm>

00003200 <.L449>:
    3200:	4f 05 be    	mov.d     [--w15], w10
    3202:	4f 04 be    	mov.d     [--w15], w8
    3204:	00 00 06    	return    
    3206:	cc ff 37    	bra       0x31a0 <.L446>

00003208 <.L448>:
    3208:	80 00 20    	mov.w     #0x8, w0
    320a:	53 21 07    	rcall     0x74b2 <_EE_fp_ActivateTask>

0000320c <.L438>:
    320c:	70 00 20    	mov.w     #0x7, w0
    320e:	51 21 07    	rcall     0x74b2 <_EE_fp_ActivateTask>

00003210 <.bb>:
    3210:	90 00 20    	mov.w     #0x9, w0
    3212:	4f 21 07    	rcall     0x74b2 <_EE_fp_ActivateTask>
    3214:	40 00 20    	mov.w     #0x4, w0
    3216:	7e 21 07    	rcall     0x7514 <_EE_alarm_CancelAlarm>
    3218:	14 00 20    	mov.w     #0x1, w4
    321a:	05 00 20    	mov.w     #0x0, w5
    321c:	04 01 be    	mov.d     w4, w2
    321e:	40 00 20    	mov.w     #0x4, w0
    3220:	5b 22 07    	rcall     0x76d8 <_EE_alarm_SetRelAlarm>
    3222:	ee ff 37    	bra       0x3200 <.L449>

00003224 <.L447>:
    3224:	30 00 20    	mov.w     #0x3, w0
    3226:	76 21 07    	rcall     0x7514 <_EE_alarm_CancelAlarm>
    3228:	0a 02 be    	mov.d     w10, w4
    322a:	08 01 be    	mov.d     w8, w2
    322c:	30 00 20    	mov.w     #0x3, w0
    322e:	54 22 07    	rcall     0x76d8 <_EE_alarm_SetRelAlarm>

00003230 <.bb>:
    3230:	e0 0f 55    	sub.w     w10, #0x0, [w15]
    3232:	e0 8f 5d    	subb.w    w11, #0x0, [w15]
    3234:	eb ff 32    	bra       Z, 0x320c <.L438>
    3236:	70 00 20    	mov.w     #0x7, w0
    3238:	3c 21 07    	rcall     0x74b2 <_EE_fp_ActivateTask>
    323a:	20 00 20    	mov.w     #0x2, w0
    323c:	6b 21 07    	rcall     0x7514 <_EE_alarm_CancelAlarm>
    323e:	0a 02 be    	mov.d     w10, w4
    3240:	0a 01 be    	mov.d     w10, w2
    3242:	20 00 20    	mov.w     #0x2, w0
    3244:	49 22 07    	rcall     0x76d8 <_EE_alarm_SetRelAlarm>
    3246:	d3 ff 37    	bra       0x31ee <.L442>

00003248 <_uwl_mac_superframe_gts_wakeup>:
    3248:	88 1f 78    	mov.w     w8, [w15++]
    324a:	00 44 78    	mov.b     w0, w8
    324c:	80 16 2a    	mov.w     #0xa168, w0
    324e:	1e 10 07    	rcall     0x528c <_uwl_debug_print>
    3250:	40 71 80    	mov.w     0xe28, w0
    3252:	66 00 60    	and.w     w0, #0x6, w0
    3254:	0d 00 32    	bra       Z, 0x3270 <.L453>
    3256:	88 80 fb    	ze        w8, w1
    3258:	08 40 78    	mov.b     w8, w0
    325a:	62 c0 b3    	mov.b     #0x6, w2
    325c:	04 40 bc    	mul.b     0x4
    325e:	60 f5 20    	mov.w     #0xf56, w0
    3260:	00 01 41    	add.w     w2, w0, w2
    3262:	a3 79 80    	mov.w     0xf34, w3
    3264:	47 18 de    	lsr.w     w3, #0x7, w0
    3266:	67 00 60    	and.w     w0, #0x7, w0
    3268:	80 8f 50    	sub.w     w1, w0, [w15]
    326a:	15 00 32    	bra       Z, 0x3296 <.L468>

0000326c <.L464>:
    326c:	4f 04 78    	mov.w     [--w15], w8
    326e:	00 00 06    	return    

00003270 <.L453>:
    3270:	34 8f ab    	btst.b    0xf34, #0x4
    3272:	fc ff 3a    	bra       NZ, 0x326c <.L464>
    3274:	22 71 80    	mov.w     0xe24, w2
    3276:	00 00 2f    	mov.w     #0xf000, w0
    3278:	00 00 61    	and.w     w2, w0, w0
    327a:	f8 ff 32    	bra       Z, 0x326c <.L464>
    327c:	61 f3 20    	mov.w     #0xf36, w1
    327e:	91 40 78    	mov.b     [w1], w1
    3280:	81 80 fb    	ze        w1, w1
    3282:	48 10 de    	lsr.w     w2, #0x8, w0
    3284:	6f 00 60    	and.w     w0, #0xf, w0
    3286:	80 8f 50    	sub.w     w1, w0, [w15]
    3288:	f1 ff 3a    	bra       NZ, 0x326c <.L464>

0000328a <.L465>:
    328a:	34 8f a8    	bset.b    0xf34, #0x4

0000328c <.bb>:
    328c:	a0 00 20    	mov.w     #0xa, w0
    328e:	11 21 07    	rcall     0x74b2 <_EE_fp_ActivateTask>

00003290 <.eb>:
    3290:	4f 04 78    	mov.w     [--w15], w8
    3292:	00 00 06    	return    
    3294:	ed ff 37    	bra       0x3270 <.L453>

00003296 <.L468>:
    3296:	36 cf bf    	mov.b     0xf36, WREG
    3298:	00 80 fb    	ze        w0, w0
    329a:	12 01 78    	mov.w     [w2], w2
    329c:	ef 00 61    	and.w     w2, #0xf, w1
    329e:	81 0f 50    	sub.w     w0, w1, [w15]
    32a0:	e5 ff 3a    	bra       NZ, 0x326c <.L464>
    32a2:	02 88 a3    	btst.z    w2, #0x8
    32a4:	e3 ff 32    	bra       Z, 0x326c <.L464>
    32a6:	03 48 a3    	btst.z    w3, #0x4
    32a8:	e1 ff 3a    	bra       NZ, 0x326c <.L464>
    32aa:	02 0f b2    	and.w     #0xf0, w2
    32ac:	ee ff 3a    	bra       NZ, 0x328a <.L465>
    32ae:	4f 04 78    	mov.w     [--w15], w8
    32b0:	00 00 06    	return    
    32b2:	de ff 37    	bra       0x3270 <.L453>

000032b4 <_filtering_condition>:
    32b4:	80 02 78    	mov.w     w0, w5
    32b6:	10 80 fb    	ze        [w0], w0
    32b8:	67 02 60    	and.w     w0, #0x7, w4
    32ba:	06 00 3a    	bra       NZ, 0x32c8 <.L2>
    32bc:	80 45 80    	mov.w     0x8b0, w0
    32be:	e1 0f 40    	add.w     w0, #0x1, [w15]
    32c0:	0c 00 32    	bra       Z, 0x32da <.L26>
    32c2:	80 8f 51    	sub.w     w3, w0, [w15]
    32c4:	0a 00 32    	bra       Z, 0x32da <.L26>

000032c6 <.L7>:
    32c6:	00 00 05    	retlw.w   #0x0, w0

000032c8 <.L2>:
    32c8:	e1 8f 40    	add.w     w1, #0x1, [w15]
    32ca:	03 00 32    	bra       Z, 0x32d2 <.L9>
    32cc:	80 45 80    	mov.w     0x8b0, w0
    32ce:	80 8f 50    	sub.w     w1, w0, [w15]
    32d0:	fa ff 3a    	bra       NZ, 0x32c6 <.L7>

000032d2 <.L9>:
    32d2:	e1 0f 52    	sub.w     w4, #0x1, [w15]
    32d4:	16 00 32    	bra       Z, 0x3302 <.L11>
    32d6:	e3 0f 52    	sub.w     w4, #0x3, [w15]
    32d8:	14 00 32    	bra       Z, 0x3302 <.L11>

000032da <.L26>:
    32da:	85 00 e8    	inc.w     w5, w1

000032dc <.L6>:
    32dc:	11 80 fb    	ze        [w1], w0
    32de:	42 00 de    	lsr.w     w0, #0x2, w0
    32e0:	63 00 60    	and.w     w0, #0x3, w0
    32e2:	e2 0f 50    	sub.w     w0, #0x2, [w15]
    32e4:	1b 00 32    	bra       Z, 0x331c <.L30>
    32e6:	e3 0f 50    	sub.w     w0, #0x3, [w15]
    32e8:	01 00 32    	bra       Z, 0x32ec <.L31>

000032ea <.L19>:
    32ea:	10 00 05    	retlw.w   #0x1, w0

000032ec <.L31>:
    32ec:	20 00 20    	mov.w     #0x2, w0
    32ee:	01 00 20    	mov.w     #0x0, w1
    32f0:	b2 0f 10    	subr.w    w0, [w2++], [w15]
    32f2:	a2 8f 18    	subbr.w   w1, [w2--], [w15]
    32f4:	e8 ff 3a    	bra       NZ, 0x32c6 <.L7>
    32f6:	22 00 90    	mov.w     [w2+4], w0
    32f8:	b2 00 90    	mov.w     [w2+6], w1
    32fa:	e2 0f 50    	sub.w     w0, #0x2, [w15]
    32fc:	e0 8f 58    	subb.w    w1, #0x0, [w15]
    32fe:	f5 ff 32    	bra       Z, 0x32ea <.L19>
    3300:	00 00 05    	retlw.w   #0x0, w0

00003302 <.L11>:
    3302:	85 00 e8    	inc.w     w5, w1
    3304:	11 82 fb    	ze        [w1], w4
    3306:	42 20 de    	lsr.w     w4, #0x2, w0
    3308:	63 00 60    	and.w     w0, #0x3, w0
    330a:	e8 ff 3a    	bra       NZ, 0x32dc <.L6>
    330c:	46 20 de    	lsr.w     w4, #0x6, w0
    330e:	e6 ff 32    	bra       Z, 0x32dc <.L6>
    3310:	28 2e ab    	btst.b    0xe28, #0x1
    3312:	d9 ff 32    	bra       Z, 0x32c6 <.L7>
    3314:	80 45 80    	mov.w     0x8b0, w0
    3316:	83 0f 50    	sub.w     w0, w3, [w15]
    3318:	e1 ff 32    	bra       Z, 0x32dc <.L6>
    331a:	00 00 05    	retlw.w   #0x0, w0

0000331c <.L30>:
    331c:	92 00 78    	mov.w     [w2], w1
    331e:	b0 45 80    	mov.w     0x8b6, w0
    3320:	80 8f 50    	sub.w     w1, w0, [w15]
    3322:	e3 ff 32    	bra       Z, 0x32ea <.L19>
    3324:	e1 8f 40    	add.w     w1, #0x1, [w15]
    3326:	e1 ff 32    	bra       Z, 0x32ea <.L19>
    3328:	00 00 05    	retlw.w   #0x0, w0

0000332a <_FuncUWL_EE_TASK_MAC_PROCESS_RX_BEACON>:
    332a:	40 40 80    	mov.w     0x808, w0
    332c:	00 00 e0    	cp0.w     w0
    332e:	01 00 32    	bra       Z, 0x3332 <.L36>
    3330:	00 00 01    	call      w0

00003332 <.L36>:
    3332:	00 00 06    	return    

00003334 <_FuncUWL_EE_TASK_MAC_PROCESS_RX_DATA>:
    3334:	30 40 80    	mov.w     0x806, w0
    3336:	00 00 e0    	cp0.w     w0
    3338:	01 00 32    	bra       Z, 0x333c <.L42>
    333a:	00 00 01    	call      w0

0000333c <.L42>:
    333c:	00 00 06    	return    

0000333e <_FuncUWL_EE_TASK_MAC_PROCESS_RX_COMMAND>:
    333e:	20 40 80    	mov.w     0x804, w0
    3340:	00 00 e0    	cp0.w     w0
    3342:	01 00 32    	bra       Z, 0x3346 <.L48>
    3344:	00 00 01    	call      w0

00003346 <.L48>:
    3346:	00 00 06    	return    

00003348 <_uwl_mac_get_beacon_payload>:
    3348:	88 1f 78    	mov.w     w8, [w15++]
    334a:	80 01 78    	mov.w     w0, w3
    334c:	01 44 78    	mov.b     w1, w8
    334e:	c0 f9 2f    	mov.w     #0xff9c, w0
    3350:	29 ae ab    	btst.b    0xe29, #0x5
    3352:	0d 00 32    	bra       Z, 0x336e <.L54>
    3354:	21 80 20    	mov.w     #0x802, w1
    3356:	91 40 78    	mov.b     [w1], w1
    3358:	00 00 eb    	clr.w     w0
    335a:	01 04 e0    	cp0.b     w1
    335c:	08 00 32    	bra       Z, 0x336e <.L54>
    335e:	88 cf 50    	sub.b     w1, w8, [w15]
    3360:	01 00 31    	bra       C, 0x3364 <.L57>
    3362:	01 44 78    	mov.b     w1, w8

00003364 <.L57>:
    3364:	08 81 fb    	ze        w8, w2
    3366:	81 df 22    	mov.w     #0x2df8, w1
    3368:	03 00 78    	mov.w     w3, w0
    336a:	89 ed 07    	rcall     0xe7e <_memcpy>
    336c:	08 00 fb    	se        w8, w0

0000336e <.L54>:
    336e:	4f 04 78    	mov.w     [--w15], w8
    3370:	00 00 06    	return    

00003372 <_uwl_mac_jammer_cap>:
    3372:	00 80 eb    	setm.w    w0
    3374:	00 00 06    	return    

00003376 <_uwl_mac_set_on_rx_beacon_callback>:
    3376:	a0 fe 2f    	mov.w     #0xffea, w0
    3378:	00 00 06    	return    

0000337a <_uwl_gts_queue_is_empty>:
    337a:	80 40 78    	mov.b     w0, w1
    337c:	40 71 80    	mov.w     0xe28, w0
    337e:	66 00 60    	and.w     w0, #0x6, w0
    3380:	0d 00 32    	bra       Z, 0x339c <.L71>
    3382:	01 04 e0    	cp0.b     w1
    3384:	14 00 32    	bra       Z, 0x33ae <.L82>
    3386:	01 80 fb    	ze        w1, w0
    3388:	00 02 eb    	clr.w     w4
    338a:	00 00 40    	add.w     w0, w0, w0
    338c:	21 91 20    	mov.w     #0x912, w1
    338e:	00 81 e9    	dec2.w    w0, w2
    3390:	e0 81 78    	mov.w     [w0+w1], w3
    3392:	62 80 78    	mov.w     [w2+w1], w0
    3394:	80 8f 51    	sub.w     w3, w0, [w15]
    3396:	0e 00 32    	bra       Z, 0x33b4 <.L80>

00003398 <.L76>:
    3398:	04 00 78    	mov.w     w4, w0
    339a:	00 00 06    	return    

0000339c <.L71>:
    339c:	3a 0e e2    	cp0.w     0xe3a
    339e:	04 00 32    	bra       Z, 0x33a8 <.L83>
    33a0:	00 82 fb    	ze        w0, w4

000033a2 <.L84>:
    33a2:	04 00 78    	mov.w     w4, w0
    33a4:	00 00 06    	return    
    33a6:	fa ff 37    	bra       0x339c <.L71>

000033a8 <.L83>:
    33a8:	10 c0 b3    	mov.b     #0x1, w0
    33aa:	00 82 fb    	ze        w0, w4
    33ac:	fa ff 37    	bra       0x33a2 <.L84>

000033ae <.L82>:
    33ae:	00 02 eb    	clr.w     w4
    33b0:	12 09 e2    	cp0.w     0x912
    33b2:	f2 ff 3a    	bra       NZ, 0x3398 <.L76>

000033b4 <.L80>:
    33b4:	10 00 20    	mov.w     #0x1, w0
    33b6:	00 00 06    	return    
    33b8:	f1 ff 37    	bra       0x339c <.L71>

000033ba <_uwl_gts_queue_extract>:
    33ba:	00 42 78    	mov.b     w0, w4
    33bc:	40 71 80    	mov.w     0xe28, w0
    33be:	66 00 60    	and.w     w0, #0x6, w0
    33c0:	11 00 32    	bra       Z, 0x33e4 <.L88>
    33c2:	04 04 e0    	cp0.b     w4
    33c4:	1f 00 32    	bra       Z, 0x3404 <.L110>
    33c6:	84 81 fb    	ze        w4, w3
    33c8:	03 80 41    	add.w     w3, w3, w0
    33ca:	25 91 20    	mov.w     #0x912, w5
    33cc:	80 80 e9    	dec2.w    w0, w1
    33ce:	60 81 7a    	mov.w     [w0+w5], w2
    33d0:	61 80 7a    	mov.w     [w1+w5], w0
    33d2:	80 0f 51    	sub.w     w2, w0, [w15]
    33d4:	27 00 32    	bra       Z, 0x3424 <.L92>
    33d6:	e6 4f 52    	sub.b     w4, #0x6, [w15]
    33d8:	26 00 36    	bra       LEU, 0x3426 <.L111>
    33da:	03 80 41    	add.w     w3, w3, w0
    33dc:	00 80 e9    	dec2.w    w0, w0
    33de:	e0 80 7a    	mov.w     [w0+w5], w1
    33e0:	a0 e2 20    	mov.w     #0xe2a, w0
    33e2:	b9 13 37    	bra       0x5b56 <_list_extract>

000033e4 <.L88>:
    33e4:	3a 0e e2    	cp0.w     0xe3a
    33e6:	0d 00 32    	bra       Z, 0x3402 <.L100>
    33e8:	c0 71 80    	mov.w     0xe38, w0
    33ea:	f2 71 80    	mov.w     0xe3e, w2
    33ec:	02 81 b9    	mul.ss    w0, w2, w2
    33ee:	01 72 80    	mov.w     0xe40, w1
    33f0:	81 01 41    	add.w     w2, w1, w3
    33f2:	00 00 e8    	inc.w     w0, w0
    33f4:	e2 71 80    	mov.w     0xe3c, w2
    33f6:	11 00 09    	repeat    #0x11
    33f8:	02 80 d8    	div.uw    w0, w2
    33fa:	c1 71 88    	mov.w     w1, 0xe38
    33fc:	3a 2e ed    	dec.w     0xe3a
    33fe:	03 00 78    	mov.w     w3, w0
    3400:	00 00 06    	return    

00003402 <.L100>:
    3402:	00 00 06    	return    

00003404 <.L110>:
    3404:	12 09 e2    	cp0.w     0x912
    3406:	0e 00 32    	bra       Z, 0x3424 <.L92>
    3408:	04 41 78    	mov.b     w4, w2
    340a:	25 91 20    	mov.w     #0x912, w5

0000340c <.L105>:
    340c:	82 80 fb    	ze        w2, w1
    340e:	81 80 40    	add.w     w1, w1, w1
    3410:	61 80 7a    	mov.w     [w1+w5], w0
    3412:	00 00 e9    	dec.w     w0, w0
    3414:	80 b0 7a    	mov.w     w0, [w1+w5]
    3416:	02 41 e8    	inc.b     w2, w2
    3418:	e7 4f 51    	sub.b     w2, #0x7, [w15]
    341a:	f8 ff 3a    	bra       NZ, 0x340c <.L105>

0000341c <.L112>:
    341c:	04 04 e0    	cp0.b     w4
    341e:	0d 00 3a    	bra       NZ, 0x343a <.L104>
    3420:	a0 e2 20    	mov.w     #0xe2a, w0
    3422:	6a 13 37    	bra       0x5af8 <_list_pop_front>

00003424 <.L92>:
    3424:	00 00 05    	retlw.w   #0x0, w0

00003426 <.L111>:
    3426:	04 41 78    	mov.b     w4, w2
    3428:	82 80 fb    	ze        w2, w1
    342a:	81 80 40    	add.w     w1, w1, w1
    342c:	61 80 7a    	mov.w     [w1+w5], w0
    342e:	00 00 e9    	dec.w     w0, w0
    3430:	80 b0 7a    	mov.w     w0, [w1+w5]
    3432:	02 41 e8    	inc.b     w2, w2
    3434:	e7 4f 51    	sub.b     w2, #0x7, [w15]
    3436:	ea ff 3a    	bra       NZ, 0x340c <.L105>
    3438:	f1 ff 37    	bra       0x341c <.L112>

0000343a <.L104>:
    343a:	84 81 fb    	ze        w4, w3
    343c:	03 80 41    	add.w     w3, w3, w0
    343e:	00 80 e9    	dec2.w    w0, w0
    3440:	e0 80 7a    	mov.w     [w0+w5], w1
    3442:	a0 e2 20    	mov.w     #0xe2a, w0
    3444:	88 13 37    	bra       0x5b56 <_list_extract>

00003446 <_uwl_mac_is_tx_gts_allocated>:
    3446:	20 71 80    	mov.w     0xe24, w0
    3448:	4c 00 de    	lsr.w     w0, #0xc, w0
    344a:	00 00 06    	return    

0000344c <_uwl_mac_ack_frame>:
    344c:	80 00 fa    	lnk       #0x80

0000344e <.bb>:
    344e:	21 c0 b3    	mov.b     #0x2, w1
    3450:	81 47 9f    	mov.b     w1, [w15-128]
    3452:	80 40 eb    	clr.b     w1
    3454:	91 47 9f    	mov.b     w1, [w15-127]

00003456 <.eb>:
    3456:	10 40 78    	mov.b     [w0], w0
    3458:	a0 47 9f    	mov.b     w0, [w15-126]
    345a:	31 c0 b3    	mov.b     #0x3, w1
    345c:	00 f8 2f    	mov.w     #0xff80, w0
    345e:	0f 00 40    	add.w     w0, w15, w0
    3460:	38 1e 07    	rcall     0x70d2 <_uwl_radio_store_ack>
    3462:	a4 1e 07    	rcall     0x71ac <_uwl_radio_send_ack>
    3464:	00 80 fa    	ulnk      
    3466:	00 00 06    	return    

00003468 <_process_rx_command>:
    3468:	14 00 fa    	lnk       #0x14
    346a:	88 1f 78    	mov.w     w8, [w15++]
    346c:	00 04 eb    	clr.w     w8
    346e:	e8 b7 9f    	mov.w     w8, [w15-20]
    3470:	d8 b7 9f    	mov.w     w8, [w15-22]
    3472:	20 02 2a    	mov.w     #0xa022, w0
    3474:	0b 0f 07    	rcall     0x528c <_uwl_debug_print>

00003476 <.bb>:
    3476:	50 00 20    	mov.w     #0x5, w0
    3478:	d2 1f 07    	rcall     0x741e <_EE_fp_GetResource>

0000347a <.eb>:
    347a:	75 9a 20    	mov.w     #0x9a7, w5
    347c:	95 42 78    	mov.b     [w5], w5
    347e:	46 28 de    	lsr.w     w5, #0x6, w0
    3480:	61 03 60    	and.w     w0, #0x1, w6
    3482:	a8 c9 bf    	mov.b     0x9a8, WREG
    3484:	00 80 fb    	ze        w0, w0
    3486:	46 02 de    	lsr.w     w0, #0x6, w4
    3488:	42 00 de    	lsr.w     w0, #0x2, w0
    348a:	63 00 60    	and.w     w0, #0x3, w0

0000348c <.bb>:
    348c:	e2 0f 50    	sub.w     w0, #0x2, [w15]
    348e:	26 00 32    	bra       Z, 0x34dc <.L176>
    3490:	e3 0f 50    	sub.w     w0, #0x3, [w15]
    3492:	54 00 32    	bra       Z, 0x353c <.L130>
    3494:	88 41 78    	mov.b     w8, w3
    3496:	a7 9a 20    	mov.w     #0x9aa, w7

00003498 <.L129>:
    3498:	e2 0f 52    	sub.w     w4, #0x2, [w15]
    349a:	31 00 32    	bra       Z, 0x34fe <.L177>

0000349c <.L136>:
    349c:	e3 0f 52    	sub.w     w4, #0x3, [w15]
    349e:	12 00 32    	bra       Z, 0x34c4 <.L178>

000034a0 <.L144>:
    34a0:	03 40 78    	mov.b     w3, w0
    34a2:	05 68 a3    	btst.z    w5, #0x6
    34a4:	02 00 32    	bra       Z, 0x34aa <.L152>
    34a6:	df b0 97    	mov.w     [w15-22], w1
    34a8:	e1 b7 9f    	mov.w     w1, [w15-20]

000034aa <.L152>:
    34aa:	00 81 fb    	ze        w0, w2
    34ac:	62 c0 7b    	mov.b     [w2+w7], w0
    34ae:	e2 4f 50    	sub.b     w0, #0x2, [w15]
    34b0:	32 00 32    	bra       Z, 0x3516 <.L156>
    34b2:	e4 4f 50    	sub.b     w0, #0x4, [w15]
    34b4:	53 00 32    	bra       Z, 0x355c <.L157>
    34b6:	e1 4f 50    	sub.b     w0, #0x1, [w15]
    34b8:	64 00 32    	bra       Z, 0x3582 <.L179>

000034ba <.bb>:
    34ba:	50 00 20    	mov.w     #0x5, w0
    34bc:	8b 1f 07    	rcall     0x73d4 <_EE_fp_ReleaseResource>

000034be <.eb>:
    34be:	4f 04 78    	mov.w     [--w15], w8
    34c0:	00 80 fa    	ulnk      
    34c2:	00 00 06    	return    

000034c4 <.L178>:
    34c4:	06 04 e0    	cp0.b     w6
    34c6:	7a 00 32    	bra       Z, 0x35bc <.L180>
    34c8:	03 80 fb    	ze        w3, w0
    34ca:	07 00 40    	add.w     w0, w7, w0
    34cc:	6a 81 57    	sub.w     w15, #0xa, w2
    34ce:	80 00 eb    	clr.w     w1

000034d0 <.L150>:
    34d0:	60 f1 78    	mov.b     [w0+w1], [w2+w1]
    34d2:	81 00 e8    	inc.w     w1, w1
    34d4:	e8 8f 50    	sub.w     w1, #0x8, [w15]
    34d6:	fc ff 3a    	bra       NZ, 0x34d0 <.L150>

000034d8 <.eb>:
    34d8:	e8 c1 41    	add.b     w3, #0x8, w3
    34da:	e2 ff 37    	bra       0x34a0 <.L144>

000034dc <.L176>:
    34dc:	f6 80 57    	sub.w     w15, #0x16, w1
    34de:	08 00 78    	mov.w     w8, w0
    34e0:	a7 9a 20    	mov.w     #0x9aa, w7

000034e2 <.L125>:
    34e2:	e7 70 78    	mov.b     [w7+w0], [w1+w0]
    34e4:	00 00 e8    	inc.w     w0, w0
    34e6:	e2 0f 50    	sub.w     w0, #0x2, [w15]
    34e8:	fc ff 3a    	bra       NZ, 0x34e2 <.L125>

000034ea <.eb>:
    34ea:	72 81 57    	sub.w     w15, #0x12, w2
    34ec:	00 00 eb    	clr.w     w0
    34ee:	c1 9a 20    	mov.w     #0x9ac, w1

000034f0 <.L127>:
    34f0:	61 71 78    	mov.b     [w1+w0], [w2+w0]
    34f2:	00 00 e8    	inc.w     w0, w0
    34f4:	e2 0f 50    	sub.w     w0, #0x2, [w15]
    34f6:	fc ff 3a    	bra       NZ, 0x34f0 <.L127>
    34f8:	43 c0 b3    	mov.b     #0x4, w3

000034fa <.eb>:
    34fa:	e2 0f 52    	sub.w     w4, #0x2, [w15]
    34fc:	cf ff 3a    	bra       NZ, 0x349c <.L136>

000034fe <.L177>:
    34fe:	06 04 e0    	cp0.b     w6
    3500:	4f 00 32    	bra       Z, 0x35a0 <.L181>
    3502:	03 80 fb    	ze        w3, w0
    3504:	07 00 40    	add.w     w0, w7, w0
    3506:	6a 81 57    	sub.w     w15, #0xa, w2
    3508:	80 00 eb    	clr.w     w1

0000350a <.L142>:
    350a:	60 f1 78    	mov.b     [w0+w1], [w2+w1]
    350c:	81 00 e8    	inc.w     w1, w1
    350e:	e2 8f 50    	sub.w     w1, #0x2, [w15]
    3510:	fc ff 3a    	bra       NZ, 0x350a <.L142>

00003512 <.eb>:
    3512:	83 c1 e8    	inc2.b    w3, w3
    3514:	c5 ff 37    	bra       0x34a0 <.L144>

00003516 <.L156>:
    3516:	00 68 ef    	clr.b     0x800
    3518:	b0 9a 20    	mov.w     #0x9ab, w0
    351a:	62 40 78    	mov.b     [w2+w0], w0
    351c:	00 80 fb    	ze        w0, w0
    351e:	b0 45 88    	mov.w     w0, 0x8b6
    3520:	d1 9a 20    	mov.w     #0x9ad, w1
    3522:	e2 c0 78    	mov.b     [w2+w1], w1
    3524:	81 80 fb    	ze        w1, w1
    3526:	80 42 eb    	clr.b     w5
    3528:	00 02 eb    	clr.w     w4
    352a:	84 41 78    	mov.b     w4, w3
    352c:	05 41 78    	mov.b     w5, w2
    352e:	90 12 07    	rcall     0x5a50 <_uwl_MLME_ASSOCIATE_confirm>

00003530 <.bb>:
    3530:	50 00 20    	mov.w     #0x5, w0
    3532:	50 1f 07    	rcall     0x73d4 <_EE_fp_ReleaseResource>

00003534 <.eb>:
    3534:	4f 04 78    	mov.w     [--w15], w8
    3536:	00 80 fa    	ulnk      
    3538:	00 00 06    	return    
    353a:	c4 ff 37    	bra       0x34c4 <.L178>

0000353c <.L130>:
    353c:	f6 80 57    	sub.w     w15, #0x16, w1
    353e:	08 00 78    	mov.w     w8, w0
    3540:	a7 9a 20    	mov.w     #0x9aa, w7

00003542 <.L132>:
    3542:	e7 70 78    	mov.b     [w7+w0], [w1+w0]
    3544:	00 00 e8    	inc.w     w0, w0
    3546:	e2 0f 50    	sub.w     w0, #0x2, [w15]
    3548:	fc ff 3a    	bra       NZ, 0x3542 <.L132>

0000354a <.eb>:
    354a:	72 81 57    	sub.w     w15, #0x12, w2
    354c:	00 00 eb    	clr.w     w0
    354e:	c1 9a 20    	mov.w     #0x9ac, w1

00003550 <.L134>:
    3550:	61 71 78    	mov.b     [w1+w0], [w2+w0]
    3552:	00 00 e8    	inc.w     w0, w0
    3554:	e8 0f 50    	sub.w     w0, #0x8, [w15]
    3556:	fc ff 3a    	bra       NZ, 0x3550 <.L134>
    3558:	a3 c0 b3    	mov.b     #0xa, w3
    355a:	9e ff 37    	bra       0x3498 <.L129>

0000355c <.L157>:
    355c:	5f b1 97    	mov.w     [w15-22], w2
    355e:	d2 70 88    	mov.w     w2, 0xe1a
    3560:	3f b8 97    	mov.w     [w15-10], w0
    3562:	cf b8 97    	mov.w     [w15-8], w1
    3564:	e0 70 88    	mov.w     w0, 0xe1c
    3566:	f1 70 88    	mov.w     w1, 0xe1e
    3568:	5f b9 97    	mov.w     [w15-6], w2
    356a:	ef b9 97    	mov.w     [w15-4], w3
    356c:	02 71 88    	mov.w     w2, 0xe20
    356e:	13 71 88    	mov.w     w3, 0xe22
    3570:	18 0e a8    	bset.b    0xe18, #0x0
    3572:	70 03 2a    	mov.w     #0xa037, w0
    3574:	8b 0e 07    	rcall     0x528c <_uwl_debug_print>

00003576 <.bb>:
    3576:	50 00 20    	mov.w     #0x5, w0
    3578:	2d 1f 07    	rcall     0x73d4 <_EE_fp_ReleaseResource>

0000357a <.eb>:
    357a:	4f 04 78    	mov.w     [--w15], w8
    357c:	00 80 fa    	ulnk      
    357e:	00 00 06    	return    
    3580:	a1 ff 37    	bra       0x34c4 <.L178>

00003582 <.L179>:
    3582:	b0 9a 20    	mov.w     #0x9ab, w0
    3584:	e2 40 78    	mov.b     [w2+w0], w1
    3586:	80 42 eb    	clr.b     w5
    3588:	00 02 eb    	clr.w     w4
    358a:	93 9a 20    	mov.w     #0x9a9, w3
    358c:	93 41 78    	mov.b     [w3], w3
    358e:	04 41 78    	mov.b     w4, w2
    3590:	6a 80 57    	sub.w     w15, #0xa, w0
    3592:	64 12 07    	rcall     0x5a5c <_uwl_MLME_ASSOCIATE_indication>

00003594 <.bb>:
    3594:	50 00 20    	mov.w     #0x5, w0
    3596:	1e 1f 07    	rcall     0x73d4 <_EE_fp_ReleaseResource>

00003598 <.eb>:
    3598:	4f 04 78    	mov.w     [--w15], w8
    359a:	00 80 fa    	ulnk      
    359c:	00 00 06    	return    
    359e:	92 ff 37    	bra       0x34c4 <.L178>

000035a0 <.L181>:
    35a0:	03 80 fb    	ze        w3, w0
    35a2:	07 00 40    	add.w     w0, w7, w0
    35a4:	74 81 57    	sub.w     w15, #0x14, w2
    35a6:	80 00 eb    	clr.w     w1

000035a8 <.L140>:
    35a8:	60 f1 78    	mov.b     [w0+w1], [w2+w1]
    35aa:	81 00 e8    	inc.w     w1, w1
    35ac:	e2 8f 50    	sub.w     w1, #0x2, [w15]
    35ae:	fc ff 3a    	bra       NZ, 0x35a8 <.L140>

000035b0 <.eb>:
    35b0:	83 c1 e8    	inc2.b    w3, w3
    35b2:	03 80 fb    	ze        w3, w0
    35b4:	07 00 40    	add.w     w0, w7, w0
    35b6:	6a 81 57    	sub.w     w15, #0xa, w2
    35b8:	80 00 eb    	clr.w     w1
    35ba:	a7 ff 37    	bra       0x350a <.L142>

000035bc <.L180>:
    35bc:	03 80 fb    	ze        w3, w0
    35be:	07 00 40    	add.w     w0, w7, w0
    35c0:	74 81 57    	sub.w     w15, #0x14, w2
    35c2:	80 00 eb    	clr.w     w1

000035c4 <.L148>:
    35c4:	60 f1 78    	mov.b     [w0+w1], [w2+w1]
    35c6:	81 00 e8    	inc.w     w1, w1
    35c8:	e2 8f 50    	sub.w     w1, #0x2, [w15]
    35ca:	fc ff 3a    	bra       NZ, 0x35c4 <.L148>

000035cc <.eb>:
    35cc:	83 c1 e8    	inc2.b    w3, w3
    35ce:	03 80 fb    	ze        w3, w0
    35d0:	07 00 40    	add.w     w0, w7, w0
    35d2:	6a 81 57    	sub.w     w15, #0xa, w2
    35d4:	80 00 eb    	clr.w     w1
    35d6:	7c ff 37    	bra       0x34d0 <.L150>

000035d8 <_uwl_mac_set_beacon_payload>:
    35d8:	88 9f be    	mov.d     w8, [w15++]
    35da:	80 04 78    	mov.w     w0, w9
    35dc:	01 44 78    	mov.b     w1, w8
    35de:	b1 ff 2f    	mov.w     #0xfffb, w1
    35e0:	40 c3 b3    	mov.b     #0x34, w0
    35e2:	80 4f 54    	sub.b     w8, w0, [w15]
    35e4:	03 00 36    	bra       LEU, 0x35ec <.L192>
    35e6:	01 00 78    	mov.w     w1, w0
    35e8:	4f 04 be    	mov.d     [--w15], w8
    35ea:	00 00 06    	return    

000035ec <.L192>:
    35ec:	30 00 20    	mov.w     #0x3, w0
    35ee:	17 1f 07    	rcall     0x741e <_EE_fp_GetResource>

000035f0 <.eb>:
    35f0:	08 04 e0    	cp0.b     w8
    35f2:	09 00 3a    	bra       NZ, 0x3606 <.L193>
    35f4:	08 00 78    	mov.w     w8, w0
    35f6:	02 e8 b7    	mov.b     WREG, 0x802

000035f8 <.bb>:
    35f8:	30 00 20    	mov.w     #0x3, w0
    35fa:	ec 1e 07    	rcall     0x73d4 <_EE_fp_ReleaseResource>
    35fc:	11 00 20    	mov.w     #0x1, w1

000035fe <.L194>:
    35fe:	01 00 78    	mov.w     w1, w0
    3600:	4f 04 be    	mov.d     [--w15], w8
    3602:	00 00 06    	return    
    3604:	f3 ff 37    	bra       0x35ec <.L192>

00003606 <.L193>:
    3606:	08 81 fb    	ze        w8, w2
    3608:	89 00 78    	mov.w     w9, w1
    360a:	80 df 22    	mov.w     #0x2df8, w0
    360c:	38 ec 07    	rcall     0xe7e <_memcpy>
    360e:	08 00 78    	mov.w     w8, w0
    3610:	02 e8 b7    	mov.b     WREG, 0x802

00003612 <.bb>:
    3612:	30 00 20    	mov.w     #0x3, w0
    3614:	df 1e 07    	rcall     0x73d4 <_EE_fp_ReleaseResource>
    3616:	11 00 20    	mov.w     #0x1, w1
    3618:	f2 ff 37    	bra       0x35fe <.L194>

0000361a <_uwl_mac_data_request_cmd>:
    361a:	0a 00 fa    	lnk       #0xa
    361c:	88 9f be    	mov.d     w8, [w15++]

0000361e <.bb>:
    361e:	70 00 20    	mov.w     #0x7, w0
    3620:	fe 1e 07    	rcall     0x741e <_EE_fp_GetResource>

00003622 <.eb>:
    3622:	10 f0 2f    	mov.w     #0xff01, w0
    3624:	50 7a 88    	mov.w     w0, 0xf4a

00003626 <.bb>:
    3626:	81 70 80    	mov.w     0xe10, w1
    3628:	92 70 80    	mov.w     0xe12, w2
    362a:	82 8f 50    	sub.w     w1, w2, [w15]
    362c:	41 00 32    	bra       Z, 0x36b0 <.L218>
    362e:	70 70 80    	mov.w     0xe0e, w0
    3630:	00 80 40    	add.w     w1, w0, w0
    3632:	81 1f 78    	mov.w     w1, [w15++]
    3634:	11 00 09    	repeat    #0x11
    3636:	02 80 d8    	div.uw    w0, w2
    3638:	01 01 78    	mov.w     w1, w2
    363a:	cf 00 78    	mov.w     [--w15], w1
    363c:	a0 70 80    	mov.w     0xe14, w0
    363e:	00 91 b9    	mul.ss    w2, w0, w2
    3640:	b0 70 80    	mov.w     0xe16, w0
    3642:	00 01 41    	add.w     w2, w0, w2
    3644:	01 00 e8    	inc.w     w1, w0
    3646:	80 70 88    	mov.w     w0, 0xe10
    3648:	82 04 78    	mov.w     w2, w9

0000364a <.eb>:
    364a:	02 00 e0    	cp0.w     w2
    364c:	31 00 32    	bra       Z, 0x36b0 <.L218>
    364e:	20 00 20    	mov.w     #0x2, w0
    3650:	01 00 20    	mov.w     #0x0, w1
    3652:	a0 bf 9f    	mov.w     w0, [w15-12]
    3654:	b1 bf 9f    	mov.w     w1, [w15-10]
    3656:	c0 bf 9f    	mov.w     w0, [w15-8]
    3658:	d1 bf 9f    	mov.w     w1, [w15-6]
    365a:	88 45 80    	mov.w     0x8b0, w8

0000365c <.bb>:
    365c:	f2 07 20    	mov.w     #0x7f, w2
    365e:	80 00 eb    	clr.w     w1
    3660:	09 00 78    	mov.w     w9, w0
    3662:	06 ec 07    	rcall     0xe70 <_memset>

00003664 <.bb>:
    3664:	30 c6 b3    	mov.b     #0x63, w0
    3666:	80 4c 78    	mov.b     w0, [w9]
    3668:	80 cc b3    	mov.b     #0xc8, w0
    366a:	90 44 98    	mov.b     w0, [w9+1]

0000366c <.eb>:
    366c:	a4 c8 bf    	mov.b     0x8a4, WREG
    366e:	20 e9 b7    	mov.b     WREG, 0x920
    3670:	a0 44 98    	mov.b     w0, [w9+2]
    3672:	00 40 e8    	inc.b     w0, w0
    3674:	a4 e8 b7    	mov.b     WREG, 0x8a4
    3676:	e3 80 44    	add.w     w9, #0x3, w1
    3678:	98 bf 9f    	mov.w     w8, [w15-14]

0000367a <.bb>:
    367a:	6e 81 57    	sub.w     w15, #0xe, w2
    367c:	00 00 eb    	clr.w     w0

0000367e <.L204>:
    367e:	e2 70 78    	mov.b     [w2+w0], [w1+w0]
    3680:	00 00 e8    	inc.w     w0, w0
    3682:	e2 0f 50    	sub.w     w0, #0x2, [w15]
    3684:	fc ff 3a    	bra       NZ, 0x367e <.L204>

00003686 <.eb>:
    3686:	22 8a 20    	mov.w     #0x8a2, w2
    3688:	e5 80 44    	add.w     w9, #0x5, w1
    368a:	00 00 eb    	clr.w     w0

0000368c <.L206>:
    368c:	e2 70 78    	mov.b     [w2+w0], [w1+w0]
    368e:	00 00 e8    	inc.w     w0, w0
    3690:	e2 0f 50    	sub.w     w0, #0x2, [w15]
    3692:	fc ff 3a    	bra       NZ, 0x368c <.L206>

00003694 <.eb>:
    3694:	6c 81 57    	sub.w     w15, #0xc, w2
    3696:	e7 80 44    	add.w     w9, #0x7, w1
    3698:	00 00 eb    	clr.w     w0

0000369a <.L208>:
    369a:	e2 70 78    	mov.b     [w2+w0], [w1+w0]
    369c:	00 00 e8    	inc.w     w0, w0
    369e:	e8 0f 50    	sub.w     w0, #0x8, [w15]
    36a0:	fc ff 3a    	bra       NZ, 0x369a <.L208>

000036a2 <.eb>:
    36a2:	40 c0 b3    	mov.b     #0x4, w0
    36a4:	f0 4c 98    	mov.b     w0, [w9+15]

000036a6 <.eb>:
    36a6:	79 38 90    	mov.w     [w9+126], w0
    36a8:	f0 1f b2    	and.w     #0x1ff, w0
    36aa:	00 d0 a0    	bset.w    w0, #0xd
    36ac:	f0 3c 98    	mov.w     w0, [w9+126]
    36ae:	01 68 ef    	clr.b     0x801

000036b0 <.L218>:
    36b0:	70 00 20    	mov.w     #0x7, w0
    36b2:	90 1e 07    	rcall     0x73d4 <_EE_fp_ReleaseResource>

000036b4 <.eb>:
    36b4:	4f 04 be    	mov.d     [--w15], w8
    36b6:	00 80 fa    	ulnk      
    36b8:	00 00 06    	return    

000036ba <_uwl_mac_parse_received_mpdu>:
    36ba:	88 9f be    	mov.d     w8, [w15++]
    36bc:	80 04 78    	mov.w     w0, w9
    36be:	01 44 78    	mov.b     w1, w8
    36c0:	b2 08 ab    	btst.b    0x8b2, #0x0
    36c2:	0c 00 3a    	bra       NZ, 0x36dc <.L235>
    36c4:	10 80 fb    	ze        [w0], w0
    36c6:	00 58 a3    	btst.z    w0, #0x5
    36c8:	0b 00 3a    	bra       NZ, 0x36e0 <.L237>
    36ca:	67 00 60    	and.w     w0, #0x7, w0
    36cc:	e1 0f 50    	sub.w     w0, #0x1, [w15]
    36ce:	0e 00 32    	bra       Z, 0x36ec <.L227>

000036d0 <.L240>:
    36d0:	e1 0f 50    	sub.w     w0, #0x1, [w15]
    36d2:	3c 00 34    	bra       LE, 0x374c <.L238>
    36d4:	e2 0f 50    	sub.w     w0, #0x2, [w15]
    36d6:	28 00 32    	bra       Z, 0x3728 <.L228>
    36d8:	e3 0f 50    	sub.w     w0, #0x3, [w15]
    36da:	17 00 32    	bra       Z, 0x370a <.L239>

000036dc <.L235>:
    36dc:	4f 04 be    	mov.d     [--w15], w8
    36de:	00 00 06    	return    

000036e0 <.L237>:
    36e0:	09 80 e8    	inc2.w    w9, w0
    36e2:	b4 fe 07    	rcall     0x344c <_uwl_mac_ack_frame>
    36e4:	19 80 fb    	ze        [w9], w0
    36e6:	67 00 60    	and.w     w0, #0x7, w0
    36e8:	e1 0f 50    	sub.w     w0, #0x1, [w15]
    36ea:	f2 ff 3a    	bra       NZ, 0x36d0 <.L240>

000036ec <.L227>:
    36ec:	60 00 20    	mov.w     #0x6, w0
    36ee:	97 1e 07    	rcall     0x741e <_EE_fp_GetResource>

000036f0 <.eb>:
    36f0:	08 84 fb    	ze        w8, w8
    36f2:	08 01 78    	mov.w     w8, w2
    36f4:	89 00 78    	mov.w     w9, w1
    36f6:	60 a2 20    	mov.w     #0xa26, w0
    36f8:	c2 eb 07    	rcall     0xe7e <_memcpy>
    36fa:	28 49 88    	mov.w     w8, 0x924
    36fc:	50 00 20    	mov.w     #0x5, w0
    36fe:	d9 1e 07    	rcall     0x74b2 <_EE_fp_ActivateTask>

00003700 <.bb>:
    3700:	60 00 20    	mov.w     #0x6, w0
    3702:	68 1e 07    	rcall     0x73d4 <_EE_fp_ReleaseResource>

00003704 <.eb>:
    3704:	4f 04 be    	mov.d     [--w15], w8
    3706:	00 00 06    	return    
    3708:	eb ff 37    	bra       0x36e0 <.L237>

0000370a <.L239>:
    370a:	50 00 20    	mov.w     #0x5, w0
    370c:	88 1e 07    	rcall     0x741e <_EE_fp_GetResource>

0000370e <.eb>:
    370e:	08 84 fb    	ze        w8, w8
    3710:	08 01 78    	mov.w     w8, w2
    3712:	89 00 78    	mov.w     w9, w1
    3714:	70 9a 20    	mov.w     #0x9a7, w0
    3716:	b3 eb 07    	rcall     0xe7e <_memcpy>
    3718:	18 49 88    	mov.w     w8, 0x922
    371a:	60 00 20    	mov.w     #0x6, w0
    371c:	ca 1e 07    	rcall     0x74b2 <_EE_fp_ActivateTask>

0000371e <.bb>:
    371e:	50 00 20    	mov.w     #0x5, w0
    3720:	59 1e 07    	rcall     0x73d4 <_EE_fp_ReleaseResource>

00003722 <.eb>:
    3722:	4f 04 be    	mov.d     [--w15], w8
    3724:	00 00 06    	return    
    3726:	dc ff 37    	bra       0x36e0 <.L237>

00003728 <.L228>:
    3728:	08 81 fb    	ze        w8, w2
    372a:	89 00 78    	mov.w     w9, w1
    372c:	80 92 20    	mov.w     #0x928, w0
    372e:	a7 eb 07    	rcall     0xe7e <_memcpy>

00003730 <.bb>:
    3730:	10 80 20    	mov.w     #0x801, w0
    3732:	11 c0 b3    	mov.b     #0x1, w1
    3734:	90 cf 10    	subr.b    w1, [w0], [w15]
    3736:	d2 ff 3a    	bra       NZ, 0x36dc <.L235>
    3738:	20 c9 bf    	mov.b     0x920, WREG
    373a:	2a 49 e3    	cp.b      0x92a
    373c:	cf ff 3a    	bra       NZ, 0x36dc <.L235>
    373e:	00 80 20    	mov.w     #0x800, w0
    3740:	90 cf 10    	subr.b    w1, [w0], [w15]
    3742:	cc ff 3a    	bra       NZ, 0x36dc <.L235>
    3744:	6a ff 07    	rcall     0x361a <_uwl_mac_data_request_cmd>

00003746 <.eb>:
    3746:	4f 04 be    	mov.d     [--w15], w8
    3748:	00 00 06    	return    
    374a:	ca ff 37    	bra       0x36e0 <.L237>

0000374c <.L238>:
    374c:	00 00 e0    	cp0.w     w0
    374e:	c6 ff 3a    	bra       NZ, 0x36dc <.L235>
    3750:	40 71 80    	mov.w     0xe28, w0
    3752:	66 00 60    	and.w     w0, #0x6, w0
    3754:	c3 ff 3a    	bra       NZ, 0x36dc <.L235>

00003756 <.bb>:
    3756:	40 00 20    	mov.w     #0x4, w0
    3758:	62 1e 07    	rcall     0x741e <_EE_fp_GetResource>

0000375a <.eb>:
    375a:	08 84 fb    	ze        w8, w8
    375c:	08 01 78    	mov.w     w8, w2
    375e:	89 00 78    	mov.w     w9, w1
    3760:	50 aa 20    	mov.w     #0xaa5, w0
    3762:	8d eb 07    	rcall     0xe7e <_memcpy>
    3764:	38 49 88    	mov.w     w8, 0x926
    3766:	40 00 20    	mov.w     #0x4, w0
    3768:	a4 1e 07    	rcall     0x74b2 <_EE_fp_ActivateTask>

0000376a <.bb>:
    376a:	40 00 20    	mov.w     #0x4, w0
    376c:	33 1e 07    	rcall     0x73d4 <_EE_fp_ReleaseResource>

0000376e <.eb>:
    376e:	4f 04 be    	mov.d     [--w15], w8
    3770:	00 00 06    	return    
    3772:	b6 ff 37    	bra       0x36e0 <.L237>

00003774 <_uwl_gts_queue_flush>:
    3774:	40 71 80    	mov.w     0xe28, w0
    3776:	66 00 60    	and.w     w0, #0x6, w0
    3778:	15 00 3a    	bra       NZ, 0x37a4 <.L253>

0000377a <.bb>:
    377a:	3a 0e e2    	cp0.w     0xe3a
    377c:	13 00 32    	bra       Z, 0x37a4 <.L253>

0000377e <.L256>:
    377e:	c0 71 80    	mov.w     0xe38, w0
    3780:	f2 71 80    	mov.w     0xe3e, w2
    3782:	02 81 b9    	mul.ss    w0, w2, w2
    3784:	01 72 80    	mov.w     0xe40, w1
    3786:	01 01 41    	add.w     w2, w1, w2
    3788:	00 00 e8    	inc.w     w0, w0
    378a:	e4 71 80    	mov.w     0xe3c, w4
    378c:	11 00 09    	repeat    #0x11
    378e:	04 80 d8    	div.uw    w0, w4
    3790:	c1 71 88    	mov.w     w1, 0xe38
    3792:	3a 2e ed    	dec.w     0xe3a

00003794 <.eb>:
    3794:	02 00 e0    	cp0.w     w2
    3796:	06 00 32    	bra       Z, 0x37a4 <.L253>
    3798:	02 40 91    	mov.b     [w2+128], w0
    379a:	60 11 b8    	mul.uu    w2, #0x0, w2
    379c:	61 0e 20    	mov.w     #0xe6, w1
    379e:	1d 11 07    	rcall     0x59da <_uwl_MCPS_DATA_confirm>

000037a0 <.bb>:
    37a0:	3a 0e e2    	cp0.w     0xe3a
    37a2:	ed ff 3a    	bra       NZ, 0x377e <.L256>

000037a4 <.L253>:
    37a4:	00 00 06    	return    

000037a6 <_uwl_mac_init>:
    37a6:	88 9f be    	mov.d     w8, [w15++]
    37a8:	28 0e a9    	bclr.b    0xe28, #0x0
    37aa:	28 2e a9    	bclr.b    0xe28, #0x1
    37ac:	28 4e a9    	bclr.b    0xe28, #0x2
    37ae:	28 6e a9    	bclr.b    0xe28, #0x3
    37b0:	28 8e a9    	bclr.b    0xe28, #0x4
    37b2:	29 8e a9    	bclr.b    0xe29, #0x4
    37b4:	28 ce a9    	bclr.b    0xe28, #0x6
    37b6:	28 ee a9    	bclr.b    0xe28, #0x7
    37b8:	3c 13 07    	rcall     0x5e32 <_uwl_phy_init>
    37ba:	00 04 e0    	cp0.b     w0
    37bc:	69 00 35    	bra       LT, 0x3890 <.L270>

000037be <.bb>:
    37be:	60 c3 b3    	mov.b     #0x36, w0
    37c0:	8c e8 b7    	mov.b     WREG, 0x88c
    37c2:	8d 08 a9    	bclr.b    0x88d, #0x0
    37c4:	8d 48 a8    	bset.b    0x88d, #0x2
    37c6:	8d 68 a9    	bclr.b    0x88d, #0x3
    37c8:	60 c0 b3    	mov.b     #0x6, w0
    37ca:	8e e8 b7    	mov.b     WREG, 0x88e
    37cc:	9a 28 ef    	clr.w     0x89a
    37ce:	9c 28 ef    	clr.w     0x89c
    37d0:	9e 28 ef    	clr.w     0x89e
    37d2:	a0 28 ef    	clr.w     0x8a0
    37d4:	a2 a8 ef    	setm.w    0x8a2

000037d6 <.bb>:
    37d6:	7e eb 07    	rcall     0xed4 <_rand>

000037d8 <.eb>:
    37d8:	f9 0f 20    	mov.w     #0xff, w9
    37da:	11 00 09    	repeat    #0x11
    37dc:	09 00 d8    	div.sw    w0, w9
    37de:	01 00 78    	mov.w     w1, w0
    37e0:	a4 e8 b7    	mov.b     WREG, 0x8a4
    37e2:	50 c0 b3    	mov.b     #0x5, w0
    37e4:	a6 e8 b7    	mov.b     WREG, 0x8a6
    37e6:	40 c0 b3    	mov.b     #0x4, w0
    37e8:	a7 e8 b7    	mov.b     WREG, 0x8a7
    37ea:	a8 28 ef    	clr.w     0x8a8
    37ec:	aa 28 ef    	clr.w     0x8aa
    37ee:	30 c0 b3    	mov.b     #0x3, w0
    37f0:	ac e8 b7    	mov.b     WREG, 0x8ac
    37f2:	ad e8 b7    	mov.b     WREG, 0x8ad
    37f4:	80 c2 b3    	mov.b     #0x28, w0
    37f6:	ae e8 b7    	mov.b     WREG, 0x8ae
    37f8:	c0 c0 b3    	mov.b     #0xc, w0
    37fa:	af e8 b7    	mov.b     WREG, 0x8af
    37fc:	b0 a8 ef    	setm.w    0x8b0
    37fe:	74 40 40    	add.b     w0, #0x14, w0
    3800:	b3 e8 b7    	mov.b     WREG, 0x8b3
    3802:	b4 08 a9    	bclr.b    0x8b4, #0x0
    3804:	b4 28 a9    	bclr.b    0x8b4, #0x1
    3806:	b6 a8 ef    	setm.w    0x8b6
    3808:	ba 28 ef    	clr.w     0x8ba
    380a:	bc 08 a9    	bclr.b    0x8bc, #0x0
    380c:	40 1f 20    	mov.w     #0x1f4, w0
    380e:	f0 45 88    	mov.w     w0, 0x8be
    3810:	c0 28 ef    	clr.w     0x8c0
    3812:	10 c0 b3    	mov.b     #0x1, w0
    3814:	a5 e8 b7    	mov.b     WREG, 0x8a5
    3816:	8d 28 a9    	bclr.b    0x88d, #0x1
    3818:	90 28 ef    	clr.w     0x890
    381a:	92 68 ef    	clr.b     0x892
    381c:	f8 c0 b3    	mov.b     #0xf, w8
    381e:	00 04 fd    	exch      w0, w8
    3820:	93 e8 b7    	mov.b     WREG, 0x893
    3822:	00 04 fd    	exch      w0, w8
    3824:	94 28 ef    	clr.w     0x894
    3826:	96 28 ef    	clr.w     0x896

00003828 <.bb>:
    3828:	55 eb 07    	rcall     0xed4 <_rand>

0000382a <.eb>:
    382a:	11 00 09    	repeat    #0x11
    382c:	09 00 d8    	div.sw    w0, w9
    382e:	01 00 78    	mov.w     w1, w0
    3830:	98 e8 b7    	mov.b     WREG, 0x898
    3832:	b2 08 a9    	bclr.b    0x8b2, #0x0
    3834:	08 00 78    	mov.w     w8, w0
    3836:	b8 e8 b7    	mov.b     WREG, 0x8b8

00003838 <.bb>:
    3838:	0e 2e ef    	clr.w     0xe0e
    383a:	10 2e ef    	clr.w     0xe10

0000383c <.bb>:
    383c:	38 2e ef    	clr.w     0xe38
    383e:	3a 2e ef    	clr.w     0xe3a

00003840 <.bb>:
    3840:	2c 2e ef    	clr.w     0xe2c
    3842:	e8 ff 2f    	mov.w     #0xfffe, w8
    3844:	58 71 88    	mov.w     w8, 0xe2a
    3846:	88 71 88    	mov.w     w8, 0xe30
    3848:	72 71 80    	mov.w     0xe2e, w2
    384a:	02 01 41    	add.w     w2, w2, w2
    384c:	b0 71 80    	mov.w     0xe36, w0
    384e:	80 80 eb    	setm.w    w1
    3850:	0f eb 07    	rcall     0xe70 <_memset>

00003852 <.bb>:
    3852:	02 2e ef    	clr.w     0xe02
    3854:	08 70 88    	mov.w     w8, 0xe00
    3856:	38 70 88    	mov.w     w8, 0xe06
    3858:	22 70 80    	mov.w     0xe04, w2
    385a:	02 01 41    	add.w     w2, w2, w2
    385c:	60 70 80    	mov.w     0xe0c, w0
    385e:	80 80 eb    	setm.w    w1
    3860:	07 eb 07    	rcall     0xe70 <_memset>

00003862 <.eb>:
    3862:	12 29 ef    	clr.w     0x912
    3864:	14 29 ef    	clr.w     0x914
    3866:	16 29 ef    	clr.w     0x916
    3868:	18 29 ef    	clr.w     0x918
    386a:	1a 29 ef    	clr.w     0x91a
    386c:	1c 29 ef    	clr.w     0x91c
    386e:	1e 29 ef    	clr.w     0x91e

00003870 <.bb>:
    3870:	80 89 23    	mov.w     #0x3898, w0
    3872:	40 40 88    	mov.w     w0, 0x808

00003874 <.bb>:
    3874:	a0 97 23    	mov.w     #0x397a, w0
    3876:	30 40 88    	mov.w     w0, 0x806

00003878 <.bb>:
    3878:	80 46 23    	mov.w     #0x3468, w0
    387a:	20 40 88    	mov.w     w0, 0x804

0000387c <.eb>:
    387c:	1b f5 07    	rcall     0x22b4 <_uwl_mac_superframe_init>
    387e:	00 04 e0    	cp0.b     w0
    3880:	07 00 35    	bra       LT, 0x3890 <.L270>
    3882:	a8 14 07    	rcall     0x61d4 <_uwl_mac_gts_init>
    3884:	00 04 e0    	cp0.b     w0
    3886:	04 00 35    	bra       LT, 0x3890 <.L270>
    3888:	28 0e a8    	bset.b    0xe28, #0x0
    388a:	10 00 20    	mov.w     #0x1, w0
    388c:	4f 04 be    	mov.d     [--w15], w8
    388e:	00 00 06    	return    

00003890 <.L270>:
    3890:	00 00 fb    	se        w0, w0
    3892:	4f 04 be    	mov.d     [--w15], w8
    3894:	00 00 06    	return    
    3896:	fc ff 37    	bra       0x3890 <.L270>

00003898 <_process_rx_beacon>:
    3898:	0a 00 fa    	lnk       #0xa
    389a:	88 1f 78    	mov.w     w8, [w15++]
    389c:	00 00 eb    	clr.w     w0
    389e:	a0 bf 9f    	mov.w     w0, [w15-12]

000038a0 <.bb>:
    38a0:	40 00 20    	mov.w     #0x4, w0
    38a2:	bd 1d 07    	rcall     0x741e <_EE_fp_GetResource>

000038a4 <.eb>:
    38a4:	a6 ca bf    	mov.b     0xaa6, WREG
    38a6:	00 80 fb    	ze        w0, w0
    38a8:	46 00 de    	lsr.w     w0, #0x6, w0

000038aa <.bb>:
    38aa:	e2 0f 50    	sub.w     w0, #0x2, [w15]
    38ac:	4e 00 32    	bra       Z, 0x394a <.L303>
    38ae:	80 00 eb    	clr.w     w1
    38b0:	e3 0f 50    	sub.w     w0, #0x3, [w15]
    38b2:	3b 00 32    	bra       Z, 0x392a <.L304>

000038b4 <.L281>:
    38b4:	01 44 78    	mov.b     w1, w8
    38b6:	af b9 97    	mov.w     [w15-12], w3
    38b8:	00 01 eb    	clr.w     w2
    38ba:	80 00 eb    	clr.w     w1
    38bc:	50 aa 20    	mov.w     #0xaa5, w0
    38be:	fa fc 07    	rcall     0x32b4 <_filtering_condition>
    38c0:	00 04 e0    	cp0.b     w0
    38c2:	05 00 3a    	bra       NZ, 0x38ce <.L288>

000038c4 <.bb>:
    38c4:	40 00 20    	mov.w     #0x4, w0
    38c6:	86 1d 07    	rcall     0x73d4 <_EE_fp_ReleaseResource>

000038c8 <.eb>:
    38c8:	4f 04 78    	mov.w     [--w15], w8
    38ca:	00 80 fa    	ulnk      
    38cc:	00 00 06    	return    

000038ce <.L288>:
    38ce:	08 84 fb    	ze        w8, w8
    38d0:	80 aa 20    	mov.w     #0xaa8, w0
    38d2:	00 04 44    	add.w     w8, w0, w8
    38d4:	98 40 78    	mov.b     [w8], w1
    38d6:	6f c0 60    	and.b     w1, #0xf, w0
    38d8:	93 e8 b7    	mov.b     WREG, 0x893
    38da:	88 01 78    	mov.w     w8, w3
    38dc:	33 80 fb    	ze        [w3++], w0
    38de:	44 00 de    	lsr.w     w0, #0x4, w0
    38e0:	b8 e8 b7    	mov.b     WREG, 0x8b8

000038e2 <.bb>:
    38e2:	93 40 78    	mov.b     [w3], w1
    38e4:	6f c0 60    	and.b     w1, #0xf, w0
    38e6:	00 40 e8    	inc.b     w0, w0
    38e8:	7f 00 60    	and.w     w0, #0x1f, w0
    38ea:	43 00 dd    	sl.w      w0, #0x3, w0
    38ec:	21 71 80    	mov.w     0xe24, w1
    38ee:	72 f0 2f    	mov.w     #0xff07, w2
    38f0:	82 80 60    	and.w     w1, w2, w1
    38f2:	80 80 70    	ior.w     w1, w0, w1
    38f4:	21 71 88    	mov.w     w1, 0xe24

000038f6 <.eb>:
    38f6:	93 80 fb    	ze        [w3], w1
    38f8:	c7 08 de    	lsr.w     w1, #0x7, w1
    38fa:	c9 08 dd    	sl.w      w1, #0x9, w1
    38fc:	60 44 80    	mov.w     0x88c, w0
    38fe:	00 90 a1    	bclr.w    w0, #0x9
    3900:	01 00 70    	ior.w     w0, w1, w0
    3902:	60 44 88    	mov.w     w0, 0x88c
    3904:	08 84 e8    	inc2.w    w8, w8
    3906:	08 00 78    	mov.w     w8, w0
    3908:	e2 14 07    	rcall     0x62ce <_uwl_mac_gts_get_gts_fields>
    390a:	00 80 fb    	ze        w0, w0
    390c:	00 04 44    	add.w     w8, w0, w8
    390e:	88 01 e8    	inc.w     w8, w3
    3910:	60 92 20    	mov.w     #0x926, w0
    3912:	90 c0 11    	subr.b    w3, [w0], w1
    3914:	50 aa 20    	mov.w     #0xaa5, w0
    3916:	00 c0 40    	add.b     w1, w0, w0
    3918:	02 e8 b7    	mov.b     WREG, 0x802
    391a:	27 00 3a    	bra       NZ, 0x396a <.L305>

0000391c <.bb>:
    391c:	40 00 20    	mov.w     #0x4, w0
    391e:	5a 1d 07    	rcall     0x73d4 <_EE_fp_ReleaseResource>

00003920 <.eb>:
    3920:	33 fc 07    	rcall     0x3188

00003922 <.L306>:
    3922:	4f 04 78    	mov.w     [--w15], w8
    3924:	00 80 fa    	ulnk      
    3926:	00 00 06    	return    
    3928:	d2 ff 37    	bra       0x38ce <.L288>

0000392a <.L304>:
    392a:	6c 81 57    	sub.w     w15, #0xc, w2
    392c:	00 00 eb    	clr.w     w0
    392e:	81 aa 20    	mov.w     #0xaa8, w1

00003930 <.L284>:
    3930:	61 71 78    	mov.b     [w1+w0], [w2+w0]
    3932:	00 00 e8    	inc.w     w0, w0
    3934:	e2 0f 50    	sub.w     w0, #0x2, [w15]
    3936:	fc ff 3a    	bra       NZ, 0x3930 <.L284>

00003938 <.eb>:
    3938:	a2 aa 20    	mov.w     #0xaaa, w2
    393a:	ea 80 57    	sub.w     w15, #0xa, w1
    393c:	00 00 eb    	clr.w     w0

0000393e <.L286>:
    393e:	e2 70 78    	mov.b     [w2+w0], [w1+w0]
    3940:	00 00 e8    	inc.w     w0, w0
    3942:	e8 0f 50    	sub.w     w0, #0x8, [w15]
    3944:	fc ff 3a    	bra       NZ, 0x393e <.L286>
    3946:	a1 00 20    	mov.w     #0xa, w1
    3948:	b5 ff 37    	bra       0x38b4 <.L281>

0000394a <.L303>:
    394a:	6c 81 57    	sub.w     w15, #0xc, w2
    394c:	00 00 eb    	clr.w     w0
    394e:	81 aa 20    	mov.w     #0xaa8, w1

00003950 <.L277>:
    3950:	61 71 78    	mov.b     [w1+w0], [w2+w0]
    3952:	00 00 e8    	inc.w     w0, w0
    3954:	e2 0f 50    	sub.w     w0, #0x2, [w15]
    3956:	fc ff 3a    	bra       NZ, 0x3950 <.L277>

00003958 <.eb>:
    3958:	a2 aa 20    	mov.w     #0xaaa, w2
    395a:	ea 80 57    	sub.w     w15, #0xa, w1
    395c:	00 00 eb    	clr.w     w0

0000395e <.L279>:
    395e:	e2 70 78    	mov.b     [w2+w0], [w1+w0]
    3960:	00 00 e8    	inc.w     w0, w0
    3962:	e2 0f 50    	sub.w     w0, #0x2, [w15]
    3964:	fc ff 3a    	bra       NZ, 0x395e <.L279>
    3966:	41 00 20    	mov.w     #0x4, w1
    3968:	a5 ff 37    	bra       0x38b4 <.L281>

0000396a <.L305>:
    396a:	00 81 fb    	ze        w0, w2
    396c:	83 00 78    	mov.w     w3, w1
    396e:	80 df 22    	mov.w     #0x2df8, w0
    3970:	86 ea 07    	rcall     0xe7e <_memcpy>

00003972 <.bb>:
    3972:	40 00 20    	mov.w     #0x4, w0
    3974:	2f 1d 07    	rcall     0x73d4 <_EE_fp_ReleaseResource>

00003976 <.eb>:
    3976:	08 fc 07    	rcall     0x3188
    3978:	d4 ff 37    	bra       0x3922 <.L306>

0000397a <_process_rx_data>:
    397a:	14 00 fa    	lnk       #0x14
    397c:	88 9f be    	mov.d     w8, [w15++]
    397e:	8a 9f be    	mov.d     w10, [w15++]
    3980:	8c 9f be    	mov.d     w12, [w15++]
    3982:	00 04 eb    	clr.w     w8
    3984:	98 b7 9f    	mov.w     w8, [w15-30]
    3986:	88 b7 9f    	mov.w     w8, [w15-32]

00003988 <.bb>:
    3988:	60 00 20    	mov.w     #0x6, w0
    398a:	49 1d 07    	rcall     0x741e <_EE_fp_GetResource>

0000398c <.eb>:
    398c:	6b a2 20    	mov.w     #0xa26, w11
    398e:	9b 45 78    	mov.b     [w11], w11
    3990:	46 58 de    	lsr.w     w11, #0x6, w0
    3992:	e1 01 60    	and.w     w0, #0x1, w3
    3994:	7c a2 20    	mov.w     #0xa27, w12
    3996:	1c 46 78    	mov.b     [w12], w12
    3998:	0c 80 fb    	ze        w12, w0
    399a:	46 01 de    	lsr.w     w0, #0x6, w2
    399c:	42 00 de    	lsr.w     w0, #0x2, w0
    399e:	63 00 60    	and.w     w0, #0x3, w0

000039a0 <.bb>:
    39a0:	e2 0f 50    	sub.w     w0, #0x2, [w15]
    39a2:	89 00 32    	bra       Z, 0x3ab6 <.L364>
    39a4:	e3 0f 50    	sub.w     w0, #0x3, [w15]
    39a6:	98 00 32    	bra       Z, 0x3ad8 <.L317>
    39a8:	88 40 78    	mov.b     w8, w1
    39aa:	fc 86 57    	sub.w     w15, #0x1c, w13

000039ac <.L316>:
    39ac:	e2 0f 51    	sub.w     w2, #0x2, [w15]
    39ae:	76 00 32    	bra       Z, 0x3a9c <.L365>
    39b0:	e3 0f 51    	sub.w     w2, #0x3, [w15]
    39b2:	56 00 32    	bra       Z, 0x3a60 <.L366>

000039b4 <.L331>:
    39b4:	01 45 78    	mov.b     w1, w10
    39b6:	8f b4 97    	mov.w     [w15-32], w9
    39b8:	1f b4 97    	mov.w     [w15-30], w8
    39ba:	88 01 78    	mov.w     w8, w3
    39bc:	0d 01 78    	mov.w     w13, w2
    39be:	89 00 78    	mov.w     w9, w1
    39c0:	60 a2 20    	mov.w     #0xa26, w0
    39c2:	78 fc 07    	rcall     0x32b4 <_filtering_condition>
    39c4:	00 04 e0    	cp0.b     w0
    39c6:	62 00 32    	bra       Z, 0x3a8c <.L367>

000039c8 <.L339>:
    39c8:	0b 68 a3    	btst.z    w11, #0x6
    39ca:	26 00 3a    	bra       NZ, 0x3a18 <.L368>
    39cc:	8a 83 fb    	ze        w10, w7
    39ce:	90 a2 20    	mov.w     #0xa29, w0
    39d0:	80 83 43    	add.w     w7, w0, w7
    39d2:	44 92 20    	mov.w     #0x924, w4
    39d4:	14 43 15    	subr.b    w10, [w4], w6
    39d6:	0c 80 fb    	ze        w12, w0
    39d8:	c2 01 de    	lsr.w     w0, #0x2, w3
    39da:	46 00 de    	lsr.w     w0, #0x6, w0
    39dc:	8f 87 e8    	inc2.w    w15, w15
    39de:	80 40 eb    	clr.b     w1
    39e0:	e1 ff 9f    	mov.b     w1, [w15-2]
    39e2:	80 1f eb    	clr.w     [w15++]
    39e4:	e4 87 47    	add.w     w15, #0x4, w15
    39e6:	c1 ff 9f    	mov.b     w1, [w15-4]
    39e8:	e1 ff 9f    	mov.b     w1, [w15-2]
    39ea:	60 22 b8    	mul.uu    w4, #0x0, w4
    39ec:	84 9f be    	mov.d     w4, [w15++]
    39ee:	e4 87 47    	add.w     w15, #0x4, w15
    39f0:	85 a2 20    	mov.w     #0xa28, w5
    39f2:	95 42 78    	mov.b     [w5], w5
    39f4:	c5 ff 9f    	mov.b     w5, [w15-4]
    39f6:	e1 ff 9f    	mov.b     w1, [w15-2]
    39f8:	63 43 53    	sub.b     w6, #0x3, w6
    39fa:	8d 02 78    	mov.w     w13, w5
    39fc:	09 02 78    	mov.w     w9, w4
    39fe:	e3 c1 61    	and.b     w3, #0x3, w3
    3a00:	c1 fd 2f    	mov.w     #0xffdc, w1
    3a02:	01 81 47    	add.w     w15, w1, w2
    3a04:	88 00 78    	mov.w     w8, w1
    3a06:	ef 0f 07    	rcall     0x59e6 <_uwl_MCPS_DATA_indication>

00003a08 <.bb>:
    3a08:	60 00 20    	mov.w     #0x6, w0
    3a0a:	e4 1c 07    	rcall     0x73d4 <_EE_fp_ReleaseResource>
    3a0c:	f0 87 57    	sub.w     w15, #0x10, w15

00003a0e <.L344>:
    3a0e:	4f 06 be    	mov.d     [--w15], w12
    3a10:	4f 05 be    	mov.d     [--w15], w10
    3a12:	4f 04 be    	mov.d     [--w15], w8
    3a14:	00 80 fa    	ulnk      
    3a16:	00 00 06    	return    

00003a18 <.L368>:
    3a18:	09 04 78    	mov.w     w9, w8
    3a1a:	99 b7 9f    	mov.w     w9, [w15-30]
    3a1c:	8a 83 fb    	ze        w10, w7
    3a1e:	90 a2 20    	mov.w     #0xa29, w0
    3a20:	80 83 43    	add.w     w7, w0, w7
    3a22:	44 92 20    	mov.w     #0x924, w4
    3a24:	14 43 15    	subr.b    w10, [w4], w6
    3a26:	0c 80 fb    	ze        w12, w0
    3a28:	c2 01 de    	lsr.w     w0, #0x2, w3
    3a2a:	46 00 de    	lsr.w     w0, #0x6, w0
    3a2c:	8f 87 e8    	inc2.w    w15, w15
    3a2e:	80 40 eb    	clr.b     w1
    3a30:	e1 ff 9f    	mov.b     w1, [w15-2]
    3a32:	80 1f eb    	clr.w     [w15++]
    3a34:	e4 87 47    	add.w     w15, #0x4, w15
    3a36:	c1 ff 9f    	mov.b     w1, [w15-4]
    3a38:	e1 ff 9f    	mov.b     w1, [w15-2]
    3a3a:	60 22 b8    	mul.uu    w4, #0x0, w4
    3a3c:	84 9f be    	mov.d     w4, [w15++]
    3a3e:	e4 87 47    	add.w     w15, #0x4, w15
    3a40:	85 a2 20    	mov.w     #0xa28, w5
    3a42:	95 42 78    	mov.b     [w5], w5
    3a44:	c5 ff 9f    	mov.b     w5, [w15-4]
    3a46:	e1 ff 9f    	mov.b     w1, [w15-2]
    3a48:	63 43 53    	sub.b     w6, #0x3, w6
    3a4a:	8d 02 78    	mov.w     w13, w5
    3a4c:	09 02 78    	mov.w     w9, w4
    3a4e:	e3 c1 61    	and.b     w3, #0x3, w3
    3a50:	c1 fd 2f    	mov.w     #0xffdc, w1
    3a52:	01 81 47    	add.w     w15, w1, w2
    3a54:	88 00 78    	mov.w     w8, w1
    3a56:	c7 0f 07    	rcall     0x59e6 <_uwl_MCPS_DATA_indication>

00003a58 <.bb>:
    3a58:	60 00 20    	mov.w     #0x6, w0
    3a5a:	bc 1c 07    	rcall     0x73d4 <_EE_fp_ReleaseResource>
    3a5c:	f0 87 57    	sub.w     w15, #0x10, w15
    3a5e:	d7 ff 37    	bra       0x3a0e <.L344>

00003a60 <.L366>:
    3a60:	94 a2 20    	mov.w     #0xa29, w4

00003a62 <.bb>:
    3a62:	03 04 e0    	cp0.b     w3
    3a64:	58 00 32    	bra       Z, 0x3b16 <.L369>
    3a66:	01 80 fb    	ze        w1, w0
    3a68:	04 00 40    	add.w     w0, w4, w0
    3a6a:	74 82 57    	sub.w     w15, #0x14, w4
    3a6c:	00 01 eb    	clr.w     w2

00003a6e <.L337>:
    3a6e:	60 72 79    	mov.b     [w0+w2], [w4+w2]
    3a70:	02 01 e8    	inc.w     w2, w2
    3a72:	e8 0f 51    	sub.w     w2, #0x8, [w15]
    3a74:	fc ff 3a    	bra       NZ, 0x3a6e <.L337>

00003a76 <.eb>:
    3a76:	e8 c0 40    	add.b     w1, #0x8, w1

00003a78 <.eb>:
    3a78:	01 45 78    	mov.b     w1, w10
    3a7a:	8f b4 97    	mov.w     [w15-32], w9
    3a7c:	1f b4 97    	mov.w     [w15-30], w8
    3a7e:	88 01 78    	mov.w     w8, w3
    3a80:	0d 01 78    	mov.w     w13, w2
    3a82:	89 00 78    	mov.w     w9, w1
    3a84:	60 a2 20    	mov.w     #0xa26, w0
    3a86:	16 fc 07    	rcall     0x32b4 <_filtering_condition>
    3a88:	00 04 e0    	cp0.b     w0
    3a8a:	9e ff 3a    	bra       NZ, 0x39c8 <.L339>

00003a8c <.L367>:
    3a8c:	60 00 20    	mov.w     #0x6, w0
    3a8e:	a2 1c 07    	rcall     0x73d4 <_EE_fp_ReleaseResource>

00003a90 <.eb>:
    3a90:	4f 06 be    	mov.d     [--w15], w12
    3a92:	4f 05 be    	mov.d     [--w15], w10
    3a94:	4f 04 be    	mov.d     [--w15], w8
    3a96:	00 80 fa    	ulnk      
    3a98:	00 00 06    	return    
    3a9a:	be ff 37    	bra       0x3a18 <.L368>

00003a9c <.L365>:
    3a9c:	94 a2 20    	mov.w     #0xa29, w4

00003a9e <.bb>:
    3a9e:	03 04 e0    	cp0.b     w3
    3aa0:	2c 00 32    	bra       Z, 0x3afa <.L370>
    3aa2:	01 80 fb    	ze        w1, w0
    3aa4:	04 00 40    	add.w     w0, w4, w0
    3aa6:	f4 81 57    	sub.w     w15, #0x14, w3
    3aa8:	00 01 eb    	clr.w     w2

00003aaa <.L329>:
    3aaa:	e0 71 79    	mov.b     [w0+w2], [w3+w2]
    3aac:	02 01 e8    	inc.w     w2, w2
    3aae:	e2 0f 51    	sub.w     w2, #0x2, [w15]
    3ab0:	fc ff 3a    	bra       NZ, 0x3aaa <.L329>

00003ab2 <.eb>:
    3ab2:	81 c0 e8    	inc2.b    w1, w1
    3ab4:	7f ff 37    	bra       0x39b4 <.L331>

00003ab6 <.L364>:
    3ab6:	00 fe 2f    	mov.w     #0xffe0, w0
    3ab8:	0f 00 40    	add.w     w0, w15, w0
    3aba:	88 00 78    	mov.w     w8, w1
    3abc:	94 a2 20    	mov.w     #0xa29, w4

00003abe <.L312>:
    3abe:	64 f0 78    	mov.b     [w4+w1], [w0+w1]
    3ac0:	81 00 e8    	inc.w     w1, w1
    3ac2:	e2 8f 50    	sub.w     w1, #0x2, [w15]
    3ac4:	fc ff 3a    	bra       NZ, 0x3abe <.L312>

00003ac6 <.eb>:
    3ac6:	fc 86 57    	sub.w     w15, #0x1c, w13
    3ac8:	00 00 eb    	clr.w     w0
    3aca:	b1 a2 20    	mov.w     #0xa2b, w1

00003acc <.L314>:
    3acc:	e1 76 78    	mov.b     [w1+w0], [w13+w0]
    3ace:	00 00 e8    	inc.w     w0, w0
    3ad0:	e2 0f 50    	sub.w     w0, #0x2, [w15]
    3ad2:	fc ff 3a    	bra       NZ, 0x3acc <.L314>
    3ad4:	41 c0 b3    	mov.b     #0x4, w1
    3ad6:	6a ff 37    	bra       0x39ac <.L316>

00003ad8 <.L317>:
    3ad8:	00 fe 2f    	mov.w     #0xffe0, w0
    3ada:	0f 00 40    	add.w     w0, w15, w0
    3adc:	88 00 78    	mov.w     w8, w1
    3ade:	94 a2 20    	mov.w     #0xa29, w4

00003ae0 <.L319>:
    3ae0:	64 f0 78    	mov.b     [w4+w1], [w0+w1]
    3ae2:	81 00 e8    	inc.w     w1, w1
    3ae4:	e2 8f 50    	sub.w     w1, #0x2, [w15]
    3ae6:	fc ff 3a    	bra       NZ, 0x3ae0 <.L319>

00003ae8 <.eb>:
    3ae8:	fc 86 57    	sub.w     w15, #0x1c, w13
    3aea:	00 00 eb    	clr.w     w0
    3aec:	b1 a2 20    	mov.w     #0xa2b, w1

00003aee <.L321>:
    3aee:	e1 76 78    	mov.b     [w1+w0], [w13+w0]
    3af0:	00 00 e8    	inc.w     w0, w0
    3af2:	e8 0f 50    	sub.w     w0, #0x8, [w15]
    3af4:	fc ff 3a    	bra       NZ, 0x3aee <.L321>
    3af6:	a1 c0 b3    	mov.b     #0xa, w1
    3af8:	59 ff 37    	bra       0x39ac <.L316>

00003afa <.L370>:
    3afa:	01 80 fb    	ze        w1, w0
    3afc:	04 00 40    	add.w     w0, w4, w0
    3afe:	fe 81 57    	sub.w     w15, #0x1e, w3
    3b00:	00 01 eb    	clr.w     w2

00003b02 <.L327>:
    3b02:	e0 71 79    	mov.b     [w0+w2], [w3+w2]
    3b04:	02 01 e8    	inc.w     w2, w2
    3b06:	e2 0f 51    	sub.w     w2, #0x2, [w15]
    3b08:	fc ff 3a    	bra       NZ, 0x3b02 <.L327>

00003b0a <.eb>:
    3b0a:	81 c0 e8    	inc2.b    w1, w1
    3b0c:	01 80 fb    	ze        w1, w0
    3b0e:	04 00 40    	add.w     w0, w4, w0
    3b10:	f4 81 57    	sub.w     w15, #0x14, w3
    3b12:	00 01 eb    	clr.w     w2
    3b14:	ca ff 37    	bra       0x3aaa <.L329>

00003b16 <.L369>:
    3b16:	01 80 fb    	ze        w1, w0
    3b18:	04 00 40    	add.w     w0, w4, w0
    3b1a:	fe 81 57    	sub.w     w15, #0x1e, w3
    3b1c:	00 01 eb    	clr.w     w2

00003b1e <.L335>:
    3b1e:	e0 71 79    	mov.b     [w0+w2], [w3+w2]
    3b20:	02 01 e8    	inc.w     w2, w2
    3b22:	e2 0f 51    	sub.w     w2, #0x2, [w15]
    3b24:	fc ff 3a    	bra       NZ, 0x3b1e <.L335>

00003b26 <.eb>:
    3b26:	81 c0 e8    	inc2.b    w1, w1
    3b28:	01 80 fb    	ze        w1, w0
    3b2a:	04 00 40    	add.w     w0, w4, w0
    3b2c:	74 82 57    	sub.w     w15, #0x14, w4
    3b2e:	00 01 eb    	clr.w     w2
    3b30:	9e ff 37    	bra       0x3a6e <.L337>

00003b32 <_uwl_mac_association_response_cmd>:
    3b32:	02 00 fa    	lnk       #0x2
    3b34:	88 9f be    	mov.d     w8, [w15++]
    3b36:	8a 9f be    	mov.d     w10, [w15++]
    3b38:	8c 1f 78    	mov.w     w12, [w15++]
    3b3a:	00 05 be    	mov.d     w0, w10
    3b3c:	02 46 78    	mov.b     w2, w12

00003b3e <.bb>:
    3b3e:	70 00 20    	mov.w     #0x7, w0
    3b40:	6e 1c 07    	rcall     0x741e <_EE_fp_GetResource>

00003b42 <.eb>:
    3b42:	00 e0 20    	mov.w     #0xe00, w0
    3b44:	6e 10 07    	rcall     0x5c22 <_list_push_front>
    3b46:	80 04 78    	mov.w     w0, w9
    3b48:	00 00 e0    	cp0.w     w0
    3b4a:	2a 00 32    	bra       Z, 0x3ba0 <.L390>
    3b4c:	88 45 80    	mov.w     0x8b0, w8

00003b4e <.bb>:
    3b4e:	f2 07 20    	mov.w     #0x7f, w2
    3b50:	80 00 eb    	clr.w     w1
    3b52:	8e e9 07    	rcall     0xe70 <_memset>

00003b54 <.bb>:
    3b54:	30 c6 b3    	mov.b     #0x63, w0
    3b56:	80 4c 78    	mov.b     w0, [w9]
    3b58:	c0 c8 b3    	mov.b     #0x8c, w0
    3b5a:	90 44 98    	mov.b     w0, [w9+1]

00003b5c <.eb>:
    3b5c:	a4 c8 bf    	mov.b     0x8a4, WREG
    3b5e:	20 e9 b7    	mov.b     WREG, 0x920
    3b60:	a0 44 98    	mov.b     w0, [w9+2]
    3b62:	00 40 e8    	inc.b     w0, w0
    3b64:	a4 e8 b7    	mov.b     WREG, 0x8a4
    3b66:	e3 80 44    	add.w     w9, #0x3, w1
    3b68:	a8 bf 9f    	mov.w     w8, [w15-12]

00003b6a <.bb>:
    3b6a:	6c 81 57    	sub.w     w15, #0xc, w2
    3b6c:	00 00 eb    	clr.w     w0

00003b6e <.L377>:
    3b6e:	e2 70 78    	mov.b     [w2+w0], [w1+w0]
    3b70:	00 00 e8    	inc.w     w0, w0
    3b72:	e2 0f 50    	sub.w     w0, #0x2, [w15]
    3b74:	fc ff 3a    	bra       NZ, 0x3b6e <.L377>

00003b76 <.eb>:
    3b76:	e5 80 44    	add.w     w9, #0x5, w1
    3b78:	00 00 eb    	clr.w     w0

00003b7a <.L379>:
    3b7a:	ea 70 78    	mov.b     [w10+w0], [w1+w0]
    3b7c:	00 00 e8    	inc.w     w0, w0
    3b7e:	e8 0f 50    	sub.w     w0, #0x8, [w15]
    3b80:	fc ff 3a    	bra       NZ, 0x3b7a <.L379>

00003b82 <.eb>:
    3b82:	62 8b 20    	mov.w     #0x8b6, w2
    3b84:	ed 80 44    	add.w     w9, #0xd, w1
    3b86:	00 00 eb    	clr.w     w0

00003b88 <.L381>:
    3b88:	e2 70 78    	mov.b     [w2+w0], [w1+w0]
    3b8a:	00 00 e8    	inc.w     w0, w0
    3b8c:	e2 0f 50    	sub.w     w0, #0x2, [w15]
    3b8e:	fc ff 3a    	bra       NZ, 0x3b88 <.L381>

00003b90 <.eb>:
    3b90:	f0 4c 98    	mov.b     w0, [w9+15]

00003b92 <.eb>:
    3b92:	8b 54 98    	mov.b     w11, [w9+16]
    3b94:	ac 54 98    	mov.b     w12, [w9+18]
    3b96:	79 38 90    	mov.w     [w9+126], w0
    3b98:	f0 1f b2    	and.w     #0x1ff, w0
    3b9a:	01 60 22    	mov.w     #0x2600, w1
    3b9c:	01 00 70    	ior.w     w0, w1, w0
    3b9e:	f0 3c 98    	mov.w     w0, [w9+126]

00003ba0 <.L390>:
    3ba0:	70 00 20    	mov.w     #0x7, w0
    3ba2:	18 1c 07    	rcall     0x73d4 <_EE_fp_ReleaseResource>

00003ba4 <.eb>:
    3ba4:	4f 06 78    	mov.w     [--w15], w12
    3ba6:	4f 05 be    	mov.d     [--w15], w10
    3ba8:	4f 04 be    	mov.d     [--w15], w8
    3baa:	00 80 fa    	ulnk      
    3bac:	00 00 06    	return    

00003bae <_uwl_mac_association_request_cmd>:
    3bae:	0c 00 fa    	lnk       #0xc
    3bb0:	88 9f be    	mov.d     w8, [w15++]
    3bb2:	8a 9f be    	mov.d     w10, [w15++]
    3bb4:	8c 1f 78    	mov.w     w12, [w15++]
    3bb6:	80 04 78    	mov.w     w0, w9
    3bb8:	01 05 78    	mov.w     w1, w10
    3bba:	82 05 78    	mov.w     w2, w11
    3bbc:	03 46 78    	mov.b     w3, w12

00003bbe <.bb>:
    3bbe:	70 00 20    	mov.w     #0x7, w0
    3bc0:	2e 1c 07    	rcall     0x741e <_EE_fp_GetResource>

00003bc2 <.bb>:
    3bc2:	81 70 80    	mov.w     0xe10, w1
    3bc4:	92 70 80    	mov.w     0xe12, w2
    3bc6:	82 8f 50    	sub.w     w1, w2, [w15]
    3bc8:	50 00 32    	bra       Z, 0x3c6a <.L431>
    3bca:	70 70 80    	mov.w     0xe0e, w0
    3bcc:	00 80 40    	add.w     w1, w0, w0
    3bce:	81 1f 78    	mov.w     w1, [w15++]
    3bd0:	11 00 09    	repeat    #0x11
    3bd2:	02 80 d8    	div.uw    w0, w2
    3bd4:	01 01 78    	mov.w     w1, w2
    3bd6:	cf 00 78    	mov.w     [--w15], w1
    3bd8:	a0 70 80    	mov.w     0xe14, w0
    3bda:	00 91 b9    	mul.ss    w2, w0, w2
    3bdc:	b0 70 80    	mov.w     0xe16, w0
    3bde:	00 01 41    	add.w     w2, w0, w2
    3be0:	01 00 e8    	inc.w     w1, w0
    3be2:	80 70 88    	mov.w     w0, 0xe10
    3be4:	02 04 78    	mov.w     w2, w8

00003be6 <.eb>:
    3be6:	02 00 e0    	cp0.w     w2
    3be8:	40 00 32    	bra       Z, 0x3c6a <.L431>
    3bea:	20 00 20    	mov.w     #0x2, w0
    3bec:	01 00 20    	mov.w     #0x0, w1
    3bee:	f0 b7 9f    	mov.w     w0, [w15-18]
    3bf0:	81 bf 9f    	mov.w     w1, [w15-16]
    3bf2:	90 bf 9f    	mov.w     w0, [w15-14]
    3bf4:	a1 bf 9f    	mov.w     w1, [w15-12]

00003bf6 <.bb>:
    3bf6:	f2 07 20    	mov.w     #0x7f, w2
    3bf8:	80 00 eb    	clr.w     w1
    3bfa:	08 00 78    	mov.w     w8, w0
    3bfc:	39 e9 07    	rcall     0xe70 <_memset>

00003bfe <.bb>:
    3bfe:	30 c2 b3    	mov.b     #0x23, w0
    3c00:	00 4c 78    	mov.b     w0, [w8]
    3c02:	42 48 dd    	sl.w      w9, #0x2, w0
    3c04:	01 cc b3    	mov.b     #0xc0, w1
    3c06:	01 40 70    	ior.b     w0, w1, w0
    3c08:	10 44 98    	mov.b     w0, [w8+1]

00003c0a <.eb>:
    3c0a:	a4 c8 bf    	mov.b     0x8a4, WREG
    3c0c:	20 e9 b7    	mov.b     WREG, 0x920
    3c0e:	20 44 98    	mov.b     w0, [w8+2]
    3c10:	00 40 e8    	inc.b     w0, w0
    3c12:	a4 e8 b7    	mov.b     WREG, 0x8a4
    3c14:	e3 02 44    	add.w     w8, #0x3, w5
    3c16:	ea b7 9f    	mov.w     w10, [w15-20]
    3c18:	80 80 eb    	setm.w    w1
    3c1a:	d1 b7 9f    	mov.w     w1, [w15-22]

00003c1c <.bb>:
    3c1c:	e2 8f 54    	sub.w     w9, #0x2, [w15]
    3c1e:	2c 00 32    	bra       Z, 0x3c78 <.L433>
    3c20:	00 40 eb    	clr.b     w0
    3c22:	00 01 eb    	clr.w     w2
    3c24:	e3 8f 54    	sub.w     w9, #0x3, [w15]
    3c26:	3a 00 32    	bra       Z, 0x3c9c <.L434>
    3c28:	76 82 57    	sub.w     w15, #0x16, w4
    3c2a:	82 81 42    	add.w     w5, w2, w3
    3c2c:	00 01 eb    	clr.w     w2

00003c2e <.L413>:
    3c2e:	e4 71 79    	mov.b     [w4+w2], [w3+w2]
    3c30:	02 01 e8    	inc.w     w2, w2
    3c32:	e2 0f 51    	sub.w     w2, #0x2, [w15]
    3c34:	fc ff 3a    	bra       NZ, 0x3c2e <.L413>

00003c36 <.eb>:
    3c36:	80 c0 e8    	inc2.b    w0, w1
    3c38:	f2 81 57    	sub.w     w15, #0x12, w3
    3c3a:	01 80 fb    	ze        w1, w0
    3c3c:	00 81 42    	add.w     w5, w0, w2
    3c3e:	00 00 eb    	clr.w     w0

00003c40 <.L415>:
    3c40:	63 71 78    	mov.b     [w3+w0], [w2+w0]
    3c42:	00 00 e8    	inc.w     w0, w0
    3c44:	e8 0f 50    	sub.w     w0, #0x8, [w15]
    3c46:	fc ff 3a    	bra       NZ, 0x3c40 <.L415>

00003c48 <.eb>:
    3c48:	e8 c0 40    	add.b     w1, #0x8, w1
    3c4a:	81 80 fb    	ze        w1, w1
    3c4c:	01 00 44    	add.w     w8, w1, w0
    3c4e:	12 c0 b3    	mov.b     #0x1, w2
    3c50:	32 40 98    	mov.b     w2, [w0+3]

00003c52 <.eb>:
    3c52:	08 80 40    	add.w     w1, w8, w0
    3c54:	4c 40 98    	mov.b     w12, [w0+4]
    3c56:	e5 c0 40    	add.b     w1, #0x5, w1
    3c58:	c9 08 dd    	sl.w      w1, #0x9, w1
    3c5a:	78 38 90    	mov.w     [w8+126], w0
    3c5c:	f0 1f b2    	and.w     #0x1ff, w0
    3c5e:	01 00 70    	ior.w     w0, w1, w0
    3c60:	70 3c 98    	mov.w     w0, [w8+126]
    3c62:	00 01 fd    	exch      w0, w2
    3c64:	01 e8 b7    	mov.b     WREG, 0x801
    3c66:	00 e8 b7    	mov.b     WREG, 0x800
    3c68:	00 01 fd    	exch      w0, w2

00003c6a <.L431>:
    3c6a:	70 00 20    	mov.w     #0x7, w0
    3c6c:	b3 1b 07    	rcall     0x73d4 <_EE_fp_ReleaseResource>

00003c6e <.eb>:
    3c6e:	4f 06 78    	mov.w     [--w15], w12
    3c70:	4f 05 be    	mov.d     [--w15], w10
    3c72:	4f 04 be    	mov.d     [--w15], w8
    3c74:	00 80 fa    	ulnk      
    3c76:	00 00 06    	return    

00003c78 <.L433>:
    3c78:	f4 80 57    	sub.w     w15, #0x14, w1
    3c7a:	00 00 eb    	clr.w     w0

00003c7c <.L402>:
    3c7c:	e1 72 78    	mov.b     [w1+w0], [w5+w0]
    3c7e:	00 00 e8    	inc.w     w0, w0
    3c80:	e2 0f 50    	sub.w     w0, #0x2, [w15]
    3c82:	fc ff 3a    	bra       NZ, 0x3c7c <.L402>

00003c84 <.eb>:
    3c84:	e5 00 44    	add.w     w8, #0x5, w1
    3c86:	00 00 eb    	clr.w     w0

00003c88 <.L404>:
    3c88:	eb 70 78    	mov.b     [w11+w0], [w1+w0]
    3c8a:	00 00 e8    	inc.w     w0, w0
    3c8c:	e2 0f 50    	sub.w     w0, #0x2, [w15]
    3c8e:	fc ff 3a    	bra       NZ, 0x3c88 <.L404>
    3c90:	40 c0 b3    	mov.b     #0x4, w0
    3c92:	42 00 20    	mov.w     #0x4, w2

00003c94 <.eb>:
    3c94:	76 82 57    	sub.w     w15, #0x16, w4
    3c96:	82 81 42    	add.w     w5, w2, w3
    3c98:	00 01 eb    	clr.w     w2
    3c9a:	c9 ff 37    	bra       0x3c2e <.L413>

00003c9c <.L434>:
    3c9c:	f4 80 57    	sub.w     w15, #0x14, w1
    3c9e:	00 00 eb    	clr.w     w0

00003ca0 <.L409>:
    3ca0:	e1 72 78    	mov.b     [w1+w0], [w5+w0]
    3ca2:	00 00 e8    	inc.w     w0, w0
    3ca4:	e2 0f 50    	sub.w     w0, #0x2, [w15]
    3ca6:	fc ff 3a    	bra       NZ, 0x3ca0 <.L409>

00003ca8 <.eb>:
    3ca8:	e5 00 44    	add.w     w8, #0x5, w1
    3caa:	00 00 eb    	clr.w     w0

00003cac <.L411>:
    3cac:	eb 70 78    	mov.b     [w11+w0], [w1+w0]
    3cae:	00 00 e8    	inc.w     w0, w0
    3cb0:	e8 0f 50    	sub.w     w0, #0x8, [w15]
    3cb2:	fc ff 3a    	bra       NZ, 0x3cac <.L411>
    3cb4:	a0 c0 b3    	mov.b     #0xa, w0
    3cb6:	a2 00 20    	mov.w     #0xa, w2

00003cb8 <.eb>:
    3cb8:	76 82 57    	sub.w     w15, #0x16, w4
    3cba:	82 81 42    	add.w     w5, w2, w3
    3cbc:	00 01 eb    	clr.w     w2
    3cbe:	b7 ff 37    	bra       0x3c2e <.L413>

00003cc0 <_uwl_mac_perform_data_request>:
    3cc0:	f8 87 47    	add.w     w15, #0x18, w15
    3cc2:	88 9f be    	mov.d     w8, [w15++]
    3cc4:	8a 9f be    	mov.d     w10, [w15++]
    3cc6:	8c 9f be    	mov.d     w12, [w15++]
    3cc8:	8e 1f 78    	mov.w     w14, [w15++]
    3cca:	80 06 78    	mov.w     w0, w13
    3ccc:	81 05 78    	mov.w     w1, w11
    3cce:	d2 b7 9f    	mov.w     w2, [w15-22]
    3cd0:	e3 b7 9f    	mov.w     w3, [w15-20]
    3cd2:	e4 ef 9f    	mov.b     w4, [w15-18]
    3cd4:	85 bf 9f    	mov.w     w5, [w15-16]
    3cd6:	06 46 78    	mov.b     w6, w12
    3cd8:	07 47 78    	mov.b     w7, w14
    3cda:	30 06 2a    	mov.w     #0xa063, w0
    3cdc:	d7 0a 07    	rcall     0x528c <_uwl_debug_print>
    3cde:	0e 00 d1    	lsr.w     w14, w0
    3ce0:	61 04 60    	and.w     w0, #0x1, w8
    3ce2:	98 ef 9f    	mov.b     w8, [w15-23]
    3ce4:	08 04 e0    	cp0.b     w8
    3ce6:	b8 00 32    	bra       Z, 0x3e58 <.L437>
    3ce8:	40 71 80    	mov.w     0xe28, w0
    3cea:	66 00 60    	and.w     w0, #0x6, w0
    3cec:	ad 00 32    	bra       Z, 0x3e48 <.L439>

00003cee <.bb>:
    3cee:	15 00 20    	mov.w     #0x1, w5
    3cf0:	e2 8f 55    	sub.w     w11, #0x2, [w15]
    3cf2:	ca 00 32    	bra       Z, 0x3e88 <.L556>
    3cf4:	80 00 eb    	clr.w     w1
    3cf6:	82 f5 20    	mov.w     #0xf58, w2
    3cf8:	63 f5 20    	mov.w     #0xf56, w3

00003cfa <.L444>:
    3cfa:	92 8f 52    	sub.w     w5, [w2], [w15]
    3cfc:	11 00 32    	bra       Z, 0x3d20 <.L557>

00003cfe <.L445>:
    3cfe:	81 00 e8    	inc.w     w1, w1
    3d00:	e6 81 41    	add.w     w3, #0x6, w3
    3d02:	66 01 41    	add.w     w2, #0x6, w2
    3d04:	e7 8f 50    	sub.w     w1, #0x7, [w15]
    3d06:	f9 ff 3a    	bra       NZ, 0x3cfa <.L444>

00003d08 <.L451>:
    3d08:	60 11 b8    	mul.uu    w2, #0x0, w2
    3d0a:	61 0e 20    	mov.w     #0xe6, w1
    3d0c:	0c 40 78    	mov.b     w12, w0
    3d0e:	65 0e 07    	rcall     0x59da <_uwl_MCPS_DATA_confirm>
    3d10:	10 07 2a    	mov.w     #0xa071, w0
    3d12:	bc 0a 07    	rcall     0x528c <_uwl_debug_print>
    3d14:	4f 07 78    	mov.w     [--w15], w14
    3d16:	4f 06 be    	mov.d     [--w15], w12
    3d18:	4f 05 be    	mov.d     [--w15], w10
    3d1a:	4f 04 be    	mov.d     [--w15], w8
    3d1c:	8f 01 b1    	sub.w     #0x18, w15
    3d1e:	00 00 06    	return    

00003d20 <.L557>:
    3d20:	13 02 78    	mov.w     [w3], w4
    3d22:	44 20 de    	lsr.w     w4, #0x4, w0
    3d24:	6f 40 60    	and.b     w0, #0xf, w0
    3d26:	eb ff 32    	bra       Z, 0x3cfe <.L445>
    3d28:	04 88 a3    	btst.z    w4, #0x8
    3d2a:	e9 ff 32    	bra       Z, 0x3cfe <.L445>
    3d2c:	81 ef 9f    	mov.b     w1, [w15-24]

00003d2e <.eb>:
    3d2e:	01 04 e0    	cp0.b     w1
    3d30:	eb ff 35    	bra       LT, 0x3d08 <.L451>
    3d32:	01 44 78    	mov.b     w1, w8
    3d34:	88 40 78    	mov.b     w8, w1
    3d36:	6f e8 97    	mov.b     [w15-18], w0
    3d38:	59 f2 07    	rcall     0x21ec <_uwl_mac_superframe_check_gts>
    3d3a:	00 04 e0    	cp0.b     w0
    3d3c:	ab 00 32    	bra       Z, 0x3e94 <.L558>

00003d3e <.L455>:
    3d3e:	20 00 20    	mov.w     #0x2, w0
    3d40:	6e 1b 07    	rcall     0x741e <_EE_fp_GetResource>

00003d42 <.bb>:
    3d42:	40 71 80    	mov.w     0xe28, w0
    3d44:	66 00 60    	and.w     w0, #0x6, w0
    3d46:	53 01 3a    	bra       NZ, 0x3fee <.L457>

00003d48 <.bb>:
    3d48:	d1 71 80    	mov.w     0xe3a, w1
    3d4a:	e2 71 80    	mov.w     0xe3c, w2
    3d4c:	82 8f 50    	sub.w     w1, w2, [w15]
    3d4e:	42 01 32    	bra       Z, 0x3fd4
    3d50:	c0 71 80    	mov.w     0xe38, w0
    3d52:	00 80 40    	add.w     w1, w0, w0
    3d54:	81 1f 78    	mov.w     w1, [w15++]
    3d56:	11 00 09    	repeat    #0x11
    3d58:	02 80 d8    	div.uw    w0, w2
    3d5a:	01 01 78    	mov.w     w1, w2
    3d5c:	cf 00 78    	mov.w     [--w15], w1
    3d5e:	f0 71 80    	mov.w     0xe3e, w0
    3d60:	00 91 b9    	mul.ss    w2, w0, w2
    3d62:	04 72 80    	mov.w     0xe40, w4
    3d64:	04 01 41    	add.w     w2, w4, w2
    3d66:	01 00 e8    	inc.w     w1, w0
    3d68:	d0 71 88    	mov.w     w0, 0xe3a
    3d6a:	82 04 78    	mov.w     w2, w9

00003d6c <.eb>:
    3d6c:	02 00 e0    	cp0.w     w2
    3d6e:	32 01 32    	bra       Z, 0x3fd4

00003d70 <.L463>:
    3d70:	8c 44 99    	mov.b     w12, [w9+128]
    3d72:	f2 07 20    	mov.w     #0x7f, w2
    3d74:	80 00 eb    	clr.w     w1
    3d76:	09 00 78    	mov.w     w9, w0
    3d78:	7b e8 07    	rcall     0xe70 <_memset>
    3d7a:	0d 00 e0    	cp0.w     w13
    3d7c:	07 00 32    	bra       Z, 0x3d8c <.L471>
    3d7e:	0b 00 e0    	cp0.w     w11
    3d80:	05 00 32    	bra       Z, 0x3d8c <.L471>
    3d82:	11 c0 b3    	mov.b     #0x1, w1
    3d84:	80 45 80    	mov.w     0x8b0, w0
    3d86:	5f b1 97    	mov.w     [w15-22], w2
    3d88:	80 0f 51    	sub.w     w2, w0, [w15]
    3d8a:	01 00 32    	bra       Z, 0x3d8e <.L475>

00003d8c <.L471>:
    3d8c:	80 40 eb    	clr.b     w1

00003d8e <.L475>:
    3d8e:	e1 c1 60    	and.b     w1, #0x1, w3

00003d90 <.bb>:
    3d90:	83 80 fb    	ze        w3, w1
    3d92:	c6 08 dd    	sl.w      w1, #0x6, w1
    3d94:	61 00 67    	and.w     w14, #0x1, w0
    3d96:	45 00 dd    	sl.w      w0, #0x5, w0
    3d98:	80 c0 70    	ior.b     w1, w0, w1
    3d9a:	01 04 a0    	bset.b    w1, #0x0
    3d9c:	81 4c 78    	mov.b     w1, [w9]
    3d9e:	0d 80 fb    	ze        w13, w0
    3da0:	c6 00 dd    	sl.w      w0, #0x6, w1
    3da2:	00 41 eb    	clr.b     w2
    3da4:	60 c6 b3    	mov.b     #0x66, w0
    3da6:	6f ea 97    	mov.b     [w15-18], w4
    3da8:	80 4f 52    	sub.b     w4, w0, [w15]
    3daa:	01 00 36    	bra       LEU, 0x3dae <.L476>
    3dac:	12 c0 b3    	mov.b     #0x1, w2

00003dae <.L476>:
    3dae:	02 80 fb    	ze        w2, w0
    3db0:	44 00 dd    	sl.w      w0, #0x4, w0
    3db2:	00 c0 70    	ior.b     w1, w0, w0
    3db4:	c2 58 dd    	sl.w      w11, #0x2, w1
    3db6:	80 c0 70    	ior.b     w1, w0, w1
    3db8:	91 44 98    	mov.b     w1, [w9+1]

00003dba <.eb>:
    3dba:	a4 c8 bf    	mov.b     0x8a4, WREG
    3dbc:	a0 44 98    	mov.b     w0, [w9+2]
    3dbe:	00 40 e8    	inc.b     w0, w0
    3dc0:	a4 e8 b7    	mov.b     WREG, 0x8a4
    3dc2:	e3 8f 56    	sub.w     w13, #0x3, [w15]
    3dc4:	87 00 32    	bra       Z, 0x3ed4 <.L477>
    3dc6:	e2 8f 56    	sub.w     w13, #0x2, [w15]
    3dc8:	82 00 32    	bra       Z, 0x3ece <.L559>

00003dca <.L479>:
    3dca:	e3 82 44    	add.w     w9, #0x3, w5
    3dcc:	5f b1 97    	mov.w     [w15-22], w2
    3dce:	f2 af 9f    	mov.w     w2, [w15-34]
    3dd0:	84 45 80    	mov.w     0x8b0, w4
    3dd2:	e4 af 9f    	mov.w     w4, [w15-36]

00003dd4 <.bb>:
    3dd4:	e2 8f 55    	sub.w     w11, #0x2, [w15]
    3dd6:	ba 00 32    	bra       Z, 0x3f4c <.L560>
    3dd8:	00 40 eb    	clr.b     w0
    3dda:	00 01 eb    	clr.w     w2
    3ddc:	e3 8f 55    	sub.w     w11, #0x3, [w15]
    3dde:	d6 00 32    	bra       Z, 0x3f8c <.L561>

00003de0 <.L507>:
    3de0:	03 04 e0    	cp0.b     w3
    3de2:	0a 00 3a    	bra       NZ, 0x3df8 <.L514>
    3de4:	c1 fd 2f    	mov.w     #0xffdc, w1
    3de6:	8f 80 40    	add.w     w1, w15, w1
    3de8:	82 81 42    	add.w     w5, w2, w3
    3dea:	00 01 eb    	clr.w     w2

00003dec <.L516>:
    3dec:	e1 71 79    	mov.b     [w1+w2], [w3+w2]
    3dee:	02 01 e8    	inc.w     w2, w2
    3df0:	e2 0f 51    	sub.w     w2, #0x2, [w15]
    3df2:	fc ff 3a    	bra       NZ, 0x3dec <.L516>

00003df4 <.eb>:
    3df4:	00 c0 e8    	inc2.b    w0, w0
    3df6:	00 81 fb    	ze        w0, w2

00003df8 <.L514>:
    3df8:	64 8b 20    	mov.w     #0x8b6, w4
    3dfa:	82 81 42    	add.w     w5, w2, w3
    3dfc:	00 01 eb    	clr.w     w2

00003dfe <.L518>:
    3dfe:	e4 71 79    	mov.b     [w4+w2], [w3+w2]
    3e00:	02 01 e8    	inc.w     w2, w2
    3e02:	e2 0f 51    	sub.w     w2, #0x2, [w15]
    3e04:	fc ff 3a    	bra       NZ, 0x3dfe <.L518>

00003e06 <.eb>:
    3e06:	00 c4 e8    	inc2.b    w0, w8
    3e08:	08 80 fb    	ze        w8, w0
    3e0a:	00 80 44    	add.w     w9, w0, w0
    3e0c:	63 00 40    	add.w     w0, #0x3, w0
    3e0e:	ef e9 97    	mov.b     [w15-18], w3
    3e10:	03 81 fb    	ze        w3, w2
    3e12:	8f b8 97    	mov.w     [w15-16], w1
    3e14:	34 e8 07    	rcall     0xe7e <_memcpy>
    3e16:	6f ea 97    	mov.b     [w15-18], w4
    3e18:	84 40 44    	add.b     w8, w4, w1
    3e1a:	e3 c0 40    	add.b     w1, #0x3, w1
    3e1c:	c9 08 dd    	sl.w      w1, #0x9, w1
    3e1e:	79 38 90    	mov.w     [w9+126], w0
    3e20:	f0 1f b2    	and.w     #0x1ff, w0
    3e22:	01 00 70    	ior.w     w0, w1, w0
    3e24:	f0 3c 98    	mov.w     w0, [w9+126]
    3e26:	1f e8 97    	mov.b     [w15-23], w0
    3e28:	00 04 e0    	cp0.b     w0
    3e2a:	41 00 3a    	bra       NZ, 0x3eae <.L562>

00003e2c <.L520>:
    3e2c:	d0 0b 2a    	mov.w     #0xa0bd, w0
    3e2e:	2e 0a 07    	rcall     0x528c <_uwl_debug_print>
    3e30:	9f e8 97    	mov.b     [w15-23], w1
    3e32:	01 04 e0    	cp0.b     w1
    3e34:	43 00 32    	bra       Z, 0x3ebc <.L522>

00003e36 <.L563>:
    3e36:	20 00 20    	mov.w     #0x2, w0
    3e38:	cd 1a 07    	rcall     0x73d4 <_EE_fp_ReleaseResource>

00003e3a <.eb>:
    3e3a:	4f 07 78    	mov.w     [--w15], w14
    3e3c:	4f 06 be    	mov.d     [--w15], w12
    3e3e:	4f 05 be    	mov.d     [--w15], w10
    3e40:	4f 04 be    	mov.d     [--w15], w8
    3e42:	8f 01 b1    	sub.w     #0x18, w15
    3e44:	00 00 06    	return    
    3e46:	6c ff 37    	bra       0x3d20 <.L557>

00003e48 <.L439>:
    3e48:	80 ef 9f    	mov.b     w0, [w15-24]
    3e4a:	00 44 78    	mov.b     w0, w8
    3e4c:	88 40 78    	mov.b     w8, w1
    3e4e:	6f e8 97    	mov.b     [w15-18], w0
    3e50:	cd f1 07    	rcall     0x21ec <_uwl_mac_superframe_check_gts>
    3e52:	00 04 e0    	cp0.b     w0
    3e54:	74 ff 3a    	bra       NZ, 0x3d3e <.L455>
    3e56:	1e 00 37    	bra       0x3e94 <.L558>

00003e58 <.L437>:
    3e58:	70 00 20    	mov.w     #0x7, w0
    3e5a:	e1 1a 07    	rcall     0x741e <_EE_fp_GetResource>

00003e5c <.bb>:
    3e5c:	81 70 80    	mov.w     0xe10, w1
    3e5e:	92 70 80    	mov.w     0xe12, w2
    3e60:	82 8f 50    	sub.w     w1, w2, [w15]
    3e62:	67 00 32    	bra       Z, 0x3f32 <.L527>
    3e64:	70 70 80    	mov.w     0xe0e, w0
    3e66:	00 80 40    	add.w     w1, w0, w0
    3e68:	81 1f 78    	mov.w     w1, [w15++]
    3e6a:	11 00 09    	repeat    #0x11
    3e6c:	02 80 d8    	div.uw    w0, w2
    3e6e:	01 01 78    	mov.w     w1, w2
    3e70:	cf 00 78    	mov.w     [--w15], w1
    3e72:	a0 70 80    	mov.w     0xe14, w0
    3e74:	00 91 b9    	mul.ss    w2, w0, w2
    3e76:	b4 70 80    	mov.w     0xe16, w4
    3e78:	04 01 41    	add.w     w2, w4, w2
    3e7a:	01 00 e8    	inc.w     w1, w0
    3e7c:	80 70 88    	mov.w     w0, 0xe10
    3e7e:	82 04 78    	mov.w     w2, w9

00003e80 <.eb>:
    3e80:	02 00 e0    	cp0.w     w2
    3e82:	57 00 32    	bra       Z, 0x3f32 <.L527>
    3e84:	88 ef 9f    	mov.b     w8, [w15-24]
    3e86:	74 ff 37    	bra       0x3d70 <.L463>

00003e88 <.L556>:
    3e88:	ef b0 97    	mov.w     [w15-20], w1
    3e8a:	91 02 78    	mov.w     [w1], w5
    3e8c:	80 00 eb    	clr.w     w1
    3e8e:	82 f5 20    	mov.w     #0xf58, w2
    3e90:	63 f5 20    	mov.w     #0xf56, w3
    3e92:	33 ff 37    	bra       0x3cfa <.L444>

00003e94 <.L558>:
    3e94:	60 11 b8    	mul.uu    w2, #0x0, w2
    3e96:	61 0e 20    	mov.w     #0xe6, w1
    3e98:	0c 40 78    	mov.b     w12, w0
    3e9a:	9f 0d 07    	rcall     0x59da <_uwl_MCPS_DATA_confirm>
    3e9c:	90 08 2a    	mov.w     #0xa089, w0
    3e9e:	f6 09 07    	rcall     0x528c <_uwl_debug_print>
    3ea0:	4f 07 78    	mov.w     [--w15], w14
    3ea2:	4f 06 be    	mov.d     [--w15], w12
    3ea4:	4f 05 be    	mov.d     [--w15], w10
    3ea6:	4f 04 be    	mov.d     [--w15], w8
    3ea8:	8f 01 b1    	sub.w     #0x18, w15
    3eaa:	00 00 06    	return    
    3eac:	39 ff 37    	bra       0x3d20 <.L557>

00003eae <.L562>:
    3eae:	0f e8 97    	mov.b     [w15-24], w0
    3eb0:	cb f9 07    	rcall     0x3248 <_uwl_mac_superframe_gts_wakeup>
    3eb2:	d0 0b 2a    	mov.w     #0xa0bd, w0
    3eb4:	eb 09 07    	rcall     0x528c <_uwl_debug_print>
    3eb6:	9f e8 97    	mov.b     [w15-23], w1
    3eb8:	01 04 e0    	cp0.b     w1
    3eba:	bd ff 3a    	bra       NZ, 0x3e36 <.L563>

00003ebc <.L522>:
    3ebc:	70 00 20    	mov.w     #0x7, w0
    3ebe:	8a 1a 07    	rcall     0x73d4 <_EE_fp_ReleaseResource>

00003ec0 <.eb>:
    3ec0:	4f 07 78    	mov.w     [--w15], w14
    3ec2:	4f 06 be    	mov.d     [--w15], w12
    3ec4:	4f 05 be    	mov.d     [--w15], w10
    3ec6:	4f 04 be    	mov.d     [--w15], w8
    3ec8:	8f 01 b1    	sub.w     #0x18, w15
    3eca:	00 00 06    	return    
    3ecc:	29 ff 37    	bra       0x3d20 <.L557>

00003ece <.L559>:
    3ece:	b6 88 ec    	inc2.w    0x8b6, WREG
    3ed0:	e1 0f 50    	sub.w     w0, #0x1, [w15]
    3ed2:	7b ff 3e    	bra       GTU, 0x3dca <.L479>

00003ed4 <.L477>:
    3ed4:	20 00 20    	mov.w     #0x2, w0
    3ed6:	01 00 20    	mov.w     #0x0, w1
    3ed8:	80 b7 9f    	mov.w     w0, [w15-32]
    3eda:	91 b7 9f    	mov.w     w1, [w15-30]
    3edc:	a0 b7 9f    	mov.w     w0, [w15-28]
    3ede:	b1 b7 9f    	mov.w     w1, [w15-26]
    3ee0:	e3 82 44    	add.w     w9, #0x3, w5
    3ee2:	5f b0 97    	mov.w     [w15-22], w0
    3ee4:	e0 af 9f    	mov.w     w0, [w15-36]
    3ee6:	81 45 80    	mov.w     0x8b0, w1
    3ee8:	f1 af 9f    	mov.w     w1, [w15-34]

00003eea <.bb>:
    3eea:	e2 8f 55    	sub.w     w11, #0x2, [w15]
    3eec:	95 00 32    	bra       Z, 0x4018 <.L564>
    3eee:	00 40 eb    	clr.b     w0
    3ef0:	00 01 eb    	clr.w     w2
    3ef2:	e3 8f 55    	sub.w     w11, #0x3, [w15]
    3ef4:	5c 00 32    	bra       Z, 0x3fae <.L565>
    3ef6:	03 04 e0    	cp0.b     w3
    3ef8:	3a 00 32    	bra       Z, 0x3f6e <.L566>

00003efa <.L494>:
    3efa:	01 fe 2f    	mov.w     #0xffe0, w1
    3efc:	01 82 47    	add.w     w15, w1, w4
    3efe:	82 81 42    	add.w     w5, w2, w3
    3f00:	00 01 eb    	clr.w     w2

00003f02 <.L498>:
    3f02:	e4 71 79    	mov.b     [w4+w2], [w3+w2]
    3f04:	02 01 e8    	inc.w     w2, w2
    3f06:	e8 0f 51    	sub.w     w2, #0x8, [w15]
    3f08:	fc ff 3a    	bra       NZ, 0x3f02 <.L498>

00003f0a <.eb>:
    3f0a:	68 44 40    	add.b     w0, #0x8, w8
    3f0c:	08 80 fb    	ze        w8, w0
    3f0e:	00 80 44    	add.w     w9, w0, w0
    3f10:	63 00 40    	add.w     w0, #0x3, w0
    3f12:	ef e9 97    	mov.b     [w15-18], w3
    3f14:	03 81 fb    	ze        w3, w2
    3f16:	8f b8 97    	mov.w     [w15-16], w1
    3f18:	b2 e7 07    	rcall     0xe7e <_memcpy>
    3f1a:	6f ea 97    	mov.b     [w15-18], w4
    3f1c:	84 40 44    	add.b     w8, w4, w1
    3f1e:	e3 c0 40    	add.b     w1, #0x3, w1
    3f20:	c9 08 dd    	sl.w      w1, #0x9, w1
    3f22:	79 38 90    	mov.w     [w9+126], w0
    3f24:	f0 1f b2    	and.w     #0x1ff, w0
    3f26:	01 00 70    	ior.w     w0, w1, w0
    3f28:	f0 3c 98    	mov.w     w0, [w9+126]
    3f2a:	1f e8 97    	mov.b     [w15-23], w0
    3f2c:	00 04 e0    	cp0.b     w0
    3f2e:	7e ff 32    	bra       Z, 0x3e2c <.L520>
    3f30:	be ff 37    	bra       0x3eae <.L562>

00003f32 <.L527>:
    3f32:	70 00 20    	mov.w     #0x7, w0
    3f34:	4f 1a 07    	rcall     0x73d4 <_EE_fp_ReleaseResource>

00003f36 <.eb>:
    3f36:	60 11 b8    	mul.uu    w2, #0x0, w2
    3f38:	11 0e 20    	mov.w     #0xe1, w1
    3f3a:	0c 40 78    	mov.b     w12, w0
    3f3c:	4e 0d 07    	rcall     0x59da <_uwl_MCPS_DATA_confirm>
    3f3e:	4f 07 78    	mov.w     [--w15], w14
    3f40:	4f 06 be    	mov.d     [--w15], w12
    3f42:	4f 05 be    	mov.d     [--w15], w10
    3f44:	4f 04 be    	mov.d     [--w15], w8
    3f46:	8f 01 b1    	sub.w     #0x18, w15
    3f48:	00 00 06    	return    
    3f4a:	ea fe 37    	bra       0x3d20 <.L557>

00003f4c <.L560>:
    3f4c:	e0 fd 2f    	mov.w     #0xffde, w0
    3f4e:	80 80 47    	add.w     w15, w0, w1
    3f50:	00 00 eb    	clr.w     w0

00003f52 <.L503>:
    3f52:	e1 72 78    	mov.b     [w1+w0], [w5+w0]
    3f54:	00 00 e8    	inc.w     w0, w0
    3f56:	e2 0f 50    	sub.w     w0, #0x2, [w15]
    3f58:	fc ff 3a    	bra       NZ, 0x3f52 <.L503>

00003f5a <.eb>:
    3f5a:	e5 80 44    	add.w     w9, #0x5, w1
    3f5c:	00 00 eb    	clr.w     w0

00003f5e <.L505>:
    3f5e:	6f b2 97    	mov.w     [w15-20], w4
    3f60:	e4 70 78    	mov.b     [w4+w0], [w1+w0]
    3f62:	00 00 e8    	inc.w     w0, w0
    3f64:	e2 0f 50    	sub.w     w0, #0x2, [w15]
    3f66:	fb ff 3a    	bra       NZ, 0x3f5e <.L505>
    3f68:	40 c0 b3    	mov.b     #0x4, w0
    3f6a:	42 00 20    	mov.w     #0x4, w2
    3f6c:	39 ff 37    	bra       0x3de0 <.L507>

00003f6e <.L566>:
    3f6e:	e3 fd 2f    	mov.w     #0xffde, w3
    3f70:	83 80 47    	add.w     w15, w3, w1
    3f72:	82 81 42    	add.w     w5, w2, w3
    3f74:	00 01 eb    	clr.w     w2

00003f76 <.L496>:
    3f76:	e1 71 79    	mov.b     [w1+w2], [w3+w2]
    3f78:	02 01 e8    	inc.w     w2, w2
    3f7a:	e2 0f 51    	sub.w     w2, #0x2, [w15]
    3f7c:	fc ff 3a    	bra       NZ, 0x3f76 <.L496>

00003f7e <.eb>:
    3f7e:	00 c0 e8    	inc2.b    w0, w0
    3f80:	00 81 fb    	ze        w0, w2
    3f82:	01 fe 2f    	mov.w     #0xffe0, w1
    3f84:	01 82 47    	add.w     w15, w1, w4
    3f86:	82 81 42    	add.w     w5, w2, w3
    3f88:	00 01 eb    	clr.w     w2
    3f8a:	bb ff 37    	bra       0x3f02 <.L498>

00003f8c <.L561>:
    3f8c:	e0 fd 2f    	mov.w     #0xffde, w0
    3f8e:	80 80 47    	add.w     w15, w0, w1
    3f90:	00 00 eb    	clr.w     w0

00003f92 <.L510>:
    3f92:	e1 72 78    	mov.b     [w1+w0], [w5+w0]
    3f94:	00 00 e8    	inc.w     w0, w0
    3f96:	e2 0f 50    	sub.w     w0, #0x2, [w15]
    3f98:	fc ff 3a    	bra       NZ, 0x3f92 <.L510>

00003f9a <.eb>:
    3f9a:	e5 80 44    	add.w     w9, #0x5, w1
    3f9c:	00 00 eb    	clr.w     w0

00003f9e <.L512>:
    3f9e:	6f b2 97    	mov.w     [w15-20], w4
    3fa0:	e4 70 78    	mov.b     [w4+w0], [w1+w0]
    3fa2:	00 00 e8    	inc.w     w0, w0
    3fa4:	e8 0f 50    	sub.w     w0, #0x8, [w15]
    3fa6:	fb ff 3a    	bra       NZ, 0x3f9e <.L512>
    3fa8:	a0 c0 b3    	mov.b     #0xa, w0
    3faa:	a2 00 20    	mov.w     #0xa, w2
    3fac:	19 ff 37    	bra       0x3de0 <.L507>

00003fae <.L565>:
    3fae:	c1 fd 2f    	mov.w     #0xffdc, w1
    3fb0:	8f 80 40    	add.w     w1, w15, w1
    3fb2:	00 00 eb    	clr.w     w0

00003fb4 <.L490>:
    3fb4:	e1 72 78    	mov.b     [w1+w0], [w5+w0]
    3fb6:	00 00 e8    	inc.w     w0, w0
    3fb8:	e2 0f 50    	sub.w     w0, #0x2, [w15]
    3fba:	fc ff 3a    	bra       NZ, 0x3fb4 <.L490>

00003fbc <.eb>:
    3fbc:	e5 80 44    	add.w     w9, #0x5, w1
    3fbe:	00 00 eb    	clr.w     w0

00003fc0 <.L492>:
    3fc0:	6f b2 97    	mov.w     [w15-20], w4
    3fc2:	e4 70 78    	mov.b     [w4+w0], [w1+w0]
    3fc4:	00 00 e8    	inc.w     w0, w0
    3fc6:	e8 0f 50    	sub.w     w0, #0x8, [w15]
    3fc8:	fb ff 3a    	bra       NZ, 0x3fc0 <.L492>
    3fca:	a0 c0 b3    	mov.b     #0xa, w0
    3fcc:	a2 00 20    	mov.w     #0xa, w2

00003fce <.eb>:
    3fce:	03 04 e0    	cp0.b     w3
    3fd0:	94 ff 3a    	bra       NZ, 0x3efa <.L494>
    3fd2:	cd ff 37    	bra       0x3f6e <.L566>

00003fd4 <.L462>:
    3fd4:	60 11 b8    	mul.uu    w2, #0x0, w2
    3fd6:	61 0e 20    	mov.w     #0xe6, w1
    3fd8:	0c 40 78    	mov.b     w12, w0
    3fda:	ff 0c 07    	rcall     0x59da <_uwl_MCPS_DATA_confirm>
    3fdc:	30 0a 2a    	mov.w     #0xa0a3, w0
    3fde:	56 09 07    	rcall     0x528c <_uwl_debug_print>
    3fe0:	4f 07 78    	mov.w     [--w15], w14
    3fe2:	4f 06 be    	mov.d     [--w15], w12
    3fe4:	4f 05 be    	mov.d     [--w15], w10
    3fe6:	4f 04 be    	mov.d     [--w15], w8
    3fe8:	8f 01 b1    	sub.w     #0x18, w15
    3fea:	00 00 06    	return    
    3fec:	99 fe 37    	bra       0x3d20 <.L557>

00003fee <.L457>:
    3fee:	08 85 fb    	ze        w8, w10
    3ff0:	0a 00 45    	add.w     w10, w10, w0
    3ff2:	22 91 20    	mov.w     #0x912, w2
    3ff4:	e0 00 79    	mov.w     [w0+w2], w1
    3ff6:	a0 e2 20    	mov.w     #0xe2a, w0
    3ff8:	9a 0e 07    	rcall     0x5d2e <_list_insert>
    3ffa:	80 04 78    	mov.w     w0, w9
    3ffc:	00 00 e0    	cp0.w     w0
    3ffe:	ea ff 32    	bra       Z, 0x3fd4
    4000:	e6 4f 54    	sub.b     w8, #0x6, [w15]
    4002:	b6 fe 3e    	bra       GTU, 0x3d70 <.L463>

00004004 <.L542>:
    4004:	8a 00 45    	add.w     w10, w10, w1
    4006:	23 91 20    	mov.w     #0x912, w3
    4008:	61 80 79    	mov.w     [w1+w3], w0
    400a:	00 00 e8    	inc.w     w0, w0
    400c:	80 b0 79    	mov.w     w0, [w1+w3]
    400e:	08 44 e8    	inc.b     w8, w8
    4010:	e7 4f 54    	sub.b     w8, #0x7, [w15]
    4012:	ae fe 32    	bra       Z, 0x3d70 <.L463>
    4014:	08 85 fb    	ze        w8, w10
    4016:	f6 ff 37    	bra       0x4004 <.L542>

00004018 <.L564>:
    4018:	c1 fd 2f    	mov.w     #0xffdc, w1
    401a:	8f 80 40    	add.w     w1, w15, w1
    401c:	00 00 eb    	clr.w     w0

0000401e <.L483>:
    401e:	e1 72 78    	mov.b     [w1+w0], [w5+w0]
    4020:	00 00 e8    	inc.w     w0, w0
    4022:	e2 0f 50    	sub.w     w0, #0x2, [w15]
    4024:	fc ff 3a    	bra       NZ, 0x401e <.L483>

00004026 <.eb>:
    4026:	e5 80 44    	add.w     w9, #0x5, w1
    4028:	00 00 eb    	clr.w     w0

0000402a <.L485>:
    402a:	6f b2 97    	mov.w     [w15-20], w4
    402c:	e4 70 78    	mov.b     [w4+w0], [w1+w0]
    402e:	00 00 e8    	inc.w     w0, w0
    4030:	e2 0f 50    	sub.w     w0, #0x2, [w15]
    4032:	fb ff 3a    	bra       NZ, 0x402a <.L485>
    4034:	40 c0 b3    	mov.b     #0x4, w0
    4036:	42 00 20    	mov.w     #0x4, w2

00004038 <.eb>:
    4038:	03 04 e0    	cp0.b     w3
    403a:	5f ff 3a    	bra       NZ, 0x3efa <.L494>
    403c:	98 ff 37    	bra       0x3f6e <.L566>

0000403e <_uwl_mac_create_beacon>:
    403e:	0a 00 fa    	lnk       #0xa
    4040:	88 9f be    	mov.d     w8, [w15++]
    4042:	8a 1f 78    	mov.w     w10, [w15++]
    4044:	00 04 78    	mov.w     w0, w8
    4046:	f2 07 20    	mov.w     #0x7f, w2
    4048:	80 00 eb    	clr.w     w1
    404a:	12 e7 07    	rcall     0xe70 <_memset>

0000404c <.bb>:
    404c:	b4 08 d5    	lsr.w     0x8b4, WREG
    404e:	61 00 60    	and.w     w0, #0x1, w0
    4050:	c3 00 dd    	sl.w      w0, #0x3, w1
    4052:	01 4c 78    	mov.b     w1, [w8]
    4054:	44 00 dd    	sl.w      w0, #0x4, w0
    4056:	00 74 a0    	bset.b    w0, #0x7
    4058:	10 44 98    	mov.b     w0, [w8+1]

0000405a <.eb>:
    405a:	98 c8 bf    	mov.b     0x898, WREG
    405c:	20 44 98    	mov.b     w0, [w8+2]
    405e:	00 40 e8    	inc.b     w0, w0
    4060:	98 e8 b7    	mov.b     WREG, 0x898
    4062:	b0 45 80    	mov.w     0x8b6, w0
    4064:	e2 0f 40    	add.w     w0, #0x2, [w15]
    4066:	51 00 32    	bra       Z, 0x410a <.L593>
    4068:	e3 00 44    	add.w     w8, #0x3, w1
    406a:	80 45 80    	mov.w     0x8b0, w0
    406c:	80 bf 9f    	mov.w     w0, [w15-16]

0000406e <.bb>:
    406e:	70 81 57    	sub.w     w15, #0x10, w2
    4070:	00 00 eb    	clr.w     w0

00004072 <.L577>:
    4072:	e2 70 78    	mov.b     [w2+w0], [w1+w0]
    4074:	00 00 e8    	inc.w     w0, w0
    4076:	e2 0f 50    	sub.w     w0, #0x2, [w15]
    4078:	fc ff 3a    	bra       NZ, 0x4072 <.L577>

0000407a <.eb>:
    407a:	62 8b 20    	mov.w     #0x8b6, w2
    407c:	e5 00 44    	add.w     w8, #0x5, w1
    407e:	00 00 eb    	clr.w     w0

00004080 <.L579>:
    4080:	e2 70 78    	mov.b     [w2+w0], [w1+w0]
    4082:	00 00 e8    	inc.w     w0, w0
    4084:	e2 0f 50    	sub.w     w0, #0x2, [w15]
    4086:	fc ff 3a    	bra       NZ, 0x4080 <.L579>
    4088:	40 00 20    	mov.w     #0x4, w0
    408a:	69 c0 b3    	mov.b     #0x6, w9

0000408c <.eb>:
    408c:	62 44 80    	mov.w     0x88c, w2
    408e:	44 71 80    	mov.w     0xe28, w4
    4090:	04 02 d1    	lsr.w     w4, w4
    4092:	21 71 80    	mov.w     0xe24, w1
    4094:	c3 08 de    	lsr.w     w1, #0x3, w1
    4096:	ff c0 60    	and.b     w1, #0x1f, w1
    4098:	81 40 e9    	dec.b     w1, w1
    409a:	80 01 44    	add.w     w8, w0, w3

0000409c <.bb>:
    409c:	b8 c8 bf    	mov.b     0x8b8, WREG
    409e:	44 00 dd    	sl.w      w0, #0x4, w0
    40a0:	93 48 b7    	ior.b     0x893, WREG
    40a2:	b0 41 98    	mov.b     w0, [w3+3]
    40a4:	61 00 62    	and.w     w4, #0x1, w0
    40a6:	46 00 dd    	sl.w      w0, #0x6, w0
    40a8:	80 c0 70    	ior.b     w1, w0, w1
    40aa:	42 11 de    	lsr.w     w2, #0x2, w2
    40ac:	02 08 b2    	and.w     #0x80, w2
    40ae:	82 c0 70    	ior.b     w1, w2, w1
    40b0:	c1 41 98    	mov.b     w1, [w3+4]

000040b2 <.eb>:
    40b2:	09 80 fb    	ze        w9, w0
    40b4:	00 00 44    	add.w     w8, w0, w0
    40b6:	63 00 40    	add.w     w0, #0x3, w0
    40b8:	ac 10 07    	rcall     0x6212 <_uwl_mac_gts_set_gts_fields>
    40ba:	09 40 40    	add.b     w0, w9, w0

000040bc <.bb>:
    40bc:	80 80 fb    	ze        w0, w1
    40be:	81 00 44    	add.w     w8, w1, w1
    40c0:	00 41 eb    	clr.b     w2
    40c2:	b2 40 98    	mov.b     w2, [w1+3]

000040c4 <.eb>:
    40c4:	80 44 e8    	inc.b     w0, w9
    40c6:	09 80 fb    	ze        w9, w0
    40c8:	00 00 44    	add.w     w8, w0, w0
    40ca:	63 05 40    	add.w     w0, #0x3, w10

000040cc <.bb>:
    40cc:	30 00 20    	mov.w     #0x3, w0
    40ce:	a7 19 07    	rcall     0x741e <_EE_fp_GetResource>

000040d0 <.eb>:
    40d0:	28 80 20    	mov.w     #0x802, w8
    40d2:	18 44 78    	mov.b     [w8], w8
    40d4:	08 04 e0    	cp0.b     w8
    40d6:	09 00 3a    	bra       NZ, 0x40ea <.L594>

000040d8 <.L581>:
    40d8:	30 00 20    	mov.w     #0x3, w0
    40da:	7c 19 07    	rcall     0x73d4 <_EE_fp_ReleaseResource>
    40dc:	08 c0 44    	add.b     w9, w8, w0
    40de:	63 40 40    	add.b     w0, #0x3, w0
    40e0:	00 80 fb    	ze        w0, w0

000040e2 <.eb>:
    40e2:	4f 05 78    	mov.w     [--w15], w10
    40e4:	4f 04 be    	mov.d     [--w15], w8
    40e6:	00 80 fa    	ulnk      
    40e8:	00 00 06    	return    

000040ea <.L594>:
    40ea:	08 81 fb    	ze        w8, w2
    40ec:	81 df 22    	mov.w     #0x2df8, w1
    40ee:	0a 00 78    	mov.w     w10, w0
    40f0:	c6 e6 07    	rcall     0xe7e <_memcpy>
    40f2:	28 80 20    	mov.w     #0x802, w8
    40f4:	18 44 78    	mov.b     [w8], w8

000040f6 <.bb>:
    40f6:	30 00 20    	mov.w     #0x3, w0
    40f8:	6d 19 07    	rcall     0x73d4 <_EE_fp_ReleaseResource>
    40fa:	08 c0 44    	add.b     w9, w8, w0
    40fc:	63 40 40    	add.b     w0, #0x3, w0
    40fe:	00 80 fb    	ze        w0, w0

00004100 <.eb>:
    4100:	4f 05 78    	mov.w     [--w15], w10
    4102:	4f 04 be    	mov.d     [--w15], w8
    4104:	00 80 fa    	ulnk      
    4106:	00 00 06    	return    
    4108:	f0 ff 37    	bra       0x40ea <.L594>

0000410a <.L593>:
    410a:	20 00 20    	mov.w     #0x2, w0
    410c:	01 00 20    	mov.w     #0x0, w1
    410e:	90 bf 9f    	mov.w     w0, [w15-14]
    4110:	a1 bf 9f    	mov.w     w1, [w15-12]
    4112:	b0 bf 9f    	mov.w     w0, [w15-10]
    4114:	c1 bf 9f    	mov.w     w1, [w15-8]
    4116:	e3 00 44    	add.w     w8, #0x3, w1
    4118:	80 45 80    	mov.w     0x8b0, w0
    411a:	80 bf 9f    	mov.w     w0, [w15-16]

0000411c <.bb>:
    411c:	70 81 57    	sub.w     w15, #0x10, w2
    411e:	00 00 eb    	clr.w     w0

00004120 <.L572>:
    4120:	e2 70 78    	mov.b     [w2+w0], [w1+w0]
    4122:	00 00 e8    	inc.w     w0, w0
    4124:	e2 0f 50    	sub.w     w0, #0x2, [w15]
    4126:	fc ff 3a    	bra       NZ, 0x4120 <.L572>

00004128 <.eb>:
    4128:	6e 81 57    	sub.w     w15, #0xe, w2
    412a:	e5 00 44    	add.w     w8, #0x5, w1
    412c:	00 00 eb    	clr.w     w0

0000412e <.L574>:
    412e:	e2 70 78    	mov.b     [w2+w0], [w1+w0]
    4130:	00 00 e8    	inc.w     w0, w0
    4132:	e8 0f 50    	sub.w     w0, #0x8, [w15]
    4134:	fc ff 3a    	bra       NZ, 0x412e <.L574>
    4136:	a0 00 20    	mov.w     #0xa, w0
    4138:	c9 c0 b3    	mov.b     #0xc, w9

0000413a <.eb>:
    413a:	62 44 80    	mov.w     0x88c, w2
    413c:	44 71 80    	mov.w     0xe28, w4
    413e:	04 02 d1    	lsr.w     w4, w4
    4140:	21 71 80    	mov.w     0xe24, w1
    4142:	c3 08 de    	lsr.w     w1, #0x3, w1
    4144:	ff c0 60    	and.b     w1, #0x1f, w1
    4146:	81 40 e9    	dec.b     w1, w1
    4148:	80 01 44    	add.w     w8, w0, w3

0000414a <.bb>:
    414a:	b8 c8 bf    	mov.b     0x8b8, WREG
    414c:	44 00 dd    	sl.w      w0, #0x4, w0
    414e:	93 48 b7    	ior.b     0x893, WREG
    4150:	b0 41 98    	mov.b     w0, [w3+3]
    4152:	61 00 62    	and.w     w4, #0x1, w0
    4154:	46 00 dd    	sl.w      w0, #0x6, w0
    4156:	80 c0 70    	ior.b     w1, w0, w1
    4158:	42 11 de    	lsr.w     w2, #0x2, w2
    415a:	02 08 b2    	and.w     #0x80, w2
    415c:	82 c0 70    	ior.b     w1, w2, w1
    415e:	c1 41 98    	mov.b     w1, [w3+4]

00004160 <.eb>:
    4160:	09 80 fb    	ze        w9, w0
    4162:	00 00 44    	add.w     w8, w0, w0
    4164:	63 00 40    	add.w     w0, #0x3, w0
    4166:	55 10 07    	rcall     0x6212 <_uwl_mac_gts_set_gts_fields>
    4168:	09 40 40    	add.b     w0, w9, w0

0000416a <.bb>:
    416a:	80 80 fb    	ze        w0, w1
    416c:	81 00 44    	add.w     w8, w1, w1
    416e:	00 41 eb    	clr.b     w2
    4170:	b2 40 98    	mov.b     w2, [w1+3]

00004172 <.eb>:
    4172:	80 44 e8    	inc.b     w0, w9
    4174:	09 80 fb    	ze        w9, w0
    4176:	00 00 44    	add.w     w8, w0, w0
    4178:	63 05 40    	add.w     w0, #0x3, w10

0000417a <.bb>:
    417a:	30 00 20    	mov.w     #0x3, w0
    417c:	50 19 07    	rcall     0x741e <_EE_fp_GetResource>

0000417e <.eb>:
    417e:	28 80 20    	mov.w     #0x802, w8
    4180:	18 44 78    	mov.b     [w8], w8
    4182:	08 04 e0    	cp0.b     w8
    4184:	a9 ff 32    	bra       Z, 0x40d8 <.L581>
    4186:	b1 ff 37    	bra       0x40ea <.L594>

00004188 <_Delay_Us>:
    4188:	00 00 e8    	inc.w     w0, w0
    418a:	80 79 88    	mov.w     w0, 0xf30

0000418c <outer1>:
    418c:	30 2f ed    	dec.w     0xf30
    418e:	30 0f e2    	cp0.w     0xf30
    4190:	05 00 32    	bra       Z, 0x419c <done1>
    4192:	dc 05 08    	do        #0x5dc, 0x4198 <inner1>
    4194:	01 00 00 
    4196:	00 00 00    	nop       

00004198 <inner1>:
    4198:	00 00 00    	nop       
    419a:	f8 ff 37    	bra       0x418c <outer1>

0000419c <done1>:
    419c:	00 00 06    	return    

0000419e <_Delay>:
    419e:	00 00 e8    	inc.w     w0, w0
    41a0:	80 79 88    	mov.w     w0, 0xf30

000041a2 <outer>:
    41a2:	30 2f ed    	dec.w     0xf30
    41a4:	30 0f e2    	cp0.w     0xf30
    41a6:	05 00 32    	bra       Z, 0x41b2 <done>
    41a8:	80 0c 08    	do        #0xc80, 0x41ae <inner>
    41aa:	01 00 00 
    41ac:	00 00 00    	nop       

000041ae <inner>:
    41ae:	00 00 00    	nop       
    41b0:	f8 ff 37    	bra       0x41a2 <outer>

000041b2 <done>:
    41b2:	00 00 06    	return    

000041b4 <_EE_lcd_putc>:
    41b4:	cb 42 a8    	bset.b    0x2cb, #0x2
    41b6:	01 f0 2f    	mov.w     #0xff00, w1
    41b8:	80 00 fd    	exch      w0, w1
    41ba:	c4 22 b6    	and.w     0x2c4
    41bc:	80 00 fd    	exch      w0, w1
    41be:	00 80 fb    	ze        w0, w0
    41c0:	c4 22 b7    	ior.w     0x2c4
    41c2:	cb 22 a8    	bset.b    0x2cb, #0x1
	...
    41ca:	cb 22 a9    	bclr.b    0x2cb, #0x1
    41cc:	cb 42 a9    	bclr.b    0x2cb, #0x2
    41ce:	70 00 20    	mov.w     #0x7, w0
    41d0:	db ff 37    	bra       0x4188 <_Delay_Us>

000041d2 <_EE_buzzer_stop>:
    41d2:	dc 2e ef    	clr.w     0xedc
    41d4:	de 2e ef    	clr.w     0xede
    41d6:	11 e1 a9    	bclr.b    0x111, #0x7
    41d8:	00 00 06    	return    

000041da <_ISR2__QEIInterrupt>:
    41da:	42 c0 bf    	mov.b     0x42, WREG
    41dc:	7f 40 60    	and.b     w0, #0x1f, w0
    41de:	01 cc b3    	mov.b     #0xc0, w1
    41e0:	01 40 70    	ior.b     w0, w1, w0
    41e2:	42 e0 b7    	mov.b     WREG, 0x42

000041e4 <.eb>:
    41e4:	8b 40 a9    	bclr.b    0x8b, #0x2
    41e6:	21 0f 80    	mov.w     0x1e4, w1
    41e8:	e1 c1 bf    	mov.b     0x1e1, WREG
    41ea:	43 00 de    	lsr.w     w0, #0x3, w0
    41ec:	61 00 60    	and.w     w0, #0x1, w0

000041ee <.bb>:
    41ee:	e1 4f 50    	sub.b     w0, #0x1, [w15]
    41f0:	10 00 32    	bra       Z, 0x4212 <.L29>
    41f2:	00 04 e0    	cp0.b     w0
    41f4:	09 00 32    	bra       Z, 0x4208 <.L30>

000041f6 <.L20>:
    41f6:	d0 6e ef    	clr.b     0xed0

000041f8 <.L22>:
    41f8:	42 c0 bf    	mov.b     0x42, WREG
    41fa:	7f 40 60    	and.b     w0, #0x1f, w0
    41fc:	42 e0 b7    	mov.b     WREG, 0x42

000041fe <.eb>:
    41fe:	70 76 80    	mov.w     0xece, w0
    4200:	00 00 e0    	cp0.w     w0
    4202:	01 00 32    	bra       Z, 0x4206 <.L27>
    4204:	00 00 01    	call      w0

00004206 <.L27>:
    4206:	00 00 06    	return    

00004208 <.L30>:
    4208:	e1 8f 40    	add.w     w1, #0x1, [w15]
    420a:	f5 ff 3a    	bra       NZ, 0x41f6 <.L20>
    420c:	01 00 78    	mov.w     w1, w0
    420e:	d0 ee b7    	mov.b     WREG, 0xed0
    4210:	f3 ff 37    	bra       0x41f8 <.L22>

00004212 <.L29>:
    4212:	01 00 e0    	cp0.w     w1
    4214:	f0 ff 3a    	bra       NZ, 0x41f6 <.L20>
    4216:	d0 ee b7    	mov.b     WREG, 0xed0
    4218:	ef ff 37    	bra       0x41f8 <.L22>

0000421a <__QEIInterrupt>:
    421a:	36 00 f8    	push      0x36
    421c:	80 9f be    	mov.d     w0, [w15++]
    421e:	82 9f be    	mov.d     w2, [w15++]
    4220:	84 9f be    	mov.d     w4, [w15++]
    4222:	86 9f be    	mov.d     w6, [w15++]
    4224:	34 00 f8    	push      0x34
    4226:	00 00 20    	mov.w     #0x0, w0
    4228:	a0 01 88    	mov.w     w0, 0x34

0000422a <.bb>:
    422a:	10 02 80    	mov.w     0x42, w0
    422c:	42 c0 bf    	mov.b     0x42, WREG
    422e:	7f 40 60    	and.b     w0, #0x1f, w0
    4230:	01 cc b3    	mov.b     #0xc0, w1
    4232:	01 40 70    	ior.b     w0, w1, w0
    4234:	42 e0 b7    	mov.b     WREG, 0x42

00004236 <.eb>:
    4236:	10 00 20    	mov.w     #0x1, w0
    4238:	d0 79 88    	mov.w     w0, 0xf3a

0000423a <.eb>:
    423a:	cf ff 07    	rcall     0x41da <_ISR2__QEIInterrupt>
    423c:	3a 2f ef    	clr.w     0xf3a

0000423e <.bb>:
    423e:	28 1a 07    	rcall     0x7690 <_EE_IRQ_end_instance>
    4240:	c0 79 80    	mov.w     0xf38, w0
    4242:	00 00 e0    	cp0.w     w0
    4244:	03 00 35    	bra       LT, 0x424c <.L35>

00004246 <.L36>:
    4246:	36 1a 07    	rcall     0x76b4 <_EE_std_run_task_code>
    4248:	00 00 e0    	cp0.w     w0
    424a:	fd ff 3d    	bra       GE, 0x4246 <.L36>

0000424c <.L35>:
    424c:	34 00 f9    	pop       0x34
    424e:	4f 03 be    	mov.d     [--w15], w6
    4250:	4f 02 be    	mov.d     [--w15], w4
    4252:	4f 01 be    	mov.d     [--w15], w2
    4254:	4f 00 be    	mov.d     [--w15], w0
    4256:	36 00 f9    	pop       0x36
    4258:	00 40 06    	retfie    

0000425a <_EE_buzzer_start>:
    425a:	88 9f be    	mov.d     w8, [w15++]
    425c:	8a 1f 78    	mov.w     w10, [w15++]
    425e:	00 04 be    	mov.d     w0, w8
    4260:	50 06 b1    	sub.w     #0x65, w0
    4262:	01 80 b1    	subb.w    #0x0, w1
    4264:	b2 db 24    	mov.w     #0x4dbb, w2
    4266:	82 0f 50    	sub.w     w0, w2, [w15]
    4268:	e0 8f 58    	subb.w    w1, #0x0, [w15]
    426a:	22 00 3e    	bra       GTU, 0x42b0 <.L41>

0000426c <.bb>:
    426c:	08 01 be    	mov.d     w8, w2
    426e:	00 24 24    	mov.w     #0x4240, w0
    4270:	f1 00 20    	mov.w     #0xf, w1
    4272:	f0 e0 07    	rcall     0x454
    4274:	00 05 78    	mov.w     w0, w10
    4276:	e8 76 88    	mov.w     w8, 0xedc
    4278:	f9 76 88    	mov.w     w9, 0xede
    427a:	62 14 07    	rcall     0x6b40 <_EE_get_peripheral_clock>
    427c:	00 02 be    	mov.d     w0, w4
    427e:	70 3e 20    	mov.w     #0x3e7, w0
    4280:	80 0f 55    	sub.w     w10, w0, [w15]
    4282:	1b 00 3e    	bra       GTU, 0x42ba <.L49>
    4284:	61 54 b8    	mul.uu    w10, #0x1, w8
    4286:	82 3e 20    	mov.w     #0x3e8, w2
    4288:	03 00 20    	mov.w     #0x0, w3
    428a:	04 00 be    	mov.d     w4, w0
    428c:	e3 e0 07    	rcall     0x454
    428e:	00 02 be    	mov.d     w0, w4
    4290:	04 40 b8    	mul.uu    w8, w4, w0
    4292:	05 c4 b9    	mul.ss    w8, w5, w8
    4294:	88 80 40    	add.w     w1, w8, w1
    4296:	82 3e 20    	mov.w     #0x3e8, w2
    4298:	03 00 20    	mov.w     #0x0, w3
    429a:	dc e0 07    	rcall     0x454
    429c:	00 01 be    	mov.d     w0, w2
    429e:	62 08 88    	mov.w     w2, 0x10c
    42a0:	0c 01 d5    	lsr.w     0x10c, WREG
    42a2:	10 0c 88    	mov.w     w0, 0x182
    42a4:	0c 01 d5    	lsr.w     0x10c, WREG
    42a6:	00 0c 88    	mov.w     w0, 0x180
    42a8:	11 e1 a8    	bset.b    0x111, #0x7

000042aa <.L47>:
    42aa:	4f 05 78    	mov.w     [--w15], w10
    42ac:	4f 04 be    	mov.d     [--w15], w8
    42ae:	00 00 06    	return    

000042b0 <.L41>:
    42b0:	90 ff 07    	rcall     0x41d2 <_EE_buzzer_stop>
    42b2:	4f 05 78    	mov.w     [--w15], w10
    42b4:	4f 04 be    	mov.d     [--w15], w8
    42b6:	00 00 06    	return    
    42b8:	fb ff 37    	bra       0x42b0 <.L41>

000042ba <.L49>:
    42ba:	88 3e 20    	mov.w     #0x3e8, w8
    42bc:	11 00 09    	repeat    #0x11
    42be:	08 85 d8    	div.uw    w10, w8
    42c0:	00 04 78    	mov.w     w0, w8
    42c2:	09 00 20    	mov.w     #0x0, w9
    42c4:	82 3e 20    	mov.w     #0x3e8, w2
    42c6:	03 00 20    	mov.w     #0x0, w3
    42c8:	04 00 be    	mov.d     w4, w0
    42ca:	c4 e0 07    	rcall     0x454
    42cc:	00 41 b8    	mul.uu    w8, w0, w2
    42ce:	62 08 88    	mov.w     w2, 0x10c
    42d0:	0c 01 d5    	lsr.w     0x10c, WREG
    42d2:	10 0c 88    	mov.w     w0, 0x182
    42d4:	0c 01 d5    	lsr.w     0x10c, WREG
    42d6:	00 0c 88    	mov.w     w0, 0x180
    42d8:	11 e1 a8    	bset.b    0x111, #0x7
    42da:	e7 ff 37    	bra       0x42aa <.L47>

000042dc <_EE_buzzer_init>:
    42dc:	84 c1 bf    	mov.b     0x184, WREG
    42de:	81 cf b3    	mov.b     #0xf8, w1
    42e0:	01 40 60    	and.b     w0, w1, w0
    42e2:	84 e1 b7    	mov.b     WREG, 0x184
    42e4:	00 01 eb    	clr.w     w2
    42e6:	12 0c 88    	mov.w     w2, 0x182
    42e8:	02 0c 88    	mov.w     w2, 0x180
    42ea:	84 61 a9    	bclr.b    0x184, #0x3
    42ec:	84 c1 bf    	mov.b     0x184, WREG
    42ee:	01 40 60    	and.b     w0, w1, w0
    42f0:	60 40 b3    	ior.b     #0x6, w0
    42f2:	84 e1 b7    	mov.b     WREG, 0x184
    42f4:	11 e1 a9    	bclr.b    0x111, #0x7
    42f6:	10 21 a9    	bclr.b    0x110, #0x1
    42f8:	10 c1 a9    	bclr.b    0x110, #0x6
    42fa:	10 c1 bf    	mov.b     0x110, WREG
    42fc:	f1 cc b3    	mov.b     #0xcf, w1
    42fe:	01 40 60    	and.b     w0, w1, w0
    4300:	00 44 a0    	bset.b    w0, #0x4
    4302:	10 e1 b7    	mov.b     WREG, 0x110
    4304:	32 08 88    	mov.w     w2, 0x106
    4306:	1c 14 07    	rcall     0x6b40 <_EE_get_peripheral_clock>
    4308:	82 3e 20    	mov.w     #0x3e8, w2
    430a:	03 00 20    	mov.w     #0x0, w3
    430c:	a3 e0 07    	rcall     0x454
    430e:	00 02 be    	mov.d     w0, w4
    4310:	42 1f 20    	mov.w     #0x1f4, w2
    4312:	02 00 b8    	mul.uu    w0, w2, w0
    4314:	02 a9 b9    	mul.ss    w5, w2, w2
    4316:	81 00 41    	add.w     w2, w1, w1
    4318:	82 3e 20    	mov.w     #0x3e8, w2
    431a:	03 00 20    	mov.w     #0x0, w3
    431c:	9b e0 07    	rcall     0x454
    431e:	60 08 88    	mov.w     w0, 0x10c
    4320:	0c 01 d5    	lsr.w     0x10c, WREG
    4322:	10 0c 88    	mov.w     w0, 0x182
    4324:	0c 01 d5    	lsr.w     0x10c, WREG
    4326:	00 0c 88    	mov.w     w0, 0x180
    4328:	94 e0 a9    	bclr.b    0x94, #0x7
    432a:	00 7d 20    	mov.w     #0x7d0, w0
    432c:	e0 76 88    	mov.w     w0, 0xedc
    432e:	de 2e ef    	clr.w     0xede
    4330:	00 00 06    	return    

00004332 <_EE_usb_init>:
    4332:	cd 4e e2    	cp0.b     0xecd
    4334:	01 00 32    	bra       Z, 0x4338 <.L61>
    4336:	00 00 06    	return    

00004338 <.L61>:
    4338:	c1 c2 a9    	bclr.b    0x2c1, #0x6
    433a:	c5 c2 a9    	bclr.b    0x2c5, #0x6
    433c:	48 22 ef    	clr.w     0x248
    433e:	43 82 a9    	bclr.b    0x243, #0x4
    4340:	43 62 a9    	bclr.b    0x243, #0x3
    4342:	43 42 a9    	bclr.b    0x243, #0x2
    4344:	43 22 a9    	bclr.b    0x243, #0x1
    4346:	43 02 a9    	bclr.b    0x243, #0x0
    4348:	42 c2 a9    	bclr.b    0x242, #0x6
    434a:	42 a2 a9    	bclr.b    0x242, #0x5
    434c:	42 e2 a9    	bclr.b    0x242, #0x7
    434e:	40 c2 a9    	bclr.b    0x240, #0x6
    4350:	41 e2 a8    	bset.b    0x241, #0x7
    4352:	85 40 a9    	bclr.b    0x85, #0x2
    4354:	95 40 a9    	bclr.b    0x95, #0x2
    4356:	80 23 ef    	clr.w     0x380
    4358:	81 c3 a8    	bset.b    0x381, #0x6
    435a:	81 a3 a8    	bset.b    0x381, #0x5
    435c:	80 c3 bf    	mov.b     0x380, WREG
    435e:	c1 cf b3    	mov.b     #0xfc, w1
    4360:	01 40 60    	and.b     w0, w1, w0
    4362:	00 04 a0    	bset.b    w0, #0x0
    4364:	80 e3 b7    	mov.b     WREG, 0x380
    4366:	a2 00 20    	mov.w     #0xa, w2
    4368:	12 1c 88    	mov.w     w2, 0x382
    436a:	81 24 20    	mov.w     #0x248, w1
    436c:	41 1c 88    	mov.w     w1, 0x388
    436e:	00 78 20    	mov.w     #0x780, w0
    4370:	20 1c 88    	mov.w     w0, 0x384
    4372:	81 e3 a9    	bclr.b    0x381, #0x7
    4374:	84 80 a9    	bclr.b    0x84, #0x4
    4376:	94 80 a9    	bclr.b    0x94, #0x4
    4378:	8c 23 ef    	clr.w     0x38c
    437a:	8d c3 a8    	bset.b    0x38d, #0x6
    437c:	72 1c 88    	mov.w     w2, 0x38e
    437e:	a1 1c 88    	mov.w     w1, 0x394
    4380:	00 7c 20    	mov.w     #0x7c0, w0
    4382:	80 1c 88    	mov.w     w0, 0x390
    4384:	f0 03 20    	mov.w     #0x3f, w0
    4386:	b0 1c 88    	mov.w     w0, 0x396
    4388:	85 c0 a9    	bclr.b    0x85, #0x6
    438a:	95 c0 a8    	bset.b    0x95, #0x6
    438c:	8d e3 a8    	bset.b    0x38d, #0x7
    438e:	02 0f 20    	mov.w     #0xf0, w2
    4390:	80 00 eb    	clr.w     w1
    4392:	c0 f8 22    	mov.w     #0x2f8c, w0
    4394:	6d e5 07    	rcall     0xe70 <_memset>
    4396:	c8 2e ef    	clr.w     0xec8
    4398:	ca 2e ef    	clr.w     0xeca
    439a:	c6 2e ef    	clr.w     0xec6
    439c:	cc 6e ef    	clr.b     0xecc
    439e:	10 c0 b3    	mov.b     #0x1, w0
    43a0:	cd ee b7    	mov.b     WREG, 0xecd
    43a2:	00 00 06    	return    

000043a4 <_EE_usb_write>:
    43a4:	88 9f be    	mov.d     w8, [w15++]
    43a6:	8a 9f be    	mov.d     w10, [w15++]
    43a8:	8c 1f 78    	mov.w     w12, [w15++]
    43aa:	00 05 78    	mov.w     w0, w10
    43ac:	01 04 78    	mov.w     w1, w8
    43ae:	cd 4e e2    	cp0.b     0xecd
    43b0:	05 00 3a    	bra       NZ, 0x43bc <.L78>

000043b2 <.L64>:
    43b2:	00 80 eb    	setm.w    w0

000043b4 <.L72>:
    43b4:	4f 06 78    	mov.w     [--w15], w12
    43b6:	4f 05 be    	mov.d     [--w15], w10
    43b8:	4f 04 be    	mov.d     [--w15], w8
    43ba:	00 00 06    	return    

000043bc <.L78>:
    43bc:	81 00 e9    	dec.w     w1, w1
    43be:	02 f0 2f    	mov.w     #0xff00, w2
    43c0:	b0 03 20    	mov.w     #0x3b, w0
    43c2:	80 8f 50    	sub.w     w1, w0, [w15]
    43c4:	f6 ff 3e    	bra       GTU, 0x43b2 <.L64>

000043c6 <.L67>:
    43c6:	c5 c2 bf    	mov.b     0x2c5, WREG
    43c8:	01 c4 b3    	mov.b     #0x40, w1
    43ca:	81 44 60    	and.b     w0, w1, w9
    43cc:	04 00 32    	bra       Z, 0x43d6 <.L79>
    43ce:	02 01 e8    	inc.w     w2, w2
    43d0:	fa ff 3a    	bra       NZ, 0x43c6 <.L67>
    43d2:	00 80 eb    	setm.w    w0
    43d4:	ef ff 37    	bra       0x43b4 <.L72>

000043d6 <.L79>:
    43d6:	0c f8 27    	mov.w     #0x7f80, w12
    43d8:	8c 05 78    	mov.w     w12, w11
    43da:	02 04 20    	mov.w     #0x40, w2
    43dc:	80 00 eb    	clr.w     w1
    43de:	0c 00 78    	mov.w     w12, w0
    43e0:	47 e5 07    	rcall     0xe70 <_memset>
    43e2:	00 fc 83    	mov.w     0x7f80, w0
    43e4:	f1 0f 2e    	mov.w     #0xe0ff, w1
    43e6:	01 00 60    	and.w     w0, w1, w0
    43e8:	01 50 21    	mov.w     #0x1500, w1
    43ea:	01 00 70    	ior.w     w0, w1, w0
    43ec:	00 d0 a1    	bclr.w    w0, #0xd
    43ee:	00 e0 a0    	bset.w    w0, #0xe
    43f0:	00 f0 a1    	bclr.w    w0, #0xf
    43f2:	00 fc 8b    	mov.w     w0, 0x7f80
    43f4:	10 fc 83    	mov.w     0x7f82, w0
    43f6:	ca 40 dd    	sl.w      w8, #0xa, w1
    43f8:	00 3e b2    	and.w     #0x3e0, w0
    43fa:	01 00 70    	ior.w     w0, w1, w0
    43fc:	10 fc 8b    	mov.w     w0, 0x7f82
    43fe:	08 01 78    	mov.w     w8, w2
    4400:	8a 00 78    	mov.w     w10, w1
    4402:	40 f8 27    	mov.w     #0x7f84, w0
    4404:	3c e5 07    	rcall     0xe7e <_memcpy>
    4406:	11 00 20    	mov.w     #0x1, w1
    4408:	09 41 78    	mov.b     w9, w2
    440a:	03 04 20    	mov.w     #0x40, w3

0000440c <.L70>:
    440c:	61 c0 7d    	mov.b     [w1+w11], w0
    440e:	00 41 41    	add.b     w2, w0, w2
    4410:	81 00 e8    	inc.w     w1, w1
    4412:	83 8f 50    	sub.w     w1, w3, [w15]
    4414:	fb ff 3a    	bra       NZ, 0x440c <.L70>
    4416:	02 4e 78    	mov.b     w2, [w12]
    4418:	00 78 20    	mov.w     #0x780, w0
    441a:	20 1c 88    	mov.w     w0, 0x384
    441c:	f0 03 20    	mov.w     #0x3f, w0
    441e:	50 1c 88    	mov.w     w0, 0x38a
    4420:	84 80 a9    	bclr.b    0x84, #0x4
    4422:	94 80 a8    	bset.b    0x94, #0x4
    4424:	81 e3 a8    	bset.b    0x381, #0x7
    4426:	83 e3 a8    	bset.b    0x383, #0x7
    4428:	c5 c2 a8    	bset.b    0x2c5, #0x6
    442a:	08 00 78    	mov.w     w8, w0
    442c:	4f 06 78    	mov.w     [--w15], w12
    442e:	4f 05 be    	mov.d     [--w15], w10
    4430:	4f 04 be    	mov.d     [--w15], w8
    4432:	00 00 06    	return    
    4434:	c3 ff 37    	bra       0x43bc <.L78>

00004436 <_EE_usb_read>:
    4436:	88 9f be    	mov.d     w8, [w15++]
    4438:	8a 9f be    	mov.d     w10, [w15++]
    443a:	80 04 78    	mov.w     w0, w9
    443c:	01 01 78    	mov.w     w1, w2
    443e:	cd 4e e2    	cp0.b     0xecd
    4440:	04 00 3a    	bra       NZ, 0x444a <.L96>

00004442 <.L83>:
    4442:	00 80 eb    	setm.w    w0
    4444:	4f 05 be    	mov.d     [--w15], w10
    4446:	4f 04 be    	mov.d     [--w15], w8
    4448:	00 00 06    	return    

0000444a <.L96>:
    444a:	81 00 e9    	dec.w     w1, w1
    444c:	f0 0e 20    	mov.w     #0xef, w0
    444e:	80 8f 50    	sub.w     w1, w0, [w15]
    4450:	f8 ff 3e    	bra       GTU, 0x4442 <.L83>
    4452:	95 c0 a9    	bclr.b    0x95, #0x6
    4454:	3a 76 80    	mov.w     0xec6, w10
    4456:	0a 00 e0    	cp0.w     w10
    4458:	06 00 3a    	bra       NZ, 0x4466 <.L86>
    445a:	95 c0 a8    	bset.b    0x95, #0x6
    445c:	0a 00 78    	mov.w     w10, w0
    445e:	4f 05 be    	mov.d     [--w15], w10
    4460:	4f 04 be    	mov.d     [--w15], w8
    4462:	00 00 06    	return    
    4464:	f2 ff 37    	bra       0x444a <.L96>

00004466 <.L86>:
    4466:	8a 0f 51    	sub.w     w2, w10, [w15]
    4468:	01 00 3e    	bra       GTU, 0x446c <.L89>
    446a:	02 05 78    	mov.w     w2, w10

0000446c <.L89>:
    446c:	43 76 80    	mov.w     0xec8, w3
    446e:	03 00 45    	add.w     w10, w3, w0
    4470:	02 0f 20    	mov.w     #0xf0, w2
    4472:	11 00 09    	repeat    #0x11
    4474:	02 80 d8    	div.uw    w0, w2
    4476:	81 05 78    	mov.w     w1, w11
    4478:	8b 8f 51    	sub.w     w3, w11, [w15]
    447a:	0d 00 31    	bra       C, 0x4496 <.L91>
    447c:	c1 f8 22    	mov.w     #0x2f8c, w1
    447e:	81 80 41    	add.w     w3, w1, w1
    4480:	0a 01 78    	mov.w     w10, w2
    4482:	09 00 78    	mov.w     w9, w0
    4484:	fc e4 07    	rcall     0xe7e <_memcpy>
    4486:	0a 00 78    	mov.w     w10, w0
    4488:	c6 2e b5    	sub.w     0xec6
    448a:	4b 76 88    	mov.w     w11, 0xec8
    448c:	95 c0 a8    	bset.b    0x95, #0x6

0000448e <.L97>:
    448e:	4f 05 be    	mov.d     [--w15], w10
    4490:	4f 04 be    	mov.d     [--w15], w8
    4492:	00 00 06    	return    
    4494:	da ff 37    	bra       0x444a <.L96>

00004496 <.L91>:
    4496:	03 01 51    	sub.w     w2, w3, w2
    4498:	c8 f8 22    	mov.w     #0x2f8c, w8
    449a:	88 80 41    	add.w     w3, w8, w1
    449c:	09 00 78    	mov.w     w9, w0
    449e:	ef e4 07    	rcall     0xe7e <_memcpy>
    44a0:	40 76 80    	mov.w     0xec8, w0
    44a2:	00 80 54    	sub.w     w9, w0, w0
    44a4:	00 0f b0    	add.w     #0xf0, w0
    44a6:	0b 01 e8    	inc.w     w11, w2
    44a8:	88 00 78    	mov.w     w8, w1
    44aa:	e9 e4 07    	rcall     0xe7e <_memcpy>
    44ac:	0a 00 78    	mov.w     w10, w0
    44ae:	c6 2e b5    	sub.w     0xec6
    44b0:	4b 76 88    	mov.w     w11, 0xec8
    44b2:	95 c0 a8    	bset.b    0x95, #0x6
    44b4:	ec ff 37    	bra       0x448e <.L97>

000044b6 <__DMA0Interrupt>:
    44b6:	84 80 a9    	bclr.b    0x84, #0x4
    44b8:	94 80 a9    	bclr.b    0x94, #0x4
    44ba:	81 e3 a9    	bclr.b    0x381, #0x7
    44bc:	c5 c2 a9    	bclr.b    0x2c5, #0x6
    44be:	cc 6e ef    	clr.b     0xecc
    44c0:	00 40 06    	retfie    

000044c2 <__DMA1Interrupt>:
    44c2:	36 00 f8    	push      0x36
    44c4:	80 9f be    	mov.d     w0, [w15++]
    44c6:	82 9f be    	mov.d     w2, [w15++]
    44c8:	84 9f be    	mov.d     w4, [w15++]
    44ca:	86 9f be    	mov.d     w6, [w15++]
    44cc:	88 9f be    	mov.d     w8, [w15++]
    44ce:	85 c0 a9    	bclr.b    0x85, #0x6
    44d0:	00 fc 27    	mov.w     #0x7fc0, w0
    44d2:	01 00 2e    	mov.w     #0xe000, w1
    44d4:	90 80 60    	and.w     w1, [w0], w1
    44d6:	00 00 24    	mov.w     #0x4000, w0
    44d8:	80 8f 50    	sub.w     w1, w0, [w15]
    44da:	07 00 32    	bra       Z, 0x44ea <.L116>
    44dc:	4f 04 be    	mov.d     [--w15], w8
    44de:	4f 03 be    	mov.d     [--w15], w6
    44e0:	4f 02 be    	mov.d     [--w15], w4
    44e2:	4f 01 be    	mov.d     [--w15], w2
    44e4:	4f 00 be    	mov.d     [--w15], w0
    44e6:	36 00 f9    	pop       0x36
    44e8:	00 40 06    	retfie    

000044ea <.L116>:
    44ea:	10 fe 83    	mov.w     0x7fc2, w0
    44ec:	4a 01 de    	lsr.w     w0, #0xa, w2
    44ee:	f0 0e 20    	mov.w     #0xef, w0
    44f0:	80 0f 51    	sub.w     w2, w0, [w15]
    44f2:	3d 00 3e    	bra       GTU, 0x456e <.L117>
    44f4:	31 76 80    	mov.w     0xec6, w1
    44f6:	03 0f 20    	mov.w     #0xf0, w3
    44f8:	01 80 51    	sub.w     w3, w1, w0
    44fa:	80 0f 51    	sub.w     w2, w0, [w15]
    44fc:	28 00 3e    	bra       GTU, 0x454e <.L118>
    44fe:	51 76 80    	mov.w     0xeca, w1
    4500:	01 00 41    	add.w     w2, w1, w0
    4502:	81 04 78    	mov.w     w1, w9
    4504:	11 00 09    	repeat    #0x11
    4506:	03 80 d8    	div.uw    w0, w3
    4508:	81 04 fd    	exch      w1, w9
    450a:	89 8f 50    	sub.w     w1, w9, [w15]
    450c:	17 00 39    	bra       NC, 0x453c <.L119>

0000450e <.L111>:
    450e:	c8 f8 22    	mov.w     #0x2f8c, w8
    4510:	08 80 40    	add.w     w1, w8, w0
    4512:	01 81 51    	sub.w     w3, w1, w2
    4514:	41 fc 27    	mov.w     #0x7fc4, w1
    4516:	b3 e4 07    	rcall     0xe7e <_memcpy>
    4518:	09 01 e8    	inc.w     w9, w2
    451a:	41 0b 28    	mov.w     #0x80b4, w1
    451c:	50 76 80    	mov.w     0xeca, w0
    451e:	80 80 50    	sub.w     w1, w0, w1
    4520:	08 00 78    	mov.w     w8, w0
    4522:	ad e4 07    	rcall     0xe7e <_memcpy>
    4524:	59 76 88    	mov.w     w9, 0xeca
    4526:	10 fe 83    	mov.w     0x7fc2, w0
    4528:	4a 00 de    	lsr.w     w0, #0xa, w0
    452a:	c6 2e b4    	add.w     0xec6

0000452c <.L120>:
    452c:	4f 04 be    	mov.d     [--w15], w8
    452e:	4f 03 be    	mov.d     [--w15], w6
    4530:	4f 02 be    	mov.d     [--w15], w4
    4532:	4f 01 be    	mov.d     [--w15], w2
    4534:	4f 00 be    	mov.d     [--w15], w0
    4536:	36 00 f9    	pop       0x36
    4538:	00 40 06    	retfie    
    453a:	d7 ff 37    	bra       0x44ea <.L116>

0000453c <.L119>:
    453c:	c0 f8 22    	mov.w     #0x2f8c, w0
    453e:	00 80 40    	add.w     w1, w0, w0
    4540:	41 fc 27    	mov.w     #0x7fc4, w1
    4542:	9d e4 07    	rcall     0xe7e <_memcpy>
    4544:	59 76 88    	mov.w     w9, 0xeca
    4546:	10 fe 83    	mov.w     0x7fc2, w0
    4548:	4a 00 de    	lsr.w     w0, #0xa, w0
    454a:	c6 2e b4    	add.w     0xec6
    454c:	ef ff 37    	bra       0x452c <.L120>

0000454e <.L118>:
    454e:	01 00 41    	add.w     w2, w1, w0
    4550:	03 00 50    	sub.w     w0, w3, w0
    4552:	41 76 80    	mov.w     0xec8, w1
    4554:	01 00 40    	add.w     w0, w1, w0
    4556:	11 00 09    	repeat    #0x11
    4558:	03 80 d8    	div.uw    w0, w3
    455a:	41 76 88    	mov.w     w1, 0xec8
    455c:	51 76 80    	mov.w     0xeca, w1
    455e:	01 00 41    	add.w     w2, w1, w0
    4560:	81 04 78    	mov.w     w1, w9
    4562:	11 00 09    	repeat    #0x11
    4564:	03 80 d8    	div.uw    w0, w3
    4566:	81 04 fd    	exch      w1, w9
    4568:	89 8f 50    	sub.w     w1, w9, [w15]
    456a:	d1 ff 31    	bra       C, 0x450e <.L111>
    456c:	e7 ff 37    	bra       0x453c <.L119>

0000456e <.L117>:
    456e:	00 f1 2f    	mov.w     #0xff10, w0
    4570:	00 00 41    	add.w     w2, w0, w0
    4572:	41 fc 27    	mov.w     #0x7fc4, w1
    4574:	01 00 40    	add.w     w0, w1, w0
    4576:	c1 f8 22    	mov.w     #0x2f8c, w1
    4578:	ef 00 09    	repeat    #0xef
    457a:	b0 58 78    	mov.b     [w0++], [w1++]
    457c:	00 0f b1    	sub.w     #0xf0, w0
    457e:	ca 2e ef    	clr.w     0xeca
    4580:	c8 2e ef    	clr.w     0xec8
    4582:	00 0f 20    	mov.w     #0xf0, w0
    4584:	30 76 88    	mov.w     w0, 0xec6
    4586:	4f 04 be    	mov.d     [--w15], w8
    4588:	4f 03 be    	mov.d     [--w15], w6
    458a:	4f 02 be    	mov.d     [--w15], w4
    458c:	4f 01 be    	mov.d     [--w15], w2
    458e:	4f 00 be    	mov.d     [--w15], w0
    4590:	36 00 f9    	pop       0x36
    4592:	00 40 06    	retfie    
    4594:	aa ff 37    	bra       0x44ea <.L116>

00004596 <_EE_pwm_init>:
    4596:	88 9f be    	mov.d     w8, [w15++]
    4598:	8a 9f be    	mov.d     w10, [w15++]
    459a:	8c 9f be    	mov.d     w12, [w15++]
    459c:	80 46 78    	mov.b     w0, w13
    459e:	04 05 be    	mov.d     w4, w10
    45a0:	82 0f 52    	sub.w     w4, w2, [w15]
    45a2:	83 8f 5a    	subb.w    w5, w3, [w15]
    45a4:	1e 00 3e    	bra       GTU, 0x45e2 <.L140>
    45a6:	10 21 ef    	clr.w     0x110
    45a8:	06 21 ef    	clr.w     0x106
    45aa:	84 e0 a9    	bclr.b    0x84, #0x7
    45ac:	94 e0 a9    	bclr.b    0x94, #0x7
    45ae:	80 02 20    	mov.w     #0x28, w0
    45b0:	00 14 b8    	mul.uu    w2, w0, w8
    45b2:	00 98 b9    	mul.ss    w3, w0, w0
    45b4:	89 04 40    	add.w     w0, w9, w9
    45b6:	61 00 54    	sub.w     w8, #0x1, w0
    45b8:	e0 80 5c    	subb.w    w9, #0x0, w1
    45ba:	e2 ff 2f    	mov.w     #0xfffe, w2
    45bc:	03 00 20    	mov.w     #0x0, w3
    45be:	4a df 07    	rcall     0x454
    45c0:	00 03 e8    	inc.w     w0, w6
    45c2:	80 00 eb    	clr.w     w1
    45c4:	1c 00 20    	mov.w     #0x1, w12
    45c6:	07 10 20    	mov.w     #0x100, w7
    45c8:	60 11 b8    	mul.uu    w2, #0x0, w2

000045ca <.L126>:
    45ca:	81 42 78    	mov.b     w1, w5
    45cc:	e2 cf 50    	sub.b     w1, #0x2, [w15]
    45ce:	0d 00 3e    	bra       GTU, 0x45ea <.L127>
    45d0:	02 02 78    	mov.w     w2, w4
    45d2:	02 60 dd    	sl.w      w12, w2, w0
    45d4:	80 0f 53    	sub.w     w6, w0, [w15]
    45d6:	39 00 36    	bra       LEU, 0x464a <.L143>

000045d8 <.L129>:
    45d8:	81 00 e8    	inc.w     w1, w1
    45da:	63 01 41    	add.w     w2, #0x3, w2
    45dc:	e0 81 49    	addc.w    w3, #0x0, w3
    45de:	e4 8f 50    	sub.w     w1, #0x4, [w15]
    45e0:	f4 ff 3a    	bra       NZ, 0x45ca <.L126>

000045e2 <.L140>:
    45e2:	4f 06 be    	mov.d     [--w15], w12
    45e4:	4f 05 be    	mov.d     [--w15], w10
    45e6:	4f 04 be    	mov.d     [--w15], w8
    45e8:	00 00 06    	return    

000045ea <.L127>:
    45ea:	87 0f 53    	sub.w     w6, w7, [w15]
    45ec:	f5 ff 3e    	bra       GTU, 0x45d8 <.L129>
    45ee:	86 c0 b3    	mov.b     #0x8, w6
    45f0:	84 00 20    	mov.w     #0x8, w4

000045f2 <.L131>:
    45f2:	63 c0 62    	and.b     w5, #0x3, w0
    45f4:	44 00 dd    	sl.w      w0, #0x4, w0
    45f6:	01 11 20    	mov.w     #0x110, w1
    45f8:	91 40 78    	mov.b     [w1], w1
    45fa:	f2 cc b3    	mov.b     #0xcf, w2
    45fc:	82 c0 60    	and.b     w1, w2, w1
    45fe:	80 c0 70    	ior.b     w1, w0, w1
    4600:	01 00 78    	mov.w     w1, w0
    4602:	10 e1 b7    	mov.b     WREG, 0x110
    4604:	06 00 78    	mov.w     w6, w0
    4606:	da ee b7    	mov.b     WREG, 0xeda
    4608:	04 00 78    	mov.w     w4, w0

0000460a <.LB1100>:
    460a:	00 00 e9    	dec.w     w0, w0
    460c:	03 00 33    	bra       N, 0x4614 <.LE1100>
    460e:	89 04 d1    	lsr.w     w9, w9
    4610:	08 84 d3    	rrc.w     w8, w8
    4612:	fb ff 37    	bra       0x460a <.LB1100>

00004614 <.LE1100>:
    4614:	68 08 88    	mov.w     w8, 0x10c
    4616:	0c 01 e2    	cp0.w     0x10c
    4618:	01 00 32    	bra       Z, 0x461c <.L133>
    461a:	0c 21 ed    	dec.w     0x10c

0000461c <.L133>:
    461c:	82 02 20    	mov.w     #0x28, w2
    461e:	02 50 b8    	mul.uu    w10, w2, w0
    4620:	02 d9 b9    	mul.ss    w11, w2, w2
    4622:	81 00 41    	add.w     w2, w1, w1

00004624 <.LB1114>:
    4624:	04 02 e9    	dec.w     w4, w4
    4626:	03 00 33    	bra       N, 0x462e <.LE1114>
    4628:	81 00 d1    	lsr.w     w1, w1
    462a:	00 80 d3    	rrc.w     w0, w0
    462c:	fb ff 37    	bra       0x4624 <.LB1114>

0000462e <.LE1114>:
    462e:	00 01 78    	mov.w     w0, w2
    4630:	00 00 e0    	cp0.w     w0
    4632:	01 00 32    	bra       Z, 0x4636 <.L135>
    4634:	00 01 e9    	dec.w     w0, w2

00004636 <.L135>:
    4636:	e1 cf 56    	sub.b     w13, #0x1, [w15]
    4638:	11 00 32    	bra       Z, 0x465c <.L138>
    463a:	e2 cf 56    	sub.b     w13, #0x2, [w15]
    463c:	08 00 32    	bra       Z, 0x464e <.L144>
    463e:	11 e1 a8    	bset.b    0x111, #0x7

00004640 <.L145>:
    4640:	4f 06 be    	mov.d     [--w15], w12
    4642:	4f 05 be    	mov.d     [--w15], w10
    4644:	4f 04 be    	mov.d     [--w15], w8
    4646:	00 00 06    	return    
    4648:	d0 ff 37    	bra       0x45ea <.L127>

0000464a <.L143>:
    464a:	02 43 78    	mov.b     w2, w6
    464c:	d2 ff 37    	bra       0x45f2 <.L131>

0000464e <.L144>:
    464e:	d2 42 a9    	bclr.b    0x2d2, #0x2
    4650:	72 0c 88    	mov.w     w2, 0x18e
    4652:	62 0c 88    	mov.w     w2, 0x18c
    4654:	60 00 20    	mov.w     #0x6, w0
    4656:	80 0c 88    	mov.w     w0, 0x190
    4658:	11 e1 a8    	bset.b    0x111, #0x7
    465a:	f2 ff 37    	bra       0x4640 <.L145>

0000465c <.L138>:
    465c:	d2 e2 a9    	bclr.b    0x2d2, #0x7
    465e:	62 0d 88    	mov.w     w2, 0x1ac
    4660:	52 0d 88    	mov.w     w2, 0x1aa
    4662:	60 00 20    	mov.w     #0x6, w0
    4664:	70 0d 88    	mov.w     w0, 0x1ae
    4666:	11 e1 a8    	bset.b    0x111, #0x7
    4668:	eb ff 37    	bra       0x4640 <.L145>

0000466a <_EE_pwm_set_duty_f>:
    466a:	88 9f be    	mov.d     w8, [w15++]
    466c:	8a 9f be    	mov.d     w10, [w15++]
    466e:	8c 9f be    	mov.d     w12, [w15++]
    4670:	00 45 78    	mov.b     w0, w10
    4672:	02 04 be    	mov.d     w2, w8
    4674:	6b 08 80    	mov.w     0x10c, w11
    4676:	60 11 b8    	mul.uu    w2, #0x0, w2
    4678:	08 00 be    	mov.d     w8, w0
    467a:	fc de 07    	rcall     0x474
    467c:	00 00 e0    	cp0.w     w0
    467e:	2e 00 34    	bra       LE, 0x46dc <.L163>
    4680:	02 00 20    	mov.w     #0x0, w2
    4682:	03 f8 23    	mov.w     #0x3f80, w3
    4684:	08 00 be    	mov.d     w8, w0
    4686:	f8 de 07    	rcall     0x478
    4688:	00 00 e0    	cp0.w     w0
    468a:	33 00 35    	bra       LT, 0x46f2 <.L153>
    468c:	0c 00 20    	mov.w     #0x0, w12
    468e:	0d f8 23    	mov.w     #0x3f80, w13

00004690 <.L152>:
    4690:	e1 4f 55    	sub.b     w10, #0x1, [w15]
    4692:	15 00 32    	bra       Z, 0x46be <.L157>
    4694:	e2 4f 55    	sub.b     w10, #0x2, [w15]
    4696:	04 00 32    	bra       Z, 0x46a0 <.L164>
    4698:	4f 06 be    	mov.d     [--w15], w12
    469a:	4f 05 be    	mov.d     [--w15], w10
    469c:	4f 04 be    	mov.d     [--w15], w8
    469e:	00 00 06    	return    

000046a0 <.L164>:
    46a0:	0b 04 e8    	inc.w     w11, w8
    46a2:	61 40 b9    	mul.su    w8, #0x1, w0
    46a4:	6a de 07    	rcall     0x37a <___floatsisf>
    46a6:	08 00 e0    	cp0.w     w8
    46a8:	26 00 35    	bra       LT, 0x46f6 <.L165>
    46aa:	00 01 be    	mov.d     w0, w2
    46ac:	0c 00 be    	mov.d     w12, w0
    46ae:	e6 de 07    	rcall     0x47c
    46b0:	19 df 07    	rcall     0x4e4 <___fixunssfsi>
    46b2:	60 0c 88    	mov.w     w0, 0x18c

000046b4 <.L168>:
    46b4:	4f 06 be    	mov.d     [--w15], w12
    46b6:	4f 05 be    	mov.d     [--w15], w10
    46b8:	4f 04 be    	mov.d     [--w15], w8
    46ba:	00 00 06    	return    
    46bc:	f1 ff 37    	bra       0x46a0 <.L164>

000046be <.L157>:
    46be:	0b 04 e8    	inc.w     w11, w8
    46c0:	61 40 b9    	mul.su    w8, #0x1, w0
    46c2:	5b de 07    	rcall     0x37a <___floatsisf>
    46c4:	08 00 e0    	cp0.w     w8
    46c6:	0c 00 35    	bra       LT, 0x46e0 <.L166>
    46c8:	00 01 be    	mov.d     w0, w2
    46ca:	0c 00 be    	mov.d     w12, w0
    46cc:	d7 de 07    	rcall     0x47c
    46ce:	0a df 07    	rcall     0x4e4 <___fixunssfsi>
    46d0:	50 0d 88    	mov.w     w0, 0x1aa

000046d2 <.L167>:
    46d2:	4f 06 be    	mov.d     [--w15], w12
    46d4:	4f 05 be    	mov.d     [--w15], w10
    46d6:	4f 04 be    	mov.d     [--w15], w8
    46d8:	00 00 06    	return    
    46da:	e2 ff 37    	bra       0x46a0 <.L164>

000046dc <.L163>:
    46dc:	60 66 b8    	mul.uu    w12, #0x0, w12
    46de:	d8 ff 37    	bra       0x4690 <.L152>

000046e0 <.L166>:
    46e0:	02 00 20    	mov.w     #0x0, w2
    46e2:	03 78 24    	mov.w     #0x4780, w3
    46e4:	1b df 07    	rcall     0x51c <___addsf3>
    46e6:	00 01 be    	mov.d     w0, w2
    46e8:	0c 00 be    	mov.d     w12, w0
    46ea:	c8 de 07    	rcall     0x47c
    46ec:	fb de 07    	rcall     0x4e4 <___fixunssfsi>
    46ee:	50 0d 88    	mov.w     w0, 0x1aa
    46f0:	f0 ff 37    	bra       0x46d2 <.L167>

000046f2 <.L153>:
    46f2:	08 06 be    	mov.d     w8, w12
    46f4:	cd ff 37    	bra       0x4690 <.L152>

000046f6 <.L165>:
    46f6:	02 00 20    	mov.w     #0x0, w2
    46f8:	03 78 24    	mov.w     #0x4780, w3
    46fa:	10 df 07    	rcall     0x51c <___addsf3>
    46fc:	00 01 be    	mov.d     w0, w2
    46fe:	0c 00 be    	mov.d     w12, w0
    4700:	bd de 07    	rcall     0x47c
    4702:	f0 de 07    	rcall     0x4e4 <___fixunssfsi>
    4704:	60 0c 88    	mov.w     w0, 0x18c
    4706:	d6 ff 37    	bra       0x46b4 <.L168>

00004708 <_EE_sw_encoder_callback>:
    4708:	86 60 a9    	bclr.b    0x86, #0x3

0000470a <.bb>:
    470a:	42 c0 bf    	mov.b     0x42, WREG
    470c:	7f 40 60    	and.b     w0, #0x1f, w0
    470e:	01 cc b3    	mov.b     #0xc0, w1
    4710:	01 40 70    	ior.b     w0, w1, w0
    4712:	42 e0 b7    	mov.b     WREG, 0x42

00004714 <.eb>:
    4714:	d4 0e e2    	cp0.w     0xed4
    4716:	22 00 32    	bra       Z, 0x475c <.L172>
    4718:	d4 c2 bf    	mov.b     0x2d4, WREG
    471a:	00 80 fb    	ze        w0, w0
    471c:	47 00 de    	lsr.w     w0, #0x7, w0
    471e:	e1 2c 20    	mov.w     #0x2ce, w1
    4720:	91 40 78    	mov.b     [w1], w1
    4722:	c4 08 de    	lsr.w     w1, #0x4, w1
    4724:	e1 80 60    	and.w     w1, #0x1, w1
    4726:	01 40 68    	xor.b     w0, w1, w0
    4728:	00 80 fb    	ze        w0, w0
    472a:	00 00 a2    	btg.w     w0, #0x0
    472c:	c0 76 88    	mov.w     w0, 0xed8
    472e:	c1 76 80    	mov.w     0xed8, w1
    4730:	01 00 e0    	cp0.w     w1
    4732:	20 00 32    	bra       Z, 0x4774 <.L177>

00004734 <.L202>:
    4734:	b3 76 80    	mov.w     0xed6, w3
    4736:	03 01 e8    	inc.w     w3, w2
    4738:	b2 76 88    	mov.w     w2, 0xed6

0000473a <.bb>:
    473a:	e1 8f 50    	sub.w     w1, #0x1, [w15]
    473c:	3c 00 32    	bra       Z, 0x47b6 <.L200>

0000473e <.L179>:
    473e:	00 42 eb    	clr.b     w4

00004740 <.eb>:
    4740:	03 81 e8    	inc2.w    w3, w2
    4742:	b2 76 88    	mov.w     w2, 0xed6

00004744 <.bb>:
    4744:	e1 8f 50    	sub.w     w1, #0x1, [w15]
    4746:	32 00 32    	bra       Z, 0x47ac <.L201>

00004748 <.L183>:
    4748:	00 40 eb    	clr.b     w0

0000474a <.L186>:
    474a:	04 04 e0    	cp0.b     w4
    474c:	01 00 3a    	bra       NZ, 0x4750 <.L187>
    474e:	00 42 78    	mov.b     w0, w4

00004750 <.L187>:
    4750:	04 00 78    	mov.w     w4, w0
    4752:	d1 ee b7    	mov.b     WREG, 0xed1

00004754 <.bb>:
    4754:	42 c0 bf    	mov.b     0x42, WREG
    4756:	7f 40 60    	and.b     w0, #0x1f, w0
    4758:	42 e0 b7    	mov.b     WREG, 0x42

0000475a <.eb>:
    475a:	00 00 06    	return    

0000475c <.L172>:
    475c:	41 2d 20    	mov.w     #0x2d4, w1
    475e:	91 40 78    	mov.b     [w1], w1
    4760:	81 80 fb    	ze        w1, w1
    4762:	c7 08 de    	lsr.w     w1, #0x7, w1
    4764:	ce c2 bf    	mov.b     0x2ce, WREG
    4766:	44 00 de    	lsr.w     w0, #0x4, w0
    4768:	01 00 68    	xor.w     w0, w1, w0
    476a:	61 00 60    	and.w     w0, #0x1, w0
    476c:	c0 76 88    	mov.w     w0, 0xed8
    476e:	c1 76 80    	mov.w     0xed8, w1
    4770:	01 00 e0    	cp0.w     w1
    4772:	e0 ff 3a    	bra       NZ, 0x4734 <.L202>

00004774 <.L177>:
    4774:	b2 76 80    	mov.w     0xed6, w2
    4776:	82 00 e9    	dec.w     w2, w1

00004778 <.bb>:
    4778:	f3 ff 27    	mov.w     #0x7fff, w3
    477a:	83 80 68    	xor.w     w1, w3, w1
    477c:	01 00 ea    	neg.w     w1, w0
    477e:	01 00 70    	ior.w     w0, w1, w0
    4780:	cf 00 de    	lsr.w     w0, #0xf, w1
    4782:	81 40 e9    	dec.b     w1, w1

00004784 <.eb>:
    4784:	02 81 e9    	dec2.w    w2, w2
    4786:	b2 76 88    	mov.w     w2, 0xed6

00004788 <.bb>:
    4788:	03 01 69    	xor.w     w2, w3, w2
    478a:	02 00 ea    	neg.w     w2, w0
    478c:	02 00 70    	ior.w     w0, w2, w0
    478e:	4f 00 de    	lsr.w     w0, #0xf, w0
    4790:	00 40 e9    	dec.b     w0, w0

00004792 <.eb>:
    4792:	01 04 e0    	cp0.b     w1
    4794:	07 00 32    	bra       Z, 0x47a4 <.L203>
    4796:	01 00 78    	mov.w     w1, w0
    4798:	d1 ee b7    	mov.b     WREG, 0xed1

0000479a <.L204>:
    479a:	42 c0 bf    	mov.b     0x42, WREG
    479c:	7f 40 60    	and.b     w0, #0x1f, w0
    479e:	42 e0 b7    	mov.b     WREG, 0x42

000047a0 <.eb>:
    47a0:	00 00 06    	return    
    47a2:	dc ff 37    	bra       0x475c <.L172>

000047a4 <.L203>:
    47a4:	80 40 78    	mov.b     w0, w1
    47a6:	01 00 78    	mov.w     w1, w0
    47a8:	d1 ee b7    	mov.b     WREG, 0xed1
    47aa:	f7 ff 37    	bra       0x479a <.L204>

000047ac <.L201>:
    47ac:	00 00 28    	mov.w     #0x8000, w0
    47ae:	80 0f 51    	sub.w     w2, w0, [w15]
    47b0:	cb ff 3a    	bra       NZ, 0x4748 <.L183>
    47b2:	01 40 78    	mov.b     w1, w0
    47b4:	ca ff 37    	bra       0x474a <.L186>

000047b6 <.L200>:
    47b6:	00 00 28    	mov.w     #0x8000, w0
    47b8:	80 0f 51    	sub.w     w2, w0, [w15]
    47ba:	c1 ff 3a    	bra       NZ, 0x473e <.L179>
    47bc:	01 42 78    	mov.b     w1, w4

000047be <.eb>:
    47be:	03 81 e8    	inc2.w    w3, w2
    47c0:	b2 76 88    	mov.w     w2, 0xed6

000047c2 <.bb>:
    47c2:	e1 8f 50    	sub.w     w1, #0x1, [w15]
    47c4:	c1 ff 3a    	bra       NZ, 0x4748 <.L183>
    47c6:	f2 ff 37    	bra       0x47ac <.L201>

000047c8 <_ISR2__CNInterrupt>:
    47c8:	13 77 80    	mov.w     0xee2, w3
    47ca:	03 00 e0    	cp0.w     w3
    47cc:	21 00 32    	bra       Z, 0x4810 <.L218>
    47ce:	02 ee 20    	mov.w     #0xee0, w2
    47d0:	12 41 78    	mov.b     [w2], w2

000047d2 <.L208>:
    47d2:	d4 c2 bf    	mov.b     0x2d4, WREG
    47d4:	44 00 de    	lsr.w     w0, #0x4, w0
    47d6:	61 00 60    	and.w     w0, #0x1, w0
    47d8:	82 40 78    	mov.b     w2, w1
    47da:	01 04 a1    	bclr.b    w1, #0x0
    47dc:	80 c0 70    	ior.b     w1, w0, w1
    47de:	d4 c2 bf    	mov.b     0x2d4, WREG
    47e0:	45 00 de    	lsr.w     w0, #0x5, w0
    47e2:	61 00 60    	and.w     w0, #0x1, w0
    47e4:	00 40 40    	add.b     w0, w0, w0
    47e6:	01 14 a1    	bclr.b    w1, #0x1
    47e8:	80 c0 70    	ior.b     w1, w0, w1
    47ea:	d4 c2 bf    	mov.b     0x2d4, WREG
    47ec:	46 00 de    	lsr.w     w0, #0x6, w0
    47ee:	61 00 60    	and.w     w0, #0x1, w0
    47f0:	42 00 dd    	sl.w      w0, #0x2, w0
    47f2:	01 24 a1    	bclr.b    w1, #0x2
    47f4:	80 c0 70    	ior.b     w1, w0, w1
    47f6:	d5 c2 bf    	mov.b     0x2d5, WREG
    47f8:	00 80 fb    	ze        w0, w0
    47fa:	47 00 de    	lsr.w     w0, #0x7, w0
    47fc:	43 00 dd    	sl.w      w0, #0x3, w0
    47fe:	01 34 a1    	bclr.b    w1, #0x3
    4800:	80 c0 70    	ior.b     w1, w0, w1
    4802:	80 00 fd    	exch      w0, w1
    4804:	e0 ee b7    	mov.b     WREG, 0xee0
    4806:	80 00 fd    	exch      w0, w1
    4808:	03 00 01    	call      w3

0000480a <.L213>:
    480a:	7e ff 07    	rcall     0x4708 <_EE_sw_encoder_callback>
    480c:	86 60 a9    	bclr.b    0x86, #0x3
    480e:	00 00 06    	return    

00004810 <.L218>:
    4810:	d4 c2 bf    	mov.b     0x2d4, WREG
    4812:	44 00 de    	lsr.w     w0, #0x4, w0
    4814:	61 00 60    	and.w     w0, #0x1, w0
    4816:	02 ee 20    	mov.w     #0xee0, w2
    4818:	12 41 78    	mov.b     [w2], w2
    481a:	e1 40 61    	and.b     w2, #0x1, w1
    481c:	81 4f 50    	sub.b     w0, w1, [w15]
    481e:	d9 ff 3a    	bra       NZ, 0x47d2 <.L208>
    4820:	41 2d 20    	mov.w     #0x2d4, w1
    4822:	91 40 78    	mov.b     [w1], w1
    4824:	c5 08 de    	lsr.w     w1, #0x5, w1
    4826:	e1 80 60    	and.w     w1, #0x1, w1
    4828:	02 82 fb    	ze        w2, w4
    482a:	04 00 d1    	lsr.w     w4, w0
    482c:	61 40 60    	and.b     w0, #0x1, w0
    482e:	80 cf 50    	sub.b     w1, w0, [w15]
    4830:	d0 ff 3a    	bra       NZ, 0x47d2 <.L208>
    4832:	41 2d 20    	mov.w     #0x2d4, w1
    4834:	91 40 78    	mov.b     [w1], w1
    4836:	c6 08 de    	lsr.w     w1, #0x6, w1
    4838:	e1 80 60    	and.w     w1, #0x1, w1
    483a:	42 20 de    	lsr.w     w4, #0x2, w0
    483c:	61 40 60    	and.b     w0, #0x1, w0
    483e:	80 cf 50    	sub.b     w1, w0, [w15]
    4840:	c8 ff 3a    	bra       NZ, 0x47d2 <.L208>
    4842:	51 2d 20    	mov.w     #0x2d5, w1
    4844:	91 40 78    	mov.b     [w1], w1
    4846:	81 80 fb    	ze        w1, w1
    4848:	c7 08 de    	lsr.w     w1, #0x7, w1
    484a:	43 20 de    	lsr.w     w4, #0x3, w0
    484c:	61 40 60    	and.b     w0, #0x1, w0
    484e:	80 cf 50    	sub.b     w1, w0, [w15]
    4850:	dc ff 32    	bra       Z, 0x480a <.L213>
    4852:	d4 c2 bf    	mov.b     0x2d4, WREG
    4854:	44 00 de    	lsr.w     w0, #0x4, w0
    4856:	61 00 60    	and.w     w0, #0x1, w0
    4858:	82 40 78    	mov.b     w2, w1
    485a:	01 04 a1    	bclr.b    w1, #0x0
    485c:	80 c0 70    	ior.b     w1, w0, w1
    485e:	d4 c2 bf    	mov.b     0x2d4, WREG
    4860:	45 00 de    	lsr.w     w0, #0x5, w0
    4862:	61 00 60    	and.w     w0, #0x1, w0
    4864:	00 40 40    	add.b     w0, w0, w0
    4866:	01 14 a1    	bclr.b    w1, #0x1
    4868:	80 c0 70    	ior.b     w1, w0, w1
    486a:	d4 c2 bf    	mov.b     0x2d4, WREG
    486c:	46 00 de    	lsr.w     w0, #0x6, w0
    486e:	61 00 60    	and.w     w0, #0x1, w0
    4870:	42 00 dd    	sl.w      w0, #0x2, w0
    4872:	01 24 a1    	bclr.b    w1, #0x2
    4874:	80 c0 70    	ior.b     w1, w0, w1
    4876:	d5 c2 bf    	mov.b     0x2d5, WREG
    4878:	00 80 fb    	ze        w0, w0
    487a:	47 00 de    	lsr.w     w0, #0x7, w0
    487c:	43 00 dd    	sl.w      w0, #0x3, w0
    487e:	01 34 a1    	bclr.b    w1, #0x3
    4880:	80 c0 70    	ior.b     w1, w0, w1
    4882:	80 00 fd    	exch      w0, w1
    4884:	e0 ee b7    	mov.b     WREG, 0xee0
    4886:	80 00 fd    	exch      w0, w1
    4888:	03 00 01    	call      w3
    488a:	bf ff 37    	bra       0x480a <.L213>

0000488c <__CNInterrupt>:
    488c:	36 00 f8    	push      0x36
    488e:	80 9f be    	mov.d     w0, [w15++]
    4890:	82 9f be    	mov.d     w2, [w15++]
    4892:	84 9f be    	mov.d     w4, [w15++]
    4894:	86 9f be    	mov.d     w6, [w15++]
    4896:	34 00 f8    	push      0x34
    4898:	00 00 20    	mov.w     #0x0, w0
    489a:	a0 01 88    	mov.w     w0, 0x34

0000489c <.bb>:
    489c:	10 02 80    	mov.w     0x42, w0
    489e:	42 c0 bf    	mov.b     0x42, WREG
    48a0:	7f 40 60    	and.b     w0, #0x1f, w0
    48a2:	01 cc b3    	mov.b     #0xc0, w1
    48a4:	01 40 70    	ior.b     w0, w1, w0
    48a6:	42 e0 b7    	mov.b     WREG, 0x42

000048a8 <.eb>:
    48a8:	10 00 20    	mov.w     #0x1, w0
    48aa:	d0 79 88    	mov.w     w0, 0xf3a

000048ac <.eb>:
    48ac:	8d ff 07    	rcall     0x47c8 <_ISR2__CNInterrupt>
    48ae:	3a 2f ef    	clr.w     0xf3a

000048b0 <.bb>:
    48b0:	ef 16 07    	rcall     0x7690 <_EE_IRQ_end_instance>
    48b2:	c0 79 80    	mov.w     0xf38, w0
    48b4:	00 00 e0    	cp0.w     w0
    48b6:	03 00 35    	bra       LT, 0x48be <.L223>

000048b8 <.L224>:
    48b8:	fd 16 07    	rcall     0x76b4 <_EE_std_run_task_code>
    48ba:	00 00 e0    	cp0.w     w0
    48bc:	fd ff 3d    	bra       GE, 0x48b8 <.L224>

000048be <.L223>:
    48be:	34 00 f9    	pop       0x34
    48c0:	4f 03 be    	mov.d     [--w15], w6
    48c2:	4f 02 be    	mov.d     [--w15], w4
    48c4:	4f 01 be    	mov.d     [--w15], w2
    48c6:	4f 00 be    	mov.d     [--w15], w0
    48c8:	36 00 f9    	pop       0x36
    48ca:	00 40 06    	retfie    

000048cc <_lcd_puts>:
    48cc:	88 9f be    	mov.d     w8, [w15++]
    48ce:	8a 9f be    	mov.d     w10, [w15++]
    48d0:	00 04 78    	mov.w     w0, w8
    48d2:	00 00 eb    	clr.w     w0
    48d4:	a4 15 07    	rcall     0x741e <_EE_fp_GetResource>
    48d6:	18 04 e0    	cp0.b     [w8]
    48d8:	15 00 32    	bra       Z, 0x4904 <.L2>
    48da:	ea cf 20    	mov.w     #0xcfe, w10
    48dc:	09 02 20    	mov.w     #0x20, w9
    48de:	fb c1 b3    	mov.b     #0x1f, w11

000048e0 <.L3>:
    48e0:	26 4c e2    	cp0.b     0xc26
    48e2:	15 00 32    	bra       Z, 0x490e <.L12>
    48e4:	98 40 78    	mov.b     [w8], w1
    48e6:	ea cf 50    	sub.b     w1, #0xa, [w15]
    48e8:	1f 00 32    	bra       Z, 0x4928 <.L13>

000048ea <.L6>:
    48ea:	62 c2 20    	mov.w     #0xc26, w2
    48ec:	12 41 78    	mov.b     [w2], w2
    48ee:	02 80 fb    	ze        w2, w0
    48f0:	01 70 7d    	mov.b     w1, [w0+w10]
    48f2:	08 04 e8    	inc.w     w8, w8
    48f4:	02 80 fb    	ze        w2, w0
    48f6:	00 00 e8    	inc.w     w0, w0
    48f8:	11 00 09    	repeat    #0x11
    48fa:	09 00 d8    	div.sw    w0, w9
    48fc:	01 00 78    	mov.w     w1, w0
    48fe:	26 ec b7    	mov.b     WREG, 0xc26
    4900:	18 04 e0    	cp0.b     [w8]
    4902:	ee ff 3a    	bra       NZ, 0x48e0 <.L3>

00004904 <.L2>:
    4904:	00 00 eb    	clr.w     w0
    4906:	66 15 07    	rcall     0x73d4 <_EE_fp_ReleaseResource>
    4908:	4f 05 be    	mov.d     [--w15], w10
    490a:	4f 04 be    	mov.d     [--w15], w8
    490c:	00 00 06    	return    

0000490e <.L12>:
    490e:	e0 cf 20    	mov.w     #0xcfe, w0
    4910:	e1 d0 20    	mov.w     #0xd0e, w1
    4912:	0f 00 09    	repeat    #0xf
    4914:	31 58 78    	mov.b     [w1++], [w0++]
    4916:	02 01 20    	mov.w     #0x10, w2
    4918:	01 02 20    	mov.w     #0x20, w1
    491a:	e0 d0 20    	mov.w     #0xd0e, w0
    491c:	a9 e2 07    	rcall     0xe70 <_memset>
    491e:	00 c1 b3    	mov.b     #0x10, w0
    4920:	26 ec b7    	mov.b     WREG, 0xc26
    4922:	98 40 78    	mov.b     [w8], w1
    4924:	ea cf 50    	sub.b     w1, #0xa, [w15]
    4926:	e1 ff 3a    	bra       NZ, 0x48ea <.L6>

00004928 <.L13>:
    4928:	26 cc bf    	mov.b     0xc26, WREG
    492a:	00 80 fb    	ze        w0, w0
    492c:	00 81 54    	sub.w     w9, w0, w2
    492e:	0a 00 40    	add.w     w0, w10, w0
    4930:	01 02 20    	mov.w     #0x20, w1
    4932:	9e e2 07    	rcall     0xe70 <_memset>
    4934:	08 04 e8    	inc.w     w8, w8
    4936:	0b 00 78    	mov.w     w11, w0
    4938:	26 ec b7    	mov.b     WREG, 0xc26
    493a:	0b 41 78    	mov.b     w11, w2
    493c:	02 80 fb    	ze        w2, w0
    493e:	00 00 e8    	inc.w     w0, w0
    4940:	11 00 09    	repeat    #0x11
    4942:	09 00 d8    	div.sw    w0, w9
    4944:	01 00 78    	mov.w     w1, w0
    4946:	26 ec b7    	mov.b     WREG, 0xc26
    4948:	18 04 e0    	cp0.b     [w8]
    494a:	ca ff 3a    	bra       NZ, 0x48e0 <.L3>
    494c:	db ff 37    	bra       0x4904 <.L2>

0000494e <_rx_data>:
    494e:	88 1f 78    	mov.w     w8, [w15++]
    4950:	03 04 78    	mov.w     w3, w8
    4952:	e0 c6 b3    	mov.b     #0x6e, w0
    4954:	80 4f 51    	sub.b     w2, w0, [w15]
    4956:	02 00 36    	bra       LEU, 0x495c <.L20>
    4958:	4f 04 78    	mov.w     [--w15], w8
    495a:	00 00 06    	return    

0000495c <.L20>:
    495c:	02 81 fb    	ze        w2, w2
    495e:	00 c9 20    	mov.w     #0xc90, w0
    4960:	8e e2 07    	rcall     0xe7e <_memcpy>
    4962:	f8 78 88    	mov.w     w8, 0xf1e
    4964:	10 00 20    	mov.w     #0x1, w0
    4966:	a5 15 07    	rcall     0x74b2 <_EE_fp_ActivateTask>
    4968:	4f 04 78    	mov.w     [--w15], w8
    496a:	00 00 06    	return    
    496c:	f7 ff 37    	bra       0x495c <.L20>

0000496e <_ISR2__T1Interrupt>:
    496e:	84 60 a9    	bclr.b    0x84, #0x3
    4970:	00 00 eb    	clr.w     w0
    4972:	2e 13 37    	bra       0x6fd0 <_EE_alarm_CounterTick>

00004974 <__T1Interrupt>:
    4974:	36 00 f8    	push      0x36
    4976:	80 9f be    	mov.d     w0, [w15++]
    4978:	82 9f be    	mov.d     w2, [w15++]
    497a:	84 9f be    	mov.d     w4, [w15++]
    497c:	86 9f be    	mov.d     w6, [w15++]
    497e:	34 00 f8    	push      0x34
    4980:	00 00 20    	mov.w     #0x0, w0
    4982:	a0 01 88    	mov.w     w0, 0x34

00004984 <.bb>:
    4984:	10 02 80    	mov.w     0x42, w0
    4986:	42 c0 bf    	mov.b     0x42, WREG
    4988:	7f 40 60    	and.b     w0, #0x1f, w0
    498a:	01 cc b3    	mov.b     #0xc0, w1
    498c:	01 40 70    	ior.b     w0, w1, w0
    498e:	42 e0 b7    	mov.b     WREG, 0x42

00004990 <.eb>:
    4990:	10 00 20    	mov.w     #0x1, w0
    4992:	d0 79 88    	mov.w     w0, 0xf3a

00004994 <.eb>:
    4994:	ec ff 07    	rcall     0x496e <_ISR2__T1Interrupt>
    4996:	3a 2f ef    	clr.w     0xf3a

00004998 <.bb>:
    4998:	7b 16 07    	rcall     0x7690 <_EE_IRQ_end_instance>
    499a:	c0 79 80    	mov.w     0xf38, w0
    499c:	00 00 e0    	cp0.w     w0
    499e:	03 00 35    	bra       LT, 0x49a6 <.L30>

000049a0 <.L31>:
    49a0:	89 16 07    	rcall     0x76b4 <_EE_std_run_task_code>
    49a2:	00 00 e0    	cp0.w     w0
    49a4:	fd ff 3d    	bra       GE, 0x49a0 <.L31>

000049a6 <.L30>:
    49a6:	34 00 f9    	pop       0x34
    49a8:	4f 03 be    	mov.d     [--w15], w6
    49aa:	4f 02 be    	mov.d     [--w15], w4
    49ac:	4f 01 be    	mov.d     [--w15], w2
    49ae:	4f 00 be    	mov.d     [--w15], w0
    49b0:	36 00 f9    	pop       0x36
    49b2:	00 40 06    	retfie    

000049b4 <_FuncCHAT_SEND>:
    49b4:	42 06 20    	mov.w     #0x64, w2
    49b6:	80 00 eb    	clr.w     w1
    49b8:	80 c2 20    	mov.w     #0xc28, w0
    49ba:	5a e2 07    	rcall     0xe70 <_memset>
    49bc:	a0 c0 b3    	mov.b     #0xa, w0
    49be:	28 ec b7    	mov.b     WREG, 0xc28
    49c0:	b0 c0 b3    	mov.b     #0xb, w0
    49c2:	29 ec b7    	mov.b     WREG, 0xc29
    49c4:	c0 c0 b3    	mov.b     #0xc, w0
    49c6:	2a ec b7    	mov.b     WREG, 0xc2a
    49c8:	d0 c0 b3    	mov.b     #0xd, w0
    49ca:	2b ec b7    	mov.b     WREG, 0xc2b
    49cc:	e0 c0 b3    	mov.b     #0xe, w0
    49ce:	2c ec b7    	mov.b     WREG, 0xc2c
    49d0:	f0 c0 b3    	mov.b     #0xf, w0
    49d2:	2d ec b7    	mov.b     WREG, 0xc2d
    49d4:	d1 78 80    	mov.w     0xf1a, w1
    49d6:	48 08 de    	lsr.w     w1, #0x8, w0
    49d8:	2e ec b7    	mov.b     WREG, 0xc2e
    49da:	01 00 78    	mov.w     w1, w0
    49dc:	2f ec b7    	mov.b     WREG, 0xc2f
    49de:	e1 78 80    	mov.w     0xf1c, w1
    49e0:	48 08 de    	lsr.w     w1, #0x8, w0
    49e2:	30 ec b7    	mov.b     WREG, 0xc30
    49e4:	01 00 78    	mov.w     w1, w0
    49e6:	31 ec b7    	mov.b     WREG, 0xc31
    49e8:	27 4c e2    	cp0.b     0xc27
    49ea:	0d 00 32    	bra       Z, 0x4a06 <.L36>
    49ec:	27 6c ef    	clr.b     0xc27

000049ee <.bb>:
    49ee:	d7 42 a9    	bclr.b    0x2d7, #0x2

000049f0 <.bb>:
    49f0:	d7 62 a8    	bset.b    0x2d7, #0x3

000049f2 <.eb>:
    49f2:	f2 78 80    	mov.w     0xf1e, w2
    49f4:	80 41 eb    	clr.b     w3
    49f6:	41 c6 b3    	mov.b     #0x64, w1
    49f8:	80 c2 20    	mov.w     #0xc28, w0
    49fa:	2a 07 07    	rcall     0x5850 <_uwl_simple154_send>
    49fc:	1a 2f ec    	inc.w     0xf1a
    49fe:	00 04 e0    	cp0.b     w0
    4a00:	0e 00 35    	bra       LT, 0x4a1e <.L44>

00004a02 <.L39>:
    4a02:	18 2f ec    	inc.w     0xf18
    4a04:	00 00 06    	return    

00004a06 <.L36>:
    4a06:	10 c0 b3    	mov.b     #0x1, w0
    4a08:	27 ec b7    	mov.b     WREG, 0xc27

00004a0a <.bb>:
    4a0a:	d7 42 a8    	bset.b    0x2d7, #0x2

00004a0c <.bb>:
    4a0c:	d7 62 a9    	bclr.b    0x2d7, #0x3

00004a0e <.eb>:
    4a0e:	f2 78 80    	mov.w     0xf1e, w2
    4a10:	80 41 eb    	clr.b     w3
    4a12:	41 c6 b3    	mov.b     #0x64, w1
    4a14:	80 c2 20    	mov.w     #0xc28, w0
    4a16:	1c 07 07    	rcall     0x5850 <_uwl_simple154_send>
    4a18:	1a 2f ec    	inc.w     0xf1a
    4a1a:	00 04 e0    	cp0.b     w0
    4a1c:	f2 ff 3d    	bra       GE, 0x4a02 <.L39>

00004a1e <.L44>:
    4a1e:	cb c2 a9    	bclr.b    0x2cb, #0x6
    4a20:	00 00 06    	return    

00004a22 <_FuncCHAT_RECEIVE>:
    4a22:	c8 00 fa    	lnk       #0xc8
    4a24:	88 9f be    	mov.d     w8, [w15++]
    4a26:	8a 9f be    	mov.d     w10, [w15++]
    4a28:	a0 ca b3    	mov.b     #0xaa, w0
    4a2a:	90 4c e3    	cp.b      0xc90
    4a2c:	05 00 32    	bra       Z, 0x4a38 <.L67>

00004a2e <.L47>:
    4a2e:	e2 62 a8    	bset.b    0x2e2, #0x3

00004a30 <.eb>:
    4a30:	4f 05 be    	mov.d     [--w15], w10
    4a32:	4f 04 be    	mov.d     [--w15], w8
    4a34:	00 80 fa    	ulnk      
    4a36:	00 00 06    	return    

00004a38 <.L67>:
    4a38:	71 40 40    	add.b     w0, #0x11, w0
    4a3a:	91 4c e3    	cp.b      0xc91
    4a3c:	f8 ff 3a    	bra       NZ, 0x4a2e <.L47>
    4a3e:	71 40 40    	add.b     w0, #0x11, w0
    4a40:	92 4c e3    	cp.b      0xc92
    4a42:	f5 ff 3a    	bra       NZ, 0x4a2e <.L47>
    4a44:	71 40 40    	add.b     w0, #0x11, w0
    4a46:	93 4c e3    	cp.b      0xc93
    4a48:	f2 ff 3a    	bra       NZ, 0x4a2e <.L47>
    4a4a:	40 c9 20    	mov.w     #0xc94, w0
    4a4c:	e1 ce b3    	mov.b     #0xee, w1
    4a4e:	90 cf 10    	subr.b    w1, [w0], [w15]
    4a50:	ee ff 3a    	bra       NZ, 0x4a2e <.L47>
    4a52:	50 c9 20    	mov.w     #0xc95, w0
    4a54:	80 c0 eb    	setm.b    w1
    4a56:	90 cf 10    	subr.b    w1, [w0], [w15]
    4a58:	ea ff 3a    	bra       NZ, 0x4a2e <.L47>
    4a5a:	97 cc bf    	mov.b     0xc97, WREG
    4a5c:	00 80 fb    	ze        w0, w0
    4a5e:	61 c9 20    	mov.w     #0xc96, w1
    4a60:	91 40 78    	mov.b     [w1], w1
    4a62:	c8 08 dd    	sl.w      w1, #0x8, w1
    4a64:	81 00 40    	add.w     w0, w1, w1
    4a66:	e1 78 88    	mov.w     w1, 0xf1c
    4a68:	b0 78 80    	mov.w     0xf16, w0
    4a6a:	80 8f 50    	sub.w     w1, w0, [w15]
    4a6c:	01 00 32    	bra       Z, 0x4a70 <.L55>
    4a6e:	14 2f ec    	inc.w     0xf14

00004a70 <.L55>:
    4a70:	01 00 e8    	inc.w     w1, w0
    4a72:	b0 78 88    	mov.w     w0, 0xf16
    4a74:	d1 c9 20    	mov.w     #0xc9d, w1
    4a76:	91 40 78    	mov.b     [w1], w1
    4a78:	81 80 fb    	ze        w1, w1
    4a7a:	9c cc bf    	mov.b     0xc9c, WREG
    4a7c:	48 00 dd    	sl.w      w0, #0x8, w0
    4a7e:	00 84 40    	add.w     w1, w0, w8
    4a80:	11 ca 20    	mov.w     #0xca1, w1
    4a82:	91 40 78    	mov.b     [w1], w1
    4a84:	81 80 fb    	ze        w1, w1
    4a86:	a0 cc bf    	mov.b     0xca0, WREG
    4a88:	48 00 dd    	sl.w      w0, #0x8, w0
    4a8a:	80 84 40    	add.w     w1, w0, w9
    4a8c:	51 ca 20    	mov.w     #0xca5, w1
    4a8e:	91 40 78    	mov.b     [w1], w1
    4a90:	81 80 fb    	ze        w1, w1
    4a92:	a4 cc bf    	mov.b     0xca4, WREG
    4a94:	48 00 dd    	sl.w      w0, #0x8, w0
    4a96:	00 85 40    	add.w     w1, w0, w10
    4a98:	8d 4c e2    	cp0.b     0xc8d
    4a9a:	56 00 32    	bra       Z, 0x4b48 <.L57>
    4a9c:	8d 6c ef    	clr.b     0xc8d

00004a9e <.bb>:
    4a9e:	d7 02 a9    	bclr.b    0x2d7, #0x0

00004aa0 <.bb>:
    4aa0:	d7 22 a8    	bset.b    0x2d7, #0x1

00004aa2 <.L59>:
    4aa2:	4b f9 2f    	mov.w     #0xff94, w11
    4aa4:	8b 85 47    	add.w     w15, w11, w11
    4aa6:	61 50 b9    	mul.su    w10, #0x1, w0
    4aa8:	68 dc 07    	rcall     0x37a <___floatsisf>
    4aaa:	02 00 20    	mov.w     #0x0, w2
    4aac:	83 2c 24    	mov.w     #0x42c8, w3
    4aae:	90 dc 07    	rcall     0x3d0
    4ab0:	80 9f be    	mov.d     w0, [w15++]
    4ab2:	61 48 b9    	mul.su    w9, #0x1, w0
    4ab4:	62 dc 07    	rcall     0x37a <___floatsisf>
    4ab6:	02 00 20    	mov.w     #0x0, w2
    4ab8:	83 2c 24    	mov.w     #0x42c8, w3
    4aba:	8a dc 07    	rcall     0x3d0
    4abc:	80 9f be    	mov.d     w0, [w15++]
    4abe:	61 40 b9    	mul.su    w8, #0x1, w0
    4ac0:	5c dc 07    	rcall     0x37a <___floatsisf>
    4ac2:	02 00 20    	mov.w     #0x0, w2
    4ac4:	83 2c 24    	mov.w     #0x42c8, w3
    4ac6:	84 dc 07    	rcall     0x3d0
    4ac8:	80 9f be    	mov.d     w0, [w15++]
    4aca:	f0 f2 29    	mov.w     #0x9f2f, w0
    4acc:	80 1f 78    	mov.w     w0, [w15++]
    4ace:	0b 00 78    	mov.w     w11, w0
    4ad0:	dd e1 07    	rcall     0xe8c <__sprintf_cdfFnopuxX>
    4ad2:	0b 00 78    	mov.w     w11, w0
    4ad4:	f2 e1 07    	rcall     0xeba <_strlen>
    4ad6:	00 01 78    	mov.w     w0, w2

00004ad8 <.bb>:
    4ad8:	e0 79 80    	mov.w     0xf3c, w0
    4ada:	a0 01 90    	mov.w     [w0+4], w3
    4adc:	ee 87 57    	sub.w     w15, #0xe, w15
    4ade:	03 00 e0    	cp0.w     w3
    4ae0:	03 00 32    	bra       Z, 0x4ae8 <.L60>
    4ae2:	40 00 90    	mov.w     [w0+8], w0
    4ae4:	8b 00 78    	mov.w     w11, w1
    4ae6:	03 00 01    	call      w3

00004ae8 <.L60>:
    4ae8:	c1 c8 20    	mov.w     #0xc8c, w1
    4aea:	91 40 78    	mov.b     [w1], w1
    4aec:	01 40 e8    	inc.b     w1, w0
    4aee:	8c ec b7    	mov.b     WREG, 0xc8c
    4af0:	01 08 a3    	btst.z    w1, #0x0
    4af2:	17 00 32    	bra       Z, 0x4b22 <.L62>

00004af4 <.bb>:
    4af4:	00 f0 20    	mov.w     #0xf00, w0
    4af6:	d6 22 b7    	ior.w     0x2d6
    4af8:	f0 00 20    	mov.w     #0xf, w0
    4afa:	e2 22 b7    	ior.w     0x2e2

00004afc <.eb>:
    4afc:	8a 1f 78    	mov.w     w10, [w15++]
    4afe:	89 1f 78    	mov.w     w9, [w15++]
    4b00:	88 1f 78    	mov.w     w8, [w15++]
    4b02:	b1 f3 29    	mov.w     #0x9f3b, w1
    4b04:	81 1f 78    	mov.w     w1, [w15++]
    4b06:	80 f2 2f    	mov.w     #0xff28, w0
    4b08:	0f 00 40    	add.w     w0, w15, w0
    4b0a:	c0 e1 07    	rcall     0xe8c <__sprintf_cdfFnopuxX>
    4b0c:	80 f2 2f    	mov.w     #0xff28, w0
    4b0e:	0f 00 40    	add.w     w0, w15, w0
    4b10:	dd fe 07    	rcall     0x48cc <_lcd_puts>
    4b12:	00 00 eb    	clr.w     w0
    4b14:	ce 14 07    	rcall     0x74b2 <_EE_fp_ActivateTask>
    4b16:	e8 87 57    	sub.w     w15, #0x8, w15

00004b18 <.L68>:
    4b18:	4f 05 be    	mov.d     [--w15], w10
    4b1a:	4f 04 be    	mov.d     [--w15], w8
    4b1c:	00 80 fa    	ulnk      
    4b1e:	00 00 06    	return    
    4b20:	8b ff 37    	bra       0x4a38 <.L67>

00004b22 <.L62>:
    4b22:	f0 0f 2f    	mov.w     #0xf0ff, w0
    4b24:	d6 22 b6    	and.w     0x2d6
    4b26:	00 ff 2f    	mov.w     #0xfff0, w0
    4b28:	e2 22 b6    	and.w     0x2e2

00004b2a <.eb>:
    4b2a:	8a 1f 78    	mov.w     w10, [w15++]
    4b2c:	89 1f 78    	mov.w     w9, [w15++]
    4b2e:	88 1f 78    	mov.w     w8, [w15++]
    4b30:	b1 f3 29    	mov.w     #0x9f3b, w1
    4b32:	81 1f 78    	mov.w     w1, [w15++]
    4b34:	80 f2 2f    	mov.w     #0xff28, w0
    4b36:	0f 00 40    	add.w     w0, w15, w0
    4b38:	a9 e1 07    	rcall     0xe8c <__sprintf_cdfFnopuxX>
    4b3a:	80 f2 2f    	mov.w     #0xff28, w0
    4b3c:	0f 00 40    	add.w     w0, w15, w0
    4b3e:	c6 fe 07    	rcall     0x48cc <_lcd_puts>
    4b40:	00 00 eb    	clr.w     w0
    4b42:	b7 14 07    	rcall     0x74b2 <_EE_fp_ActivateTask>
    4b44:	e8 87 57    	sub.w     w15, #0x8, w15
    4b46:	e8 ff 37    	bra       0x4b18 <.L68>

00004b48 <.L57>:
    4b48:	10 c0 b3    	mov.b     #0x1, w0
    4b4a:	8d ec b7    	mov.b     WREG, 0xc8d

00004b4c <.bb>:
    4b4c:	d7 02 a8    	bset.b    0x2d7, #0x0

00004b4e <.eb>:
    4b4e:	d7 22 a9    	bclr.b    0x2d7, #0x1
    4b50:	a8 ff 37    	bra       0x4aa2 <.L59>

00004b52 <_button_action>:
    4b52:	d4 c2 bf    	mov.b     0x2d4, WREG

00004b54 <.eb>:
    4b54:	00 48 a3    	btst.z    w0, #0x4
    4b56:	07 00 32    	bra       Z, 0x4b66 <.L80>

00004b58 <.L72>:
    4b58:	d5 c2 bf    	mov.b     0x2d5, WREG

00004b5a <.eb>:
    4b5a:	00 80 fb    	ze        w0, w0
    4b5c:	00 70 a2    	btg.w     w0, #0x7
    4b5e:	47 00 de    	lsr.w     w0, #0x7, w0
    4b60:	e1 4f 50    	sub.b     w0, #0x1, [w15]
    4b62:	0a 00 32    	bra       Z, 0x4b78 <.L81>
    4b64:	00 00 06    	return    

00004b66 <.L80>:
    4b66:	20 cf bf    	mov.b     0xf20, WREG
    4b68:	e1 4f 50    	sub.b     w0, #0x1, [w15]
    4b6a:	f6 ff 3a    	bra       NZ, 0x4b58 <.L72>
    4b6c:	20 6f ef    	clr.b     0xf20

00004b6e <.bb>:
    4b6e:	f0 0f 2f    	mov.w     #0xf0ff, w0
    4b70:	d6 22 b6    	and.w     0x2d6
    4b72:	00 ff 2f    	mov.w     #0xfff0, w0
    4b74:	e2 22 b6    	and.w     0x2e2
    4b76:	00 00 06    	return    

00004b78 <.L81>:
    4b78:	43 db 37    	bra       0x200

00004b7a <_FuncLCD_WRITE>:
    4b7a:	88 9f be    	mov.d     w8, [w15++]
    4b7c:	00 00 eb    	clr.w     w0
    4b7e:	4f 14 07    	rcall     0x741e <_EE_fp_GetResource>
    4b80:	e8 cf 20    	mov.w     #0xcfe, w8
    4b82:	e9 d0 20    	mov.w     #0xd0e, w9

00004b84 <.L84>:
    4b84:	38 40 78    	mov.b     [w8++], w0
    4b86:	16 fb 07    	rcall     0x41b4 <_EE_lcd_putc>
    4b88:	88 8f 54    	sub.w     w9, w8, [w15]
    4b8a:	fc ff 3a    	bra       NZ, 0x4b84 <.L84>

00004b8c <.bb>:
    4b8c:	00 f0 2f    	mov.w     #0xff00, w0
    4b8e:	c4 22 b6    	and.w     0x2c4
    4b90:	00 0c 20    	mov.w     #0xc0, w0
    4b92:	c4 22 b7    	ior.w     0x2c4
    4b94:	cb 42 a9    	bclr.b    0x2cb, #0x2

00004b96 <.bb>:
    4b96:	cb 22 a8    	bset.b    0x2cb, #0x1
	...
    4b9e:	cb 22 a9    	bclr.b    0x2cb, #0x1

00004ba0 <.eb>:
    4ba0:	70 00 20    	mov.w     #0x7, w0
    4ba2:	f2 fa 07    	rcall     0x4188 <_Delay_Us>
    4ba4:	e8 d0 20    	mov.w     #0xd0e, w8
    4ba6:	e9 d1 20    	mov.w     #0xd1e, w9

00004ba8 <.L86>:
    4ba8:	38 40 78    	mov.b     [w8++], w0
    4baa:	04 fb 07    	rcall     0x41b4 <_EE_lcd_putc>
    4bac:	89 0f 54    	sub.w     w8, w9, [w15]
    4bae:	fc ff 3a    	bra       NZ, 0x4ba8 <.L86>

00004bb0 <.bb>:
    4bb0:	00 f0 2f    	mov.w     #0xff00, w0
    4bb2:	c4 22 b6    	and.w     0x2c4
    4bb4:	c4 22 a8    	bset.b    0x2c4, #0x1
    4bb6:	cb 42 a9    	bclr.b    0x2cb, #0x2

00004bb8 <.bb>:
    4bb8:	cb 22 a8    	bset.b    0x2cb, #0x1
	...
    4bc0:	cb 22 a9    	bclr.b    0x2cb, #0x1

00004bc2 <.eb>:
    4bc2:	70 00 20    	mov.w     #0x7, w0
    4bc4:	e1 fa 07    	rcall     0x4188 <_Delay_Us>

00004bc6 <.eb>:
    4bc6:	00 00 eb    	clr.w     w0
    4bc8:	05 14 07    	rcall     0x73d4 <_EE_fp_ReleaseResource>
    4bca:	4f 04 be    	mov.d     [--w15], w8
    4bcc:	00 00 06    	return    

00004bce <_main>:
    4bce:	88 9f be    	mov.d     w8, [w15++]
    4bd0:	8a 1f 78    	mov.w     w10, [w15++]
    4bd2:	45 67 a9    	bclr.b    0x745, #0x3
    4bd4:	44 c7 bf    	mov.b     0x744, WREG
    4bd6:	01 ce b3    	mov.b     #0xe0, w1
    4bd8:	01 40 60    	and.b     w0, w1, w0
    4bda:	44 e7 b7    	mov.b     WREG, 0x744
    4bdc:	44 c7 bf    	mov.b     0x744, WREG
    4bde:	f0 43 b2    	and.b     #0x3f, w0
    4be0:	44 e7 b7    	mov.b     WREG, 0x744
    4be2:	30 3a 80    	mov.w     0x746, w0
    4be4:	01 e0 2f    	mov.w     #0xfe00, w1
    4be6:	01 00 60    	and.w     w0, w1, w0
    4be8:	e0 04 b3    	ior.w     #0x4e, w0
    4bea:	30 3a 88    	mov.w     w0, 0x746

00004bec <.L96>:
    4bec:	42 c7 bf    	mov.b     0x742, WREG
    4bee:	00 58 a3    	btst.z    w0, #0x5
    4bf0:	fd ff 32    	bra       Z, 0x4bec <.L96>

00004bf2 <.bb>:
    4bf2:	04 21 ef    	clr.w     0x104
    4bf4:	00 21 ef    	clr.w     0x100
    4bf6:	00 c4 29    	mov.w     #0x9c40, w0
    4bf8:	10 08 88    	mov.w     w0, 0x102
    4bfa:	a5 c0 bf    	mov.b     0xa5, WREG
    4bfc:	f1 c8 b3    	mov.b     #0x8f, w1
    4bfe:	01 40 60    	and.b     w0, w1, w0
    4c00:	00 45 b3    	ior.b     #0x50, w0
    4c02:	a5 e0 b7    	mov.b     WREG, 0xa5
    4c04:	84 60 a9    	bclr.b    0x84, #0x3
    4c06:	94 60 a8    	bset.b    0x94, #0x3
    4c08:	05 e1 a8    	bset.b    0x105, #0x7

00004c0a <.bb>:
    4c0a:	cb c2 a9    	bclr.b    0x2cb, #0x6
    4c0c:	c7 c2 a9    	bclr.b    0x2c7, #0x6

00004c0e <.bb>:
    4c0e:	09 ff 2f    	mov.w     #0xfff0, w9
    4c10:	80 04 fd    	exch      w0, w9
    4c12:	e2 22 b6    	and.w     0x2e2
    4c14:	80 04 fd    	exch      w0, w9
    4c16:	fa 0f 2f    	mov.w     #0xf0ff, w10
    4c18:	00 05 fd    	exch      w0, w10
    4c1a:	d6 22 b6    	and.w     0x2d6
    4c1c:	00 05 fd    	exch      w0, w10
    4c1e:	80 04 fd    	exch      w0, w9
    4c20:	de 22 b6    	and.w     0x2de
    4c22:	80 04 fd    	exch      w0, w9
    4c24:	00 05 fd    	exch      w0, w10
    4c26:	d2 22 b6    	and.w     0x2d2
    4c28:	00 05 fd    	exch      w0, w10

00004c2a <.bb>:
    4c2a:	80 04 fd    	exch      w0, w9
    4c2c:	e2 22 b6    	and.w     0x2e2
    4c2e:	80 04 fd    	exch      w0, w9
    4c30:	00 05 fd    	exch      w0, w10
    4c32:	d6 22 b6    	and.w     0x2d6
    4c34:	00 05 fd    	exch      w0, w10
    4c36:	80 04 fd    	exch      w0, w9
    4c38:	de 22 b6    	and.w     0x2de
    4c3a:	80 04 fd    	exch      w0, w9
    4c3c:	00 05 fd    	exch      w0, w10
    4c3e:	d2 22 b6    	and.w     0x2d2
    4c40:	00 05 fd    	exch      w0, w10

00004c42 <.bb>:
    4c42:	d2 82 a8    	bset.b    0x2d2, #0x4
    4c44:	d2 a2 a8    	bset.b    0x2d2, #0x5
    4c46:	d2 c2 a8    	bset.b    0x2d2, #0x6
    4c48:	d3 e2 a8    	bset.b    0x2d3, #0x7
    4c4a:	61 a0 a8    	bset.b    0x61, #0x5
    4c4c:	61 c0 a8    	bset.b    0x61, #0x6
    4c4e:	61 e0 a8    	bset.b    0x61, #0x7
    4c50:	62 a0 a8    	bset.b    0x62, #0x5
    4c52:	86 60 a9    	bclr.b    0x86, #0x3
    4c54:	96 60 a8    	bset.b    0x96, #0x3
    4c56:	20 b5 24    	mov.w     #0x4b52, w0
    4c58:	10 77 88    	mov.w     w0, 0xee2

00004c5a <.bb>:
    4c5a:	c7 02 a9    	bclr.b    0x2c7, #0x0
    4c5c:	c7 62 a9    	bclr.b    0x2c7, #0x3
    4c5e:	cb 02 a8    	bset.b    0x2cb, #0x0
    4c60:	cb 62 a8    	bset.b    0x2cb, #0x3
    4c62:	2d 23 a9    	bclr.b    0x32d, #0x1
    4c64:	2d 43 a9    	bclr.b    0x32d, #0x2
    4c66:	08 f0 2f    	mov.w     #0xff00, w8
    4c68:	00 04 fd    	exch      w0, w8
    4c6a:	c4 22 b6    	and.w     0x2c4
    4c6c:	00 04 fd    	exch      w0, w8
    4c6e:	cb 42 a9    	bclr.b    0x2cb, #0x2
    4c70:	cb 22 a9    	bclr.b    0x2cb, #0x1
    4c72:	00 04 fd    	exch      w0, w8
    4c74:	c0 22 b6    	and.w     0x2c0
    4c76:	00 04 fd    	exch      w0, w8
    4c78:	c7 42 a9    	bclr.b    0x2c7, #0x2
    4c7a:	c7 22 a9    	bclr.b    0x2c7, #0x1
    4c7c:	f0 10 20    	mov.w     #0x10f, w0
    4c7e:	8f fa 07    	rcall     0x419e <_Delay>
    4c80:	00 04 fd    	exch      w0, w8
    4c82:	c4 22 b6    	and.w     0x2c4
    4c84:	00 04 fd    	exch      w0, w8
    4c86:	80 03 20    	mov.w     #0x38, w0
    4c88:	c4 22 b7    	ior.w     0x2c4

00004c8a <.bb>:
    4c8a:	cb 22 a8    	bset.b    0x2cb, #0x1
	...
    4c92:	cb 22 a9    	bclr.b    0x2cb, #0x1

00004c94 <.eb>:
    4c94:	20 01 20    	mov.w     #0x12, w0
    4c96:	78 fa 07    	rcall     0x4188 <_Delay_Us>
    4c98:	00 04 fd    	exch      w0, w8
    4c9a:	c4 22 b6    	and.w     0x2c4
    4c9c:	00 04 fd    	exch      w0, w8
    4c9e:	80 03 20    	mov.w     #0x38, w0
    4ca0:	c4 22 b7    	ior.w     0x2c4

00004ca2 <.bb>:
    4ca2:	cb 22 a8    	bset.b    0x2cb, #0x1
	...
    4caa:	cb 22 a9    	bclr.b    0x2cb, #0x1

00004cac <.eb>:
    4cac:	70 00 20    	mov.w     #0x7, w0
    4cae:	6c fa 07    	rcall     0x4188 <_Delay_Us>
    4cb0:	00 04 fd    	exch      w0, w8
    4cb2:	c4 22 b6    	and.w     0x2c4
    4cb4:	00 04 fd    	exch      w0, w8
    4cb6:	80 03 20    	mov.w     #0x38, w0
    4cb8:	c4 22 b7    	ior.w     0x2c4

00004cba <.bb>:
    4cba:	cb 22 a8    	bset.b    0x2cb, #0x1
	...
    4cc2:	cb 22 a9    	bclr.b    0x2cb, #0x1

00004cc4 <.eb>:
    4cc4:	70 00 20    	mov.w     #0x7, w0
    4cc6:	60 fa 07    	rcall     0x4188 <_Delay_Us>

00004cc8 <.bb>:
    4cc8:	00 04 fd    	exch      w0, w8
    4cca:	c4 22 b6    	and.w     0x2c4
    4ccc:	00 04 fd    	exch      w0, w8
    4cce:	80 03 20    	mov.w     #0x38, w0
    4cd0:	c4 22 b7    	ior.w     0x2c4
    4cd2:	cb 42 a9    	bclr.b    0x2cb, #0x2

00004cd4 <.bb>:
    4cd4:	cb 22 a8    	bset.b    0x2cb, #0x1
	...
    4cdc:	cb 22 a9    	bclr.b    0x2cb, #0x1

00004cde <.eb>:
    4cde:	70 00 20    	mov.w     #0x7, w0
    4ce0:	53 fa 07    	rcall     0x4188 <_Delay_Us>

00004ce2 <.bb>:
    4ce2:	00 04 fd    	exch      w0, w8
    4ce4:	c4 22 b6    	and.w     0x2c4
    4ce6:	00 04 fd    	exch      w0, w8
    4ce8:	c0 00 20    	mov.w     #0xc, w0
    4cea:	c4 22 b7    	ior.w     0x2c4
    4cec:	cb 42 a9    	bclr.b    0x2cb, #0x2

00004cee <.bb>:
    4cee:	cb 22 a8    	bset.b    0x2cb, #0x1
	...
    4cf6:	cb 22 a9    	bclr.b    0x2cb, #0x1

00004cf8 <.eb>:
    4cf8:	70 00 20    	mov.w     #0x7, w0
    4cfa:	46 fa 07    	rcall     0x4188 <_Delay_Us>

00004cfc <.bb>:
    4cfc:	00 04 fd    	exch      w0, w8
    4cfe:	c4 22 b6    	and.w     0x2c4
    4d00:	00 04 fd    	exch      w0, w8
    4d02:	60 00 20    	mov.w     #0x6, w0
    4d04:	c4 22 b7    	ior.w     0x2c4
    4d06:	cb 42 a9    	bclr.b    0x2cb, #0x2

00004d08 <.bb>:
    4d08:	cb 22 a8    	bset.b    0x2cb, #0x1
	...
    4d10:	cb 22 a9    	bclr.b    0x2cb, #0x1

00004d12 <.eb>:
    4d12:	70 00 20    	mov.w     #0x7, w0
    4d14:	39 fa 07    	rcall     0x4188 <_Delay_Us>

00004d16 <.bb>:
    4d16:	00 04 fd    	exch      w0, w8
    4d18:	c4 22 b6    	and.w     0x2c4
    4d1a:	00 04 fd    	exch      w0, w8
    4d1c:	c4 02 a8    	bset.b    0x2c4, #0x0
    4d1e:	cb 42 a9    	bclr.b    0x2cb, #0x2

00004d20 <.bb>:
    4d20:	cb 22 a8    	bset.b    0x2cb, #0x1
	...
    4d28:	cb 22 a9    	bclr.b    0x2cb, #0x1

00004d2a <.eb>:
    4d2a:	70 00 20    	mov.w     #0x7, w0
    4d2c:	2d fa 07    	rcall     0x4188 <_Delay_Us>

00004d2e <.bb>:
    4d2e:	cb c2 a9    	bclr.b    0x2cb, #0x6

00004d30 <.bb>:
    4d30:	00 05 fd    	exch      w0, w10
    4d32:	d6 22 b6    	and.w     0x2d6
    4d34:	00 05 fd    	exch      w0, w10
    4d36:	80 04 fd    	exch      w0, w9
    4d38:	e2 22 b6    	and.w     0x2e2
    4d3a:	80 04 fd    	exch      w0, w9

00004d3c <.eb>:
    4d3c:	d0 f4 29    	mov.w     #0x9f4d, w0
    4d3e:	c6 fd 07    	rcall     0x48cc <_lcd_puts>
    4d40:	44 06 20    	mov.w     #0x64, w4
    4d42:	05 00 20    	mov.w     #0x0, w5
    4d44:	82 3e 20    	mov.w     #0x3e8, w2
    4d46:	03 00 20    	mov.w     #0x0, w3
    4d48:	10 00 20    	mov.w     #0x1, w0
    4d4a:	c6 14 07    	rcall     0x76d8 <_EE_alarm_SetRelAlarm>
    4d4c:	10 c0 b3    	mov.b     #0x1, w0
    4d4e:	20 ef b7    	mov.b     WREG, 0xf20

00004d50 <.L98>:
    4d50:	20 4f e2    	cp0.b     0xf20
    4d52:	fe ff 3a    	bra       NZ, 0x4d50 <.L98>
    4d54:	80 00 eb    	clr.w     w1
    4d56:	02 20 2c    	mov.w     #0xc200, w2
    4d58:	13 00 20    	mov.w     #0x1, w3
    4d5a:	10 c0 b3    	mov.b     #0x1, w0
    4d5c:	86 13 07    	rcall     0x746a <_console_serial_config>
    4d5e:	70 64 88    	mov.w     w0, 0xc8e

00004d60 <.bb>:
    4d60:	e0 79 88    	mov.w     w0, 0xf3c

00004d62 <.bb>:
    4d62:	90 00 90    	mov.w     [w0+2], w1
    4d64:	01 00 e0    	cp0.w     w1
    4d66:	34 00 32    	bra       Z, 0x4dd0 <.L100>
    4d68:	40 00 90    	mov.w     [w0+8], w0
    4d6a:	01 00 01    	call      w1

00004d6c <.eb>:
    4d6c:	e1 0f 40    	add.w     w0, #0x1, [w15]
    4d6e:	30 00 32    	bra       Z, 0x4dd0 <.L100>

00004d70 <.bb>:
    4d70:	cb c2 a9    	bclr.b    0x2cb, #0x6

00004d72 <.eb>:
    4d72:	e0 94 24    	mov.w     #0x494e, w0
    4d74:	a1 04 07    	rcall     0x56b8 <_uwl_simple154_set_rx_callback>
    4d76:	64 c0 b3    	mov.b     #0x6, w4
    4d78:	84 41 78    	mov.b     w4, w3
    4d7a:	82 c1 b3    	mov.b     #0x18, w2
    4d7c:	a1 00 20    	mov.w     #0xa, w1
    4d7e:	10 00 20    	mov.w     #0x1, w0
    4d80:	a0 04 07    	rcall     0x56c2 <_uwl_simple154_init_coordinator>
    4d82:	00 04 e0    	cp0.b     w0
    4d84:	30 00 35    	bra       LT, 0x4de6 <.L132>

00004d86 <.L104>:
    4d86:	96 05 07    	rcall     0x58b4 <_uwl_simple154_gts_clear>
    4d88:	00 04 e0    	cp0.b     w0
    4d8a:	3b 00 35    	bra       LT, 0x4e02 <.L133>
    4d8c:	00 41 eb    	clr.b     w2
    4d8e:	21 c0 b3    	mov.b     #0x2, w1
    4d90:	20 00 20    	mov.w     #0x2, w0
    4d92:	a9 05 07    	rcall     0x58e6 <_uwl_simple154_gts_add>
    4d94:	00 04 e0    	cp0.b     w0
    4d96:	2e 00 35    	bra       LT, 0x4df4 <.L134>
    4d98:	00 41 eb    	clr.b     w2
    4d9a:	21 c0 b3    	mov.b     #0x2, w1
    4d9c:	30 00 20    	mov.w     #0x3, w0
    4d9e:	a3 05 07    	rcall     0x58e6 <_uwl_simple154_gts_add>
    4da0:	00 04 e0    	cp0.b     w0
    4da2:	3d 00 35    	bra       LT, 0x4e1e <.L135>
    4da4:	00 41 eb    	clr.b     w2
    4da6:	21 c0 b3    	mov.b     #0x2, w1
    4da8:	40 00 20    	mov.w     #0x4, w0
    4daa:	9d 05 07    	rcall     0x58e6 <_uwl_simple154_gts_add>
    4dac:	00 04 e0    	cp0.b     w0
    4dae:	3e 00 35    	bra       LT, 0x4e2c <.L136>
    4db0:	12 c0 b3    	mov.b     #0x1, w2
    4db2:	21 c0 b3    	mov.b     #0x2, w1
    4db4:	20 00 20    	mov.w     #0x2, w0
    4db6:	97 05 07    	rcall     0x58e6 <_uwl_simple154_gts_add>
    4db8:	00 04 e0    	cp0.b     w0
    4dba:	3f 00 35    	bra       LT, 0x4e3a <.L137>
    4dbc:	12 c0 b3    	mov.b     #0x1, w2
    4dbe:	21 c0 b3    	mov.b     #0x2, w1
    4dc0:	30 00 20    	mov.w     #0x3, w0
    4dc2:	91 05 07    	rcall     0x58e6 <_uwl_simple154_gts_add>
    4dc4:	00 04 e0    	cp0.b     w0
    4dc6:	24 00 35    	bra       LT, 0x4e10 <.L138>
    4dc8:	d0 00 2a    	mov.w     #0xa00d, w0
    4dca:	80 fd 07    	rcall     0x48cc <_lcd_puts>

00004dcc <.bb>:
    4dcc:	cb c2 a8    	bset.b    0x2cb, #0x6

00004dce <.L125>:
    4dce:	ff ff 37    	bra       .

00004dd0 <.L100>:
    4dd0:	cb c2 a8    	bset.b    0x2cb, #0x6

00004dd2 <.eb>:
    4dd2:	e0 94 24    	mov.w     #0x494e, w0
    4dd4:	71 04 07    	rcall     0x56b8 <_uwl_simple154_set_rx_callback>
    4dd6:	64 c0 b3    	mov.b     #0x6, w4
    4dd8:	84 41 78    	mov.b     w4, w3
    4dda:	82 c1 b3    	mov.b     #0x18, w2
    4ddc:	a1 00 20    	mov.w     #0xa, w1
    4dde:	10 00 20    	mov.w     #0x1, w0
    4de0:	70 04 07    	rcall     0x56c2 <_uwl_simple154_init_coordinator>
    4de2:	00 04 e0    	cp0.b     w0
    4de4:	d0 ff 3d    	bra       GE, 0x4d86 <.L104>

00004de6 <.L132>:
    4de6:	00 f0 20    	mov.w     #0xf00, w0
    4de8:	d6 22 b7    	ior.w     0x2d6
    4dea:	f0 00 20    	mov.w     #0xf, w0
    4dec:	e2 22 b7    	ior.w     0x2e2

00004dee <.eb>:
    4dee:	90 f6 29    	mov.w     #0x9f69, w0
    4df0:	6d fd 07    	rcall     0x48cc <_lcd_puts>

00004df2 <.L106>:
    4df2:	ff ff 37    	bra       .

00004df4 <.L134>:
    4df4:	00 f0 20    	mov.w     #0xf00, w0
    4df6:	d6 22 b7    	ior.w     0x2d6
    4df8:	f0 00 20    	mov.w     #0xf, w0
    4dfa:	e2 22 b7    	ior.w     0x2e2

00004dfc <.eb>:
    4dfc:	80 f9 29    	mov.w     #0x9f98, w0
    4dfe:	66 fd 07    	rcall     0x48cc <_lcd_puts>

00004e00 <.L112>:
    4e00:	ff ff 37    	bra       .

00004e02 <.L133>:
    4e02:	00 f0 20    	mov.w     #0xf00, w0
    4e04:	d6 22 b7    	ior.w     0x2d6
    4e06:	f0 00 20    	mov.w     #0xf, w0
    4e08:	e2 22 b7    	ior.w     0x2e2

00004e0a <.eb>:
    4e0a:	10 f8 29    	mov.w     #0x9f81, w0
    4e0c:	5f fd 07    	rcall     0x48cc <_lcd_puts>

00004e0e <.L109>:
    4e0e:	ff ff 37    	bra       .

00004e10 <.L138>:
    4e10:	00 f0 20    	mov.w     #0xf00, w0
    4e12:	d6 22 b7    	ior.w     0x2d6
    4e14:	f0 00 20    	mov.w     #0xf, w0
    4e16:	e2 22 b7    	ior.w     0x2e2

00004e18 <.eb>:
    4e18:	50 ff 29    	mov.w     #0x9ff5, w0
    4e1a:	58 fd 07    	rcall     0x48cc <_lcd_puts>

00004e1c <.L124>:
    4e1c:	ff ff 37    	bra       .

00004e1e <.L135>:
    4e1e:	00 f0 20    	mov.w     #0xf00, w0
    4e20:	d6 22 b7    	ior.w     0x2d6
    4e22:	f0 00 20    	mov.w     #0xf, w0
    4e24:	e2 22 b7    	ior.w     0x2e2

00004e26 <.eb>:
    4e26:	f0 fa 29    	mov.w     #0x9faf, w0
    4e28:	51 fd 07    	rcall     0x48cc <_lcd_puts>

00004e2a <.L115>:
    4e2a:	ff ff 37    	bra       .

00004e2c <.L136>:
    4e2c:	00 f0 20    	mov.w     #0xf00, w0
    4e2e:	d6 22 b7    	ior.w     0x2d6
    4e30:	f0 00 20    	mov.w     #0xf, w0
    4e32:	e2 22 b7    	ior.w     0x2e2

00004e34 <.eb>:
    4e34:	60 fc 29    	mov.w     #0x9fc6, w0
    4e36:	4a fd 07    	rcall     0x48cc <_lcd_puts>

00004e38 <.L118>:
    4e38:	ff ff 37    	bra       .

00004e3a <.L137>:
    4e3a:	00 f0 20    	mov.w     #0xf00, w0
    4e3c:	d6 22 b7    	ior.w     0x2d6
    4e3e:	f0 00 20    	mov.w     #0xf, w0
    4e40:	e2 22 b7    	ior.w     0x2e2

00004e42 <.eb>:
    4e42:	d0 fd 29    	mov.w     #0x9fdd, w0
    4e44:	43 fd 07    	rcall     0x48cc <_lcd_puts>

00004e46 <.L121>:
    4e46:	ff ff 37    	bra       .

00004e48 <_cc2420_set_rx_callback>:
    4e48:	00 7a 88    	mov.w     w0, 0xf40
    4e4a:	00 00 06    	return    

00004e4c <_cc2420_turn_on>:
    4e4c:	02 00 fa    	lnk       #0x2

00004e4e <.L7>:
    4e4e:	e7 22 a9    	bclr.b    0x2e7, #0x1
    4e50:	8f 80 e9    	dec2.w    w15, w1
    4e52:	10 c0 b3    	mov.b     #0x1, w0
    4e54:	66 12 07    	rcall     0x7322 <_cc2420_spi_put>
    4e56:	e7 22 a8    	bset.b    0x2e7, #0x1
    4e58:	ef f8 97    	mov.b     [w15-2], w1
    4e5a:	01 80 fb    	ze        w1, w0
    4e5c:	00 68 a3    	btst.z    w0, #0x6
    4e5e:	f7 ff 32    	bra       Z, 0x4e4e <.L7>
    4e60:	00 80 fa    	ulnk      
    4e62:	00 00 06    	return    

00004e64 <_cc2420_set_pa>:
    4e64:	88 1f 78    	mov.w     w8, [w15++]
    4e66:	00 44 78    	mov.b     w0, w8
    4e68:	e7 22 a9    	bclr.b    0x2e7, #0x1
    4e6a:	80 00 eb    	clr.w     w1
    4e6c:	50 c1 b3    	mov.b     #0x15, w0
    4e6e:	59 12 07    	rcall     0x7322 <_cc2420_spi_put>
    4e70:	80 00 eb    	clr.w     w1
    4e72:	00 ca b3    	mov.b     #0xa0, w0
    4e74:	56 12 07    	rcall     0x7322 <_cc2420_spi_put>
    4e76:	80 00 eb    	clr.w     w1
    4e78:	08 40 78    	mov.b     w8, w0
    4e7a:	53 12 07    	rcall     0x7322 <_cc2420_spi_put>
    4e7c:	e7 22 a8    	bset.b    0x2e7, #0x1
    4e7e:	10 c0 b3    	mov.b     #0x1, w0
    4e80:	42 ef b7    	mov.b     WREG, 0xf42
    4e82:	4f 04 78    	mov.w     [--w15], w8
    4e84:	00 00 06    	return    

00004e86 <_cc2420_check>:
    4e86:	02 00 fa    	lnk       #0x2
    4e88:	88 9f be    	mov.d     w8, [w15++]
    4e8a:	e7 22 a9    	bclr.b    0x2e7, #0x1
    4e8c:	80 00 eb    	clr.w     w1
    4e8e:	e0 c5 b3    	mov.b     #0x5e, w0
    4e90:	48 12 07    	rcall     0x7322 <_cc2420_spi_put>
    4e92:	e5 84 57    	sub.w     w15, #0x5, w9
    4e94:	09 00 78    	mov.w     w9, w0
    4e96:	53 12 07    	rcall     0x733e <_cc2420_spi_get>
    4e98:	66 80 57    	sub.w     w15, #0x6, w0
    4e9a:	51 12 07    	rcall     0x733e <_cc2420_spi_get>
    4e9c:	e7 22 a8    	bset.b    0x2e7, #0x1
    4e9e:	3f fc 97    	mov.b     [w15-5], w8
    4ea0:	48 44 dd    	sl.w      w8, #0x8, w8
    4ea2:	af f8 97    	mov.b     [w15-6], w1
    4ea4:	01 80 fb    	ze        w1, w0
    4ea6:	00 04 44    	add.w     w8, w0, w8
    4ea8:	e7 22 a9    	bclr.b    0x2e7, #0x1
    4eaa:	80 00 eb    	clr.w     w1
    4eac:	f0 c5 b3    	mov.b     #0x5f, w0
    4eae:	39 12 07    	rcall     0x7322 <_cc2420_spi_put>
    4eb0:	09 00 78    	mov.w     w9, w0
    4eb2:	45 12 07    	rcall     0x733e <_cc2420_spi_get>
    4eb4:	66 80 57    	sub.w     w15, #0x6, w0
    4eb6:	43 12 07    	rcall     0x733e <_cc2420_spi_get>
    4eb8:	e7 22 a8    	bset.b    0x2e7, #0x1
    4eba:	3f f8 97    	mov.b     [w15-5], w0
    4ebc:	48 00 dd    	sl.w      w0, #0x8, w0
    4ebe:	2f f9 97    	mov.b     [w15-6], w2
    4ec0:	82 80 fb    	ze        w2, w1
    4ec2:	01 01 40    	add.w     w0, w1, w2
    4ec4:	d0 33 22    	mov.w     #0x233d, w0
    4ec6:	80 0f 54    	sub.w     w8, w0, [w15]
    4ec8:	05 00 32    	bra       Z, 0x4ed4 <.L25>
    4eca:	11 00 20    	mov.w     #0x1, w1

00004ecc <.L22>:
    4ecc:	01 00 78    	mov.w     w1, w0
    4ece:	4f 04 be    	mov.d     [--w15], w8
    4ed0:	00 80 fa    	ulnk      
    4ed2:	00 00 06    	return    

00004ed4 <.L25>:
    4ed4:	80 00 eb    	clr.w     w1
    4ed6:	00 00 23    	mov.w     #0x3000, w0
    4ed8:	80 0f 51    	sub.w     w2, w0, [w15]
    4eda:	f8 ff 32    	bra       Z, 0x4ecc <.L22>
    4edc:	11 00 20    	mov.w     #0x1, w1
    4ede:	f6 ff 37    	bra       0x4ecc <.L22>

00004ee0 <_cc2420_radio_init>:
    4ee0:	88 1f 78    	mov.w     w8, [w15++]
    4ee2:	00 44 78    	mov.b     w0, w8
    4ee4:	e0 ff 2f    	mov.w     #0xfffe, w0
    4ee6:	42 4f e2    	cp0.b     0xf42
    4ee8:	02 00 32    	bra       Z, 0x4eee <.L36>
    4eea:	4f 04 78    	mov.w     [--w15], w8
    4eec:	00 00 06    	return    

00004eee <.L36>:
    4eee:	02 12 07    	rcall     0x72f4 <_cc2420_hal_init>
    4ef0:	08 40 78    	mov.b     w8, w0
    4ef2:	0f 12 07    	rcall     0x7312 <_cc2420_spi_init>
    4ef4:	00 04 e0    	cp0.b     w0
    4ef6:	04 00 3d    	bra       GE, 0x4f00 <.L37>

00004ef8 <.L31>:
    4ef8:	00 80 eb    	setm.w    w0
    4efa:	4f 04 78    	mov.w     [--w15], w8
    4efc:	00 00 06    	return    
    4efe:	f7 ff 37    	bra       0x4eee <.L36>

00004f00 <.L37>:
    4f00:	e6 02 a9    	bclr.b    0x2e6, #0x0
    4f02:	e7 82 a8    	bset.b    0x2e7, #0x4
    4f04:	80 3e 20    	mov.w     #0x3e8, w0
    4f06:	eb 11 07    	rcall     0x72de <_cc2420_delay_us>
    4f08:	e6 02 a8    	bset.b    0x2e6, #0x0
    4f0a:	00 7d 20    	mov.w     #0x7d0, w0
    4f0c:	e8 11 07    	rcall     0x72de <_cc2420_delay_us>
    4f0e:	9e ff 07    	rcall     0x4e4c <_cc2420_turn_on>
    4f10:	ba ff 07    	rcall     0x4e86 <_cc2420_check>
    4f12:	e1 4f 50    	sub.b     w0, #0x1, [w15]
    4f14:	f1 ff 32    	bra       Z, 0x4ef8 <.L31>
    4f16:	e7 22 a9    	bclr.b    0x2e7, #0x1
    4f18:	80 00 eb    	clr.w     w1
    4f1a:	10 c1 b3    	mov.b     #0x11, w0
    4f1c:	02 12 07    	rcall     0x7322 <_cc2420_spi_put>
    4f1e:	80 00 eb    	clr.w     w1
    4f20:	20 c0 b3    	mov.b     #0x2, w0
    4f22:	ff 11 07    	rcall     0x7322 <_cc2420_spi_put>
    4f24:	80 00 eb    	clr.w     w1
    4f26:	20 ce b3    	mov.b     #0xe2, w0
    4f28:	fc 11 07    	rcall     0x7322 <_cc2420_spi_put>
    4f2a:	80 00 eb    	clr.w     w1
    4f2c:	20 c1 b3    	mov.b     #0x12, w0
    4f2e:	f9 11 07    	rcall     0x7322 <_cc2420_spi_put>
    4f30:	80 00 eb    	clr.w     w1
    4f32:	50 c0 b3    	mov.b     #0x5, w0
    4f34:	f6 11 07    	rcall     0x7322 <_cc2420_spi_put>
    4f36:	80 00 eb    	clr.w     w1
    4f38:	00 40 eb    	clr.b     w0
    4f3a:	f3 11 07    	rcall     0x7322 <_cc2420_spi_put>
    4f3c:	80 00 eb    	clr.w     w1
    4f3e:	90 c1 b3    	mov.b     #0x19, w0
    4f40:	f0 11 07    	rcall     0x7322 <_cc2420_spi_put>
    4f42:	80 00 eb    	clr.w     w1
    4f44:	10 c0 b3    	mov.b     #0x1, w0
    4f46:	ed 11 07    	rcall     0x7322 <_cc2420_spi_put>
    4f48:	80 00 eb    	clr.w     w1
    4f4a:	40 cc b3    	mov.b     #0xc4, w0
    4f4c:	ea 11 07    	rcall     0x7322 <_cc2420_spi_put>
    4f4e:	80 00 eb    	clr.w     w1
    4f50:	c0 c1 b3    	mov.b     #0x1c, w0
    4f52:	e7 11 07    	rcall     0x7322 <_cc2420_spi_put>
    4f54:	80 00 eb    	clr.w     w1
    4f56:	00 40 eb    	clr.b     w0
    4f58:	e4 11 07    	rcall     0x7322 <_cc2420_spi_put>
    4f5a:	80 00 eb    	clr.w     w1
    4f5c:	f0 c7 b3    	mov.b     #0x7f, w0
    4f5e:	e1 11 07    	rcall     0x7322 <_cc2420_spi_put>
    4f60:	e7 22 a8    	bset.b    0x2e7, #0x1
    4f62:	00 c0 eb    	setm.b    w0
    4f64:	7f ff 07    	rcall     0x4e64 <_cc2420_set_pa>
    4f66:	e7 22 a9    	bclr.b    0x2e7, #0x1
    4f68:	80 00 eb    	clr.w     w1
    4f6a:	90 c0 b3    	mov.b     #0x9, w0
    4f6c:	da 11 07    	rcall     0x7322 <_cc2420_spi_put>
    4f6e:	e7 22 a8    	bset.b    0x2e7, #0x1
    4f70:	e7 22 a9    	bclr.b    0x2e7, #0x1
    4f72:	80 00 eb    	clr.w     w1
    4f74:	f0 c7 b3    	mov.b     #0x7f, w0
    4f76:	d5 11 07    	rcall     0x7322 <_cc2420_spi_put>
    4f78:	00 00 eb    	clr.w     w0
    4f7a:	e1 11 07    	rcall     0x733e <_cc2420_spi_get>
    4f7c:	e7 22 a8    	bset.b    0x2e7, #0x1
    4f7e:	e7 22 a9    	bclr.b    0x2e7, #0x1
    4f80:	80 00 eb    	clr.w     w1
    4f82:	80 c0 b3    	mov.b     #0x8, w0
    4f84:	ce 11 07    	rcall     0x7322 <_cc2420_spi_put>
    4f86:	80 00 eb    	clr.w     w1
    4f88:	80 c0 b3    	mov.b     #0x8, w0
    4f8a:	cb 11 07    	rcall     0x7322 <_cc2420_spi_put>
    4f8c:	e7 22 a8    	bset.b    0x2e7, #0x1
    4f8e:	10 00 20    	mov.w     #0x1, w0
    4f90:	4f 04 78    	mov.w     [--w15], w8
    4f92:	00 00 06    	return    
    4f94:	ac ff 37    	bra       0x4eee <.L36>

00004f96 <_cc2420_radio_close>:
    4f96:	42 6f ef    	clr.b     0xf42
    4f98:	c0 11 07    	rcall     0x731a <_cc2420_spi_close>
    4f9a:	00 00 fb    	se        w0, w0
    4f9c:	00 00 06    	return    

00004f9e <_cc2420_get_status>:
    4f9e:	02 00 fa    	lnk       #0x2
    4fa0:	e7 22 a9    	bclr.b    0x2e7, #0x1
    4fa2:	0f 80 e9    	dec2.w    w15, w0
    4fa4:	cc 11 07    	rcall     0x733e <_cc2420_spi_get>
    4fa6:	e7 22 a8    	bset.b    0x2e7, #0x1
    4fa8:	ef f8 97    	mov.b     [w15-2], w1
    4faa:	01 80 fb    	ze        w1, w0
    4fac:	00 80 fa    	ulnk      
    4fae:	00 00 06    	return    

00004fb0 <_cc2420_store_msg>:
    4fb0:	02 00 fa    	lnk       #0x2
    4fb2:	88 9f be    	mov.d     w8, [w15++]
    4fb4:	8a 1f 78    	mov.w     w10, [w15++]
    4fb6:	00 04 78    	mov.w     w0, w8
    4fb8:	01 45 78    	mov.b     w1, w10
    4fba:	01 04 e0    	cp0.b     w1
    4fbc:	16 00 35    	bra       LT, 0x4fea <.L57>
    4fbe:	e7 22 a9    	bclr.b    0x2e7, #0x1
    4fc0:	80 00 eb    	clr.w     w1
    4fc2:	10 c5 b3    	mov.b     #0x51, w0
    4fc4:	ae 11 07    	rcall     0x7322 <_cc2420_spi_put>
    4fc6:	67 80 57    	sub.w     w15, #0x7, w0
    4fc8:	ba 11 07    	rcall     0x733e <_cc2420_spi_get>
    4fca:	68 80 57    	sub.w     w15, #0x8, w0
    4fcc:	b8 11 07    	rcall     0x733e <_cc2420_spi_get>
    4fce:	e7 22 a8    	bset.b    0x2e7, #0x1
    4fd0:	e7 22 a9    	bclr.b    0x2e7, #0x1
    4fd2:	80 00 eb    	clr.w     w1
    4fd4:	e0 c3 b3    	mov.b     #0x3e, w0
    4fd6:	a5 11 07    	rcall     0x7322 <_cc2420_spi_put>
    4fd8:	0f f8 97    	mov.b     [w15-8], w0
    4fda:	80 80 fb    	ze        w0, w1
    4fdc:	01 02 b2    	and.w     #0x20, w1
    4fde:	09 00 3a    	bra       NZ, 0x4ff2 <.L61>
    4fe0:	0a 40 78    	mov.b     w10, w0
    4fe2:	9f 11 07    	rcall     0x7322 <_cc2420_spi_put>
    4fe4:	0a 04 e0    	cp0.b     w10
    4fe6:	0a 00 3a    	bra       NZ, 0x4ffc <.L62>

00004fe8 <.L54>:
    4fe8:	e7 22 a8    	bset.b    0x2e7, #0x1

00004fea <.L57>:
    4fea:	4f 05 78    	mov.w     [--w15], w10
    4fec:	4f 04 be    	mov.d     [--w15], w8
    4fee:	00 80 fa    	ulnk      
    4ff0:	00 00 06    	return    

00004ff2 <.L61>:
    4ff2:	0a c0 e8    	inc2.b    w10, w0
    4ff4:	80 00 eb    	clr.w     w1
    4ff6:	95 11 07    	rcall     0x7322 <_cc2420_spi_put>
    4ff8:	0a 04 e0    	cp0.b     w10
    4ffa:	f6 ff 32    	bra       Z, 0x4fe8 <.L54>

00004ffc <.L62>:
    4ffc:	88 04 78    	mov.w     w8, w9
    4ffe:	00 44 eb    	clr.b     w8

00005000 <.L56>:
    5000:	80 00 eb    	clr.w     w1
    5002:	39 40 78    	mov.b     [w9++], w0
    5004:	8e 11 07    	rcall     0x7322 <_cc2420_spi_put>
    5006:	08 44 e8    	inc.b     w8, w8
    5008:	88 4f 55    	sub.b     w10, w8, [w15]
    500a:	ee ff 32    	bra       Z, 0x4fe8 <.L54>
    500c:	80 00 eb    	clr.w     w1
    500e:	39 40 78    	mov.b     [w9++], w0
    5010:	88 11 07    	rcall     0x7322 <_cc2420_spi_put>
    5012:	08 44 e8    	inc.b     w8, w8
    5014:	88 4f 55    	sub.b     w10, w8, [w15]
    5016:	f4 ff 3a    	bra       NZ, 0x5000 <.L56>
    5018:	e7 ff 37    	bra       0x4fe8 <.L54>

0000501a <_cc2420_store_txfifo>:
    501a:	88 9f be    	mov.d     w8, [w15++]
    501c:	8a 1f 78    	mov.w     w10, [w15++]
    501e:	00 04 78    	mov.w     w0, w8
    5020:	81 44 78    	mov.b     w1, w9
    5022:	01 04 e0    	cp0.b     w1
    5024:	07 00 35    	bra       LT, 0x5034 <.L70>
    5026:	e7 22 a9    	bclr.b    0x2e7, #0x1
    5028:	80 00 eb    	clr.w     w1
    502a:	e0 c3 b3    	mov.b     #0x3e, w0
    502c:	7a 11 07    	rcall     0x7322 <_cc2420_spi_put>
    502e:	09 04 e0    	cp0.b     w9
    5030:	04 00 3a    	bra       NZ, 0x503a <.L74>

00005032 <.L67>:
    5032:	e7 22 a8    	bset.b    0x2e7, #0x1

00005034 <.L70>:
    5034:	4f 05 78    	mov.w     [--w15], w10
    5036:	4f 04 be    	mov.d     [--w15], w8
    5038:	00 00 06    	return    

0000503a <.L74>:
    503a:	08 05 78    	mov.w     w8, w10
    503c:	00 44 eb    	clr.b     w8

0000503e <.L69>:
    503e:	80 00 eb    	clr.w     w1
    5040:	3a 40 78    	mov.b     [w10++], w0
    5042:	6f 11 07    	rcall     0x7322 <_cc2420_spi_put>
    5044:	08 44 e8    	inc.b     w8, w8
    5046:	88 cf 54    	sub.b     w9, w8, [w15]
    5048:	f4 ff 32    	bra       Z, 0x5032 <.L67>
    504a:	80 00 eb    	clr.w     w1
    504c:	3a 40 78    	mov.b     [w10++], w0
    504e:	69 11 07    	rcall     0x7322 <_cc2420_spi_put>
    5050:	08 44 e8    	inc.b     w8, w8
    5052:	88 cf 54    	sub.b     w9, w8, [w15]
    5054:	f4 ff 3a    	bra       NZ, 0x503e <.L69>
    5056:	ed ff 37    	bra       0x5032 <.L67>

00005058 <_cc2420_get_fifo_msg>:
    5058:	88 9f be    	mov.d     w8, [w15++]
    505a:	80 04 78    	mov.w     w0, w9
    505c:	d5 c2 bf    	mov.b     0x2d5, WREG
    505e:	00 68 a3    	btst.z    w0, #0x6
    5060:	24 00 32    	bra       Z, 0x50aa <.L87>
    5062:	e7 22 a9    	bclr.b    0x2e7, #0x1
    5064:	80 00 eb    	clr.w     w1
    5066:	f0 c7 b3    	mov.b     #0x7f, w0
    5068:	5c 11 07    	rcall     0x7322 <_cc2420_spi_put>
    506a:	09 00 78    	mov.w     w9, w0
    506c:	68 11 07    	rcall     0x733e <_cc2420_spi_get>
    506e:	19 40 78    	mov.b     [w9], w0
    5070:	00 04 e0    	cp0.b     w0
    5072:	1b 00 35    	bra       LT, 0x50aa <.L87>
    5074:	00 80 fb    	ze        w0, w0
    5076:	00 00 e8    	inc.w     w0, w0
    5078:	e1 0f 50    	sub.w     w0, #0x1, [w15]
    507a:	04 00 3c    	bra       GT, 0x5084 <.L90>

0000507c <.L84>:
    507c:	e7 22 a8    	bset.b    0x2e7, #0x1
    507e:	19 00 fb    	se        [w9], w0
    5080:	4f 04 be    	mov.d     [--w15], w8
    5082:	00 00 06    	return    

00005084 <.L90>:
    5084:	18 c0 b3    	mov.b     #0x1, w8
    5086:	11 00 20    	mov.w     #0x1, w1

00005088 <.L83>:
    5088:	01 80 44    	add.w     w9, w1, w0
    508a:	59 11 07    	rcall     0x733e <_cc2420_spi_get>
    508c:	08 44 e8    	inc.b     w8, w8
    508e:	88 80 fb    	ze        w8, w1
    5090:	19 80 fb    	ze        [w9], w0
    5092:	00 00 e8    	inc.w     w0, w0
    5094:	80 8f 50    	sub.w     w1, w0, [w15]
    5096:	f2 ff 3d    	bra       GE, 0x507c <.L84>
    5098:	01 80 44    	add.w     w9, w1, w0
    509a:	51 11 07    	rcall     0x733e <_cc2420_spi_get>
    509c:	08 44 e8    	inc.b     w8, w8
    509e:	88 80 fb    	ze        w8, w1
    50a0:	19 80 fb    	ze        [w9], w0
    50a2:	00 00 e8    	inc.w     w0, w0
    50a4:	80 8f 50    	sub.w     w1, w0, [w15]
    50a6:	f0 ff 35    	bra       LT, 0x5088 <.L83>
    50a8:	e9 ff 37    	bra       0x507c <.L84>

000050aa <.L87>:
    50aa:	e7 22 a9    	bclr.b    0x2e7, #0x1
    50ac:	80 00 eb    	clr.w     w1
    50ae:	f0 c7 b3    	mov.b     #0x7f, w0
    50b0:	38 11 07    	rcall     0x7322 <_cc2420_spi_put>
    50b2:	00 00 eb    	clr.w     w0
    50b4:	44 11 07    	rcall     0x733e <_cc2420_spi_get>
    50b6:	e7 22 a8    	bset.b    0x2e7, #0x1
    50b8:	e7 22 a9    	bclr.b    0x2e7, #0x1
    50ba:	80 00 eb    	clr.w     w1
    50bc:	80 c0 b3    	mov.b     #0x8, w0
    50be:	31 11 07    	rcall     0x7322 <_cc2420_spi_put>
    50c0:	80 00 eb    	clr.w     w1
    50c2:	80 c0 b3    	mov.b     #0x8, w0
    50c4:	2e 11 07    	rcall     0x7322 <_cc2420_spi_put>
    50c6:	e7 22 a8    	bset.b    0x2e7, #0x1
    50c8:	00 80 eb    	setm.w    w0
    50ca:	4f 04 be    	mov.d     [--w15], w8
    50cc:	00 00 06    	return    
    50ce:	da ff 37    	bra       0x5084 <.L90>

000050d0 <_cc2420_rssi_get>:
    50d0:	04 00 fa    	lnk       #0x4
    50d2:	e7 22 a9    	bclr.b    0x2e7, #0x1
    50d4:	63 80 57    	sub.w     w15, #0x3, w0
    50d6:	33 11 07    	rcall     0x733e <_cc2420_spi_get>
    50d8:	01 f8 2f    	mov.w     #0xff80, w1
    50da:	5f f8 97    	mov.b     [w15-3], w0
    50dc:	00 18 a3    	btst.z    w0, #0x1
    50de:	03 00 3a    	bra       NZ, 0x50e6 <.L100>
    50e0:	01 00 78    	mov.w     w1, w0
    50e2:	00 80 fa    	ulnk      
    50e4:	00 00 06    	return    

000050e6 <.L100>:
    50e6:	80 00 eb    	clr.w     w1
    50e8:	30 c5 b3    	mov.b     #0x53, w0
    50ea:	1b 11 07    	rcall     0x7322 <_cc2420_spi_put>
    50ec:	0f 80 e9    	dec2.w    w15, w0
    50ee:	27 11 07    	rcall     0x733e <_cc2420_spi_get>
    50f0:	64 80 57    	sub.w     w15, #0x4, w0
    50f2:	25 11 07    	rcall     0x733e <_cc2420_spi_get>
    50f4:	e7 22 a8    	bset.b    0x2e7, #0x1
    50f6:	30 fd 2f    	mov.w     #0xffd3, w0
    50f8:	cf f8 97    	mov.b     [w15-4], w1
    50fa:	00 c0 40    	add.b     w1, w0, w0
    50fc:	80 00 fb    	se        w0, w1
    50fe:	01 00 78    	mov.w     w1, w0
    5100:	00 80 fa    	ulnk      
    5102:	00 00 06    	return    
    5104:	f0 ff 37    	bra       0x50e6 <.L100>

00005106 <_cc2420_FSM_get>:
    5106:	02 00 fa    	lnk       #0x2
    5108:	e7 22 a9    	bclr.b    0x2e7, #0x1
    510a:	80 00 eb    	clr.w     w1
    510c:	c0 c6 b3    	mov.b     #0x6c, w0
    510e:	09 11 07    	rcall     0x7322 <_cc2420_spi_put>
    5110:	0f 00 e9    	dec.w     w15, w0
    5112:	15 11 07    	rcall     0x733e <_cc2420_spi_get>
    5114:	0f 80 e9    	dec2.w    w15, w0
    5116:	13 11 07    	rcall     0x733e <_cc2420_spi_get>
    5118:	e7 22 a8    	bset.b    0x2e7, #0x1
    511a:	ef f8 97    	mov.b     [w15-2], w1
    511c:	01 80 fb    	ze        w1, w0
    511e:	00 80 fa    	ulnk      
    5120:	00 00 06    	return    

00005122 <_cc2420_set_tx>:
    5122:	3d ff 07    	rcall     0x4f9e <_cc2420_get_status>
    5124:	00 68 a3    	btst.z    w0, #0x6
    5126:	06 00 32    	bra       Z, 0x5134 <.L111>
    5128:	e7 22 a9    	bclr.b    0x2e7, #0x1
    512a:	80 00 eb    	clr.w     w1
    512c:	40 c0 b3    	mov.b     #0x4, w0
    512e:	f9 10 07    	rcall     0x7322 <_cc2420_spi_put>
    5130:	e7 22 a8    	bset.b    0x2e7, #0x1
    5132:	00 00 06    	return    

00005134 <.L111>:
    5134:	8b fe 07    	rcall     0x4e4c <_cc2420_turn_on>
    5136:	e7 22 a9    	bclr.b    0x2e7, #0x1
    5138:	80 00 eb    	clr.w     w1
    513a:	40 c0 b3    	mov.b     #0x4, w0
    513c:	f2 10 07    	rcall     0x7322 <_cc2420_spi_put>
    513e:	e7 22 a8    	bset.b    0x2e7, #0x1
    5140:	00 00 06    	return    
    5142:	f8 ff 37    	bra       0x5134 <.L111>

00005144 <_cc2420_set_tx_on_cca>:
    5144:	02 00 fa    	lnk       #0x2
    5146:	e7 22 a9    	bclr.b    0x2e7, #0x1
    5148:	8f 80 e9    	dec2.w    w15, w1
    514a:	50 c0 b3    	mov.b     #0x5, w0
    514c:	ea 10 07    	rcall     0x7322 <_cc2420_spi_put>
    514e:	e7 22 a8    	bset.b    0x2e7, #0x1
    5150:	ef f8 97    	mov.b     [w15-2], w1
    5152:	01 80 fb    	ze        w1, w0
    5154:	00 80 fa    	ulnk      
    5156:	00 00 06    	return    

00005158 <_cc2420_set_rx>:
    5158:	22 ff 07    	rcall     0x4f9e <_cc2420_get_status>
    515a:	00 68 a3    	btst.z    w0, #0x6
    515c:	06 00 32    	bra       Z, 0x516a <.L123>
    515e:	e7 22 a9    	bclr.b    0x2e7, #0x1
    5160:	80 00 eb    	clr.w     w1
    5162:	30 c0 b3    	mov.b     #0x3, w0
    5164:	de 10 07    	rcall     0x7322 <_cc2420_spi_put>
    5166:	e7 22 a8    	bset.b    0x2e7, #0x1
    5168:	00 00 06    	return    

0000516a <.L123>:
    516a:	70 fe 07    	rcall     0x4e4c <_cc2420_turn_on>
    516c:	e7 22 a9    	bclr.b    0x2e7, #0x1
    516e:	80 00 eb    	clr.w     w1
    5170:	30 c0 b3    	mov.b     #0x3, w0
    5172:	d7 10 07    	rcall     0x7322 <_cc2420_spi_put>
    5174:	e7 22 a8    	bset.b    0x2e7, #0x1
    5176:	00 00 06    	return    
    5178:	f8 ff 37    	bra       0x516a <.L123>

0000517a <_cc2420_set_sleep>:
    517a:	00 00 e0    	cp0.w     w0
    517c:	03 00 32    	bra       Z, 0x5184 <.L128>
    517e:	e1 0f 50    	sub.w     w0, #0x1, [w15]
    5180:	07 00 32    	bra       Z, 0x5190 <.L132>
    5182:	00 00 06    	return    

00005184 <.L128>:
    5184:	e7 22 a9    	bclr.b    0x2e7, #0x1
    5186:	80 00 78    	mov.w     w0, w1
    5188:	70 c0 b3    	mov.b     #0x7, w0
    518a:	cb 10 07    	rcall     0x7322 <_cc2420_spi_put>
    518c:	e7 22 a8    	bset.b    0x2e7, #0x1
    518e:	00 00 06    	return    

00005190 <.L132>:
    5190:	e7 22 a9    	bclr.b    0x2e7, #0x1
    5192:	80 00 eb    	clr.w     w1
    5194:	60 c0 b3    	mov.b     #0x6, w0
    5196:	c5 10 07    	rcall     0x7322 <_cc2420_spi_put>
    5198:	e7 22 a8    	bset.b    0x2e7, #0x1
    519a:	00 00 06    	return    

0000519c <_cc2420_set_channel>:
    519c:	88 1f 78    	mov.w     w8, [w15++]
    519e:	00 44 78    	mov.b     w0, w8
    51a0:	6b 40 50    	sub.b     w0, #0xb, w0
    51a2:	ef 4f 50    	sub.b     w0, #0xf, [w15]
    51a4:	02 00 36    	bra       LEU, 0x51aa <.L139>
    51a6:	4f 04 78    	mov.w     [--w15], w8
    51a8:	00 00 06    	return    

000051aa <.L139>:
    51aa:	e7 22 a9    	bclr.b    0x2e7, #0x1
    51ac:	80 00 eb    	clr.w     w1
    51ae:	80 c1 b3    	mov.b     #0x18, w0
    51b0:	b8 10 07    	rcall     0x7322 <_cc2420_spi_put>
    51b2:	80 00 eb    	clr.w     w1
    51b4:	10 c4 b3    	mov.b     #0x41, w0
    51b6:	b5 10 07    	rcall     0x7322 <_cc2420_spi_put>
    51b8:	08 40 78    	mov.b     w8, w0
    51ba:	52 c0 b3    	mov.b     #0x5, w2
    51bc:	04 40 bc    	mul.b     0x4
    51be:	e1 c2 b3    	mov.b     #0x2e, w1
    51c0:	01 40 41    	add.b     w2, w1, w0
    51c2:	80 00 eb    	clr.w     w1
    51c4:	ae 10 07    	rcall     0x7322 <_cc2420_spi_put>
    51c6:	e7 22 a8    	bset.b    0x2e7, #0x1
    51c8:	4f 04 78    	mov.w     [--w15], w8
    51ca:	00 00 06    	return    
    51cc:	ee ff 37    	bra       0x51aa <.L139>

000051ce <_cc2420_set_short_mac_add>:
    51ce:	88 1f 78    	mov.w     w8, [w15++]
    51d0:	00 04 78    	mov.w     w0, w8
    51d2:	e7 22 a9    	bclr.b    0x2e7, #0x1
    51d4:	80 00 eb    	clr.w     w1
    51d6:	a0 ce b3    	mov.b     #0xea, w0
    51d8:	a4 10 07    	rcall     0x7322 <_cc2420_spi_put>
    51da:	80 00 eb    	clr.w     w1
    51dc:	00 c8 b3    	mov.b     #0x80, w0
    51de:	a1 10 07    	rcall     0x7322 <_cc2420_spi_put>
    51e0:	80 00 eb    	clr.w     w1
    51e2:	18 40 78    	mov.b     [w8], w0
    51e4:	9e 10 07    	rcall     0x7322 <_cc2420_spi_put>
    51e6:	18 40 90    	mov.b     [w8+1], w0
    51e8:	80 00 eb    	clr.w     w1
    51ea:	9b 10 07    	rcall     0x7322 <_cc2420_spi_put>
    51ec:	e7 22 a8    	bset.b    0x2e7, #0x1
    51ee:	4f 04 78    	mov.w     [--w15], w8
    51f0:	00 00 06    	return    

000051f2 <_cc2420_set_ex_mac_add>:
    51f2:	88 9f be    	mov.d     w8, [w15++]
    51f4:	80 04 78    	mov.w     w0, w9
    51f6:	e7 22 a9    	bclr.b    0x2e7, #0x1
    51f8:	80 00 eb    	clr.w     w1
    51fa:	00 ce b3    	mov.b     #0xe0, w0
    51fc:	92 10 07    	rcall     0x7322 <_cc2420_spi_put>
    51fe:	80 00 eb    	clr.w     w1
    5200:	00 c8 b3    	mov.b     #0x80, w0
    5202:	8f 10 07    	rcall     0x7322 <_cc2420_spi_put>
    5204:	00 04 eb    	clr.w     w8

00005206 <.L147>:
    5206:	69 40 7c    	mov.b     [w9+w8], w0
    5208:	80 00 eb    	clr.w     w1
    520a:	8b 10 07    	rcall     0x7322 <_cc2420_spi_put>
    520c:	08 04 e8    	inc.w     w8, w8
    520e:	e8 0f 54    	sub.w     w8, #0x8, [w15]
    5210:	fa ff 3a    	bra       NZ, 0x5206 <.L147>
    5212:	e7 22 a8    	bset.b    0x2e7, #0x1
    5214:	4f 04 be    	mov.d     [--w15], w8
    5216:	00 00 06    	return    

00005218 <_cc2420_set_mac_pan_id>:
    5218:	88 1f 78    	mov.w     w8, [w15++]
    521a:	00 04 78    	mov.w     w0, w8
    521c:	e7 22 a9    	bclr.b    0x2e7, #0x1
    521e:	80 00 eb    	clr.w     w1
    5220:	80 ce b3    	mov.b     #0xe8, w0
    5222:	7f 10 07    	rcall     0x7322 <_cc2420_spi_put>
    5224:	80 00 eb    	clr.w     w1
    5226:	00 c8 b3    	mov.b     #0x80, w0
    5228:	7c 10 07    	rcall     0x7322 <_cc2420_spi_put>
    522a:	80 00 eb    	clr.w     w1
    522c:	18 40 78    	mov.b     [w8], w0
    522e:	79 10 07    	rcall     0x7322 <_cc2420_spi_put>
    5230:	18 40 90    	mov.b     [w8+1], w0
    5232:	80 00 eb    	clr.w     w1
    5234:	76 10 07    	rcall     0x7322 <_cc2420_spi_put>
    5236:	e7 22 a8    	bset.b    0x2e7, #0x1
    5238:	4f 04 78    	mov.w     [--w15], w8
    523a:	00 00 06    	return    

0000523c <_ISR2__INT4Interrupt>:
    523c:	8a c0 a9    	bclr.b    0x8a, #0x6
    523e:	40 0f e2    	cp0.w     0xf40
    5240:	02 00 32    	bra       Z, 0x5246 <.L161>
    5242:	00 7a 80    	mov.w     0xf40, w0
    5244:	00 00 01    	call      w0

00005246 <.L161>:
    5246:	00 00 06    	return    

00005248 <__INT4Interrupt>:
    5248:	36 00 f8    	push      0x36
    524a:	80 9f be    	mov.d     w0, [w15++]
    524c:	82 9f be    	mov.d     w2, [w15++]
    524e:	84 9f be    	mov.d     w4, [w15++]
    5250:	86 9f be    	mov.d     w6, [w15++]
    5252:	34 00 f8    	push      0x34
    5254:	00 00 20    	mov.w     #0x0, w0
    5256:	a0 01 88    	mov.w     w0, 0x34

00005258 <.bb>:
    5258:	10 02 80    	mov.w     0x42, w0
    525a:	42 c0 bf    	mov.b     0x42, WREG
    525c:	7f 40 60    	and.b     w0, #0x1f, w0
    525e:	01 cc b3    	mov.b     #0xc0, w1
    5260:	01 40 70    	ior.b     w0, w1, w0
    5262:	42 e0 b7    	mov.b     WREG, 0x42

00005264 <.eb>:
    5264:	10 00 20    	mov.w     #0x1, w0
    5266:	d0 79 88    	mov.w     w0, 0xf3a

00005268 <.eb>:
    5268:	e9 ff 07    	rcall     0x523c <_ISR2__INT4Interrupt>
    526a:	3a 2f ef    	clr.w     0xf3a

0000526c <.bb>:
    526c:	11 12 07    	rcall     0x7690 <_EE_IRQ_end_instance>
    526e:	c0 79 80    	mov.w     0xf38, w0
    5270:	00 00 e0    	cp0.w     w0
    5272:	03 00 35    	bra       LT, 0x527a <.L167>

00005274 <.L168>:
    5274:	1f 12 07    	rcall     0x76b4 <_EE_std_run_task_code>
    5276:	00 00 e0    	cp0.w     w0
    5278:	fd ff 3d    	bra       GE, 0x5274 <.L168>

0000527a <.L167>:
    527a:	34 00 f9    	pop       0x34
    527c:	4f 03 be    	mov.d     [--w15], w6
    527e:	4f 02 be    	mov.d     [--w15], w4
    5280:	4f 01 be    	mov.d     [--w15], w2
    5282:	4f 00 be    	mov.d     [--w15], w0
    5284:	36 00 f9    	pop       0x36
    5286:	00 40 06    	retfie    

00005288 <_uwl_debug_init>:
    5288:	10 00 05    	retlw.w   #0x1, w0

0000528a <_uwl_debug_write>:
    528a:	00 00 05    	retlw.w   #0x0, w0

0000528c <_uwl_debug_print>:
    528c:	10 00 05    	retlw.w   #0x1, w0

0000528e <_uwl_debug_sprint_phycode>:
    528e:	61 01 b8    	mul.uu    w0, #0x1, w2
    5290:	eb 0f 51    	sub.w     w2, #0xb, [w15]
    5292:	e0 8f 59    	subb.w    w3, #0x0, [w15]
    5294:	11 00 3e    	bra       GTU, 0x52b8 <.L28>
    5296:	02 60 01    	bra       w2
    5298:	10 00 37    	bra       0x52ba <.L15>
    529a:	14 00 37    	bra       0x52c4 <.L16>
    529c:	18 00 37    	bra       0x52ce <.L17>
    529e:	1c 00 37    	bra       0x52d8 <.L18>
    52a0:	20 00 37    	bra       0x52e2 <.L19>
    52a2:	24 00 37    	bra       0x52ec <.L20>
    52a4:	28 00 37    	bra       0x52f6 <.L21>
    52a6:	2c 00 37    	bra       0x5300 <.L22>
    52a8:	30 00 37    	bra       0x530a <.L23>
    52aa:	34 00 37    	bra       0x5314 <.L24>
    52ac:	38 00 37    	bra       0x531e <.L25>
    52ae:	00 00 37    	bra       0x52b0 <.L26>

000052b0 <.L26>:
    52b0:	80 b8 29    	mov.w     #0x9b88, w0
    52b2:	11 00 09    	repeat    #0x11
    52b4:	b0 58 78    	mov.b     [w0++], [w1++]
    52b6:	21 01 b1    	sub.w     #0x12, w1

000052b8 <.L28>:
    52b8:	00 00 06    	return    

000052ba <.L15>:
    52ba:	40 ac 29    	mov.w     #0x9ac4, w0
    52bc:	0c 00 09    	repeat    #0xc
    52be:	b0 58 78    	mov.b     [w0++], [w1++]
    52c0:	d1 00 b1    	sub.w     #0xd, w1
    52c2:	00 00 06    	return    

000052c4 <.L16>:
    52c4:	10 ad 29    	mov.w     #0x9ad1, w0
    52c6:	0f 00 09    	repeat    #0xf
    52c8:	b0 58 78    	mov.b     [w0++], [w1++]
    52ca:	01 01 b1    	sub.w     #0x10, w1
    52cc:	00 00 06    	return    

000052ce <.L17>:
    52ce:	10 ae 29    	mov.w     #0x9ae1, w0
    52d0:	0f 00 09    	repeat    #0xf
    52d2:	b0 58 78    	mov.b     [w0++], [w1++]
    52d4:	01 01 b1    	sub.w     #0x10, w1
    52d6:	00 00 06    	return    

000052d8 <.L18>:
    52d8:	10 af 29    	mov.w     #0x9af1, w0
    52da:	15 00 09    	repeat    #0x15
    52dc:	b0 58 78    	mov.b     [w0++], [w1++]
    52de:	61 01 b1    	sub.w     #0x16, w1
    52e0:	00 00 06    	return    

000052e2 <.L19>:
    52e2:	70 b0 29    	mov.w     #0x9b07, w0
    52e4:	0c 00 09    	repeat    #0xc
    52e6:	b0 58 78    	mov.b     [w0++], [w1++]
    52e8:	d1 00 b1    	sub.w     #0xd, w1
    52ea:	00 00 06    	return    

000052ec <.L20>:
    52ec:	40 b1 29    	mov.w     #0x9b14, w0
    52ee:	19 00 09    	repeat    #0x19
    52f0:	b0 58 78    	mov.b     [w0++], [w1++]
    52f2:	a1 01 b1    	sub.w     #0x1a, w1
    52f4:	00 00 06    	return    

000052f6 <.L21>:
    52f6:	e0 b2 29    	mov.w     #0x9b2e, w0
    52f8:	0d 00 09    	repeat    #0xd
    52fa:	b0 58 78    	mov.b     [w0++], [w1++]
    52fc:	e1 00 b1    	sub.w     #0xe, w1
    52fe:	00 00 06    	return    

00005300 <.L22>:
    5300:	c0 b3 29    	mov.w     #0x9b3c, w0
    5302:	0f 00 09    	repeat    #0xf
    5304:	b0 58 78    	mov.b     [w0++], [w1++]
    5306:	01 01 b1    	sub.w     #0x10, w1
    5308:	00 00 06    	return    

0000530a <.L23>:
    530a:	c0 b4 29    	mov.w     #0x9b4c, w0
    530c:	0f 00 09    	repeat    #0xf
    530e:	b0 58 78    	mov.b     [w0++], [w1++]
    5310:	01 01 b1    	sub.w     #0x10, w1
    5312:	00 00 06    	return    

00005314 <.L24>:
    5314:	c0 b5 29    	mov.w     #0x9b5c, w0
    5316:	0d 00 09    	repeat    #0xd
    5318:	b0 58 78    	mov.b     [w0++], [w1++]
    531a:	e1 00 b1    	sub.w     #0xe, w1
    531c:	00 00 06    	return    

0000531e <.L25>:
    531e:	a0 b6 29    	mov.w     #0x9b6a, w0
    5320:	1d 00 09    	repeat    #0x1d
    5322:	b0 58 78    	mov.b     [w0++], [w1++]
    5324:	e1 01 b1    	sub.w     #0x1e, w1
    5326:	00 00 06    	return    

00005328 <_uwl_debug_sprint_maccode>:
    5328:	61 01 b8    	mul.uu    w0, #0x1, w2
    532a:	e0 0f 20    	mov.w     #0xfe, w0
    532c:	80 0f 51    	sub.w     w2, w0, [w15]
    532e:	e0 8f 59    	subb.w    w3, #0x0, [w15]
    5330:	04 01 3e    	bra       GTU, 0x553a <.L73>
    5332:	02 60 01    	bra       w2
    5334:	03 01 37    	bra       0x553c <.L33>
    5336:	07 01 37    	bra       0x5546 <.L34>
    5338:	0b 01 37    	bra       0x5550 <.L35>
    533a:	ff 00 37    	bra       0x553a <.L73>
    533c:	fe 00 37    	bra       0x553a <.L73>
    533e:	fd 00 37    	bra       0x553a <.L73>
    5340:	fc 00 37    	bra       0x553a <.L73>
    5342:	fb 00 37    	bra       0x553a <.L73>
    5344:	fa 00 37    	bra       0x553a <.L73>
    5346:	f9 00 37    	bra       0x553a <.L73>
    5348:	f8 00 37    	bra       0x553a <.L73>
    534a:	f7 00 37    	bra       0x553a <.L73>
    534c:	f6 00 37    	bra       0x553a <.L73>
    534e:	f5 00 37    	bra       0x553a <.L73>
    5350:	f4 00 37    	bra       0x553a <.L73>
    5352:	f3 00 37    	bra       0x553a <.L73>
    5354:	f2 00 37    	bra       0x553a <.L73>
    5356:	f1 00 37    	bra       0x553a <.L73>
    5358:	f0 00 37    	bra       0x553a <.L73>
    535a:	ef 00 37    	bra       0x553a <.L73>
    535c:	ee 00 37    	bra       0x553a <.L73>
    535e:	ed 00 37    	bra       0x553a <.L73>
    5360:	ec 00 37    	bra       0x553a <.L73>
    5362:	eb 00 37    	bra       0x553a <.L73>
    5364:	ea 00 37    	bra       0x553a <.L73>
    5366:	e9 00 37    	bra       0x553a <.L73>
    5368:	e8 00 37    	bra       0x553a <.L73>
    536a:	e7 00 37    	bra       0x553a <.L73>
    536c:	e6 00 37    	bra       0x553a <.L73>
    536e:	e5 00 37    	bra       0x553a <.L73>
    5370:	e4 00 37    	bra       0x553a <.L73>
    5372:	e3 00 37    	bra       0x553a <.L73>
    5374:	e2 00 37    	bra       0x553a <.L73>
    5376:	e1 00 37    	bra       0x553a <.L73>
    5378:	e0 00 37    	bra       0x553a <.L73>
    537a:	df 00 37    	bra       0x553a <.L73>
    537c:	de 00 37    	bra       0x553a <.L73>
    537e:	dd 00 37    	bra       0x553a <.L73>
    5380:	dc 00 37    	bra       0x553a <.L73>
    5382:	db 00 37    	bra       0x553a <.L73>
    5384:	da 00 37    	bra       0x553a <.L73>
    5386:	d9 00 37    	bra       0x553a <.L73>
    5388:	d8 00 37    	bra       0x553a <.L73>
    538a:	d7 00 37    	bra       0x553a <.L73>
    538c:	d6 00 37    	bra       0x553a <.L73>
    538e:	d5 00 37    	bra       0x553a <.L73>
    5390:	d4 00 37    	bra       0x553a <.L73>
    5392:	d3 00 37    	bra       0x553a <.L73>
    5394:	d2 00 37    	bra       0x553a <.L73>
    5396:	d1 00 37    	bra       0x553a <.L73>
    5398:	d0 00 37    	bra       0x553a <.L73>
    539a:	cf 00 37    	bra       0x553a <.L73>
    539c:	ce 00 37    	bra       0x553a <.L73>
    539e:	cd 00 37    	bra       0x553a <.L73>
    53a0:	cc 00 37    	bra       0x553a <.L73>
    53a2:	cb 00 37    	bra       0x553a <.L73>
    53a4:	ca 00 37    	bra       0x553a <.L73>
    53a6:	c9 00 37    	bra       0x553a <.L73>
    53a8:	c8 00 37    	bra       0x553a <.L73>
    53aa:	c7 00 37    	bra       0x553a <.L73>
    53ac:	c6 00 37    	bra       0x553a <.L73>
    53ae:	c5 00 37    	bra       0x553a <.L73>
    53b0:	c4 00 37    	bra       0x553a <.L73>
    53b2:	c3 00 37    	bra       0x553a <.L73>
    53b4:	c2 00 37    	bra       0x553a <.L73>
    53b6:	c1 00 37    	bra       0x553a <.L73>
    53b8:	c0 00 37    	bra       0x553a <.L73>
    53ba:	bf 00 37    	bra       0x553a <.L73>
    53bc:	be 00 37    	bra       0x553a <.L73>
    53be:	bd 00 37    	bra       0x553a <.L73>
    53c0:	bc 00 37    	bra       0x553a <.L73>
    53c2:	bb 00 37    	bra       0x553a <.L73>
    53c4:	ba 00 37    	bra       0x553a <.L73>
    53c6:	b9 00 37    	bra       0x553a <.L73>
    53c8:	b8 00 37    	bra       0x553a <.L73>
    53ca:	b7 00 37    	bra       0x553a <.L73>
    53cc:	b6 00 37    	bra       0x553a <.L73>
    53ce:	b5 00 37    	bra       0x553a <.L73>
    53d0:	b4 00 37    	bra       0x553a <.L73>
    53d2:	b3 00 37    	bra       0x553a <.L73>
    53d4:	b2 00 37    	bra       0x553a <.L73>
    53d6:	b1 00 37    	bra       0x553a <.L73>
    53d8:	b0 00 37    	bra       0x553a <.L73>
    53da:	af 00 37    	bra       0x553a <.L73>
    53dc:	ae 00 37    	bra       0x553a <.L73>
    53de:	ad 00 37    	bra       0x553a <.L73>
    53e0:	ac 00 37    	bra       0x553a <.L73>
    53e2:	ab 00 37    	bra       0x553a <.L73>
    53e4:	aa 00 37    	bra       0x553a <.L73>
    53e6:	a9 00 37    	bra       0x553a <.L73>
    53e8:	a8 00 37    	bra       0x553a <.L73>
    53ea:	a7 00 37    	bra       0x553a <.L73>
    53ec:	a6 00 37    	bra       0x553a <.L73>
    53ee:	a5 00 37    	bra       0x553a <.L73>
    53f0:	a4 00 37    	bra       0x553a <.L73>
    53f2:	a3 00 37    	bra       0x553a <.L73>
    53f4:	a2 00 37    	bra       0x553a <.L73>
    53f6:	a1 00 37    	bra       0x553a <.L73>
    53f8:	a0 00 37    	bra       0x553a <.L73>
    53fa:	9f 00 37    	bra       0x553a <.L73>
    53fc:	9e 00 37    	bra       0x553a <.L73>
    53fe:	9d 00 37    	bra       0x553a <.L73>
    5400:	9c 00 37    	bra       0x553a <.L73>
    5402:	9b 00 37    	bra       0x553a <.L73>
    5404:	9a 00 37    	bra       0x553a <.L73>
    5406:	99 00 37    	bra       0x553a <.L73>
    5408:	98 00 37    	bra       0x553a <.L73>
    540a:	97 00 37    	bra       0x553a <.L73>
    540c:	96 00 37    	bra       0x553a <.L73>
    540e:	95 00 37    	bra       0x553a <.L73>
    5410:	94 00 37    	bra       0x553a <.L73>
    5412:	93 00 37    	bra       0x553a <.L73>
    5414:	92 00 37    	bra       0x553a <.L73>
    5416:	91 00 37    	bra       0x553a <.L73>
    5418:	90 00 37    	bra       0x553a <.L73>
    541a:	8f 00 37    	bra       0x553a <.L73>
    541c:	8e 00 37    	bra       0x553a <.L73>
    541e:	8d 00 37    	bra       0x553a <.L73>
    5420:	8c 00 37    	bra       0x553a <.L73>
    5422:	8b 00 37    	bra       0x553a <.L73>
    5424:	8a 00 37    	bra       0x553a <.L73>
    5426:	89 00 37    	bra       0x553a <.L73>
    5428:	88 00 37    	bra       0x553a <.L73>
    542a:	87 00 37    	bra       0x553a <.L73>
    542c:	86 00 37    	bra       0x553a <.L73>
    542e:	85 00 37    	bra       0x553a <.L73>
    5430:	84 00 37    	bra       0x553a <.L73>
    5432:	83 00 37    	bra       0x553a <.L73>
    5434:	82 00 37    	bra       0x553a <.L73>
    5436:	81 00 37    	bra       0x553a <.L73>
    5438:	80 00 37    	bra       0x553a <.L73>
    543a:	7f 00 37    	bra       0x553a <.L73>
    543c:	7e 00 37    	bra       0x553a <.L73>
    543e:	7d 00 37    	bra       0x553a <.L73>
    5440:	7c 00 37    	bra       0x553a <.L73>
    5442:	7b 00 37    	bra       0x553a <.L73>
    5444:	7a 00 37    	bra       0x553a <.L73>
    5446:	79 00 37    	bra       0x553a <.L73>
    5448:	78 00 37    	bra       0x553a <.L73>
    544a:	77 00 37    	bra       0x553a <.L73>
    544c:	76 00 37    	bra       0x553a <.L73>
    544e:	75 00 37    	bra       0x553a <.L73>
    5450:	74 00 37    	bra       0x553a <.L73>
    5452:	73 00 37    	bra       0x553a <.L73>
    5454:	72 00 37    	bra       0x553a <.L73>
    5456:	71 00 37    	bra       0x553a <.L73>
    5458:	70 00 37    	bra       0x553a <.L73>
    545a:	6f 00 37    	bra       0x553a <.L73>
    545c:	6e 00 37    	bra       0x553a <.L73>
    545e:	6d 00 37    	bra       0x553a <.L73>
    5460:	6c 00 37    	bra       0x553a <.L73>
    5462:	6b 00 37    	bra       0x553a <.L73>
    5464:	6a 00 37    	bra       0x553a <.L73>
    5466:	69 00 37    	bra       0x553a <.L73>
    5468:	68 00 37    	bra       0x553a <.L73>
    546a:	67 00 37    	bra       0x553a <.L73>
    546c:	66 00 37    	bra       0x553a <.L73>
    546e:	65 00 37    	bra       0x553a <.L73>
    5470:	64 00 37    	bra       0x553a <.L73>
    5472:	63 00 37    	bra       0x553a <.L73>
    5474:	62 00 37    	bra       0x553a <.L73>
    5476:	61 00 37    	bra       0x553a <.L73>
    5478:	60 00 37    	bra       0x553a <.L73>
    547a:	5f 00 37    	bra       0x553a <.L73>
    547c:	5e 00 37    	bra       0x553a <.L73>
    547e:	5d 00 37    	bra       0x553a <.L73>
    5480:	5c 00 37    	bra       0x553a <.L73>
    5482:	5b 00 37    	bra       0x553a <.L73>
    5484:	5a 00 37    	bra       0x553a <.L73>
    5486:	59 00 37    	bra       0x553a <.L73>
    5488:	58 00 37    	bra       0x553a <.L73>
    548a:	57 00 37    	bra       0x553a <.L73>
    548c:	56 00 37    	bra       0x553a <.L73>
    548e:	55 00 37    	bra       0x553a <.L73>
    5490:	54 00 37    	bra       0x553a <.L73>
    5492:	53 00 37    	bra       0x553a <.L73>
    5494:	52 00 37    	bra       0x553a <.L73>
    5496:	51 00 37    	bra       0x553a <.L73>
    5498:	50 00 37    	bra       0x553a <.L73>
    549a:	4f 00 37    	bra       0x553a <.L73>
    549c:	4e 00 37    	bra       0x553a <.L73>
    549e:	4d 00 37    	bra       0x553a <.L73>
    54a0:	4c 00 37    	bra       0x553a <.L73>
    54a2:	4b 00 37    	bra       0x553a <.L73>
    54a4:	4a 00 37    	bra       0x553a <.L73>
    54a6:	49 00 37    	bra       0x553a <.L73>
    54a8:	48 00 37    	bra       0x553a <.L73>
    54aa:	47 00 37    	bra       0x553a <.L73>
    54ac:	46 00 37    	bra       0x553a <.L73>
    54ae:	45 00 37    	bra       0x553a <.L73>
    54b0:	44 00 37    	bra       0x553a <.L73>
    54b2:	43 00 37    	bra       0x553a <.L73>
    54b4:	42 00 37    	bra       0x553a <.L73>
    54b6:	41 00 37    	bra       0x553a <.L73>
    54b8:	40 00 37    	bra       0x553a <.L73>
    54ba:	3f 00 37    	bra       0x553a <.L73>
    54bc:	3e 00 37    	bra       0x553a <.L73>
    54be:	3d 00 37    	bra       0x553a <.L73>
    54c0:	3c 00 37    	bra       0x553a <.L73>
    54c2:	3b 00 37    	bra       0x553a <.L73>
    54c4:	3a 00 37    	bra       0x553a <.L73>
    54c6:	39 00 37    	bra       0x553a <.L73>
    54c8:	38 00 37    	bra       0x553a <.L73>
    54ca:	37 00 37    	bra       0x553a <.L73>
    54cc:	36 00 37    	bra       0x553a <.L73>
    54ce:	35 00 37    	bra       0x553a <.L73>
    54d0:	34 00 37    	bra       0x553a <.L73>
    54d2:	33 00 37    	bra       0x553a <.L73>
    54d4:	32 00 37    	bra       0x553a <.L73>
    54d6:	31 00 37    	bra       0x553a <.L73>
    54d8:	30 00 37    	bra       0x553a <.L73>
    54da:	2f 00 37    	bra       0x553a <.L73>
    54dc:	2e 00 37    	bra       0x553a <.L73>
    54de:	2d 00 37    	bra       0x553a <.L73>
    54e0:	2c 00 37    	bra       0x553a <.L73>
    54e2:	2b 00 37    	bra       0x553a <.L73>
    54e4:	2a 00 37    	bra       0x553a <.L73>
    54e6:	29 00 37    	bra       0x553a <.L73>
    54e8:	28 00 37    	bra       0x553a <.L73>
    54ea:	37 00 37    	bra       0x555a <.L36>
    54ec:	3b 00 37    	bra       0x5564 <.L37>
    54ee:	3f 00 37    	bra       0x556e <.L38>
    54f0:	43 00 37    	bra       0x5578 <.L39>
    54f2:	47 00 37    	bra       0x5582 <.L40>
    54f4:	4b 00 37    	bra       0x558c <.L41>
    54f6:	4f 00 37    	bra       0x5596 <.L42>
    54f8:	53 00 37    	bra       0x55a0 <.L43>
    54fa:	57 00 37    	bra       0x55aa <.L44>
    54fc:	5b 00 37    	bra       0x55b4 <.L45>
    54fe:	5f 00 37    	bra       0x55be <.L46>
    5500:	63 00 37    	bra       0x55c8 <.L47>
    5502:	67 00 37    	bra       0x55d2 <.L48>
    5504:	6b 00 37    	bra       0x55dc <.L49>
    5506:	6f 00 37    	bra       0x55e6 <.L50>
    5508:	73 00 37    	bra       0x55f0 <.L51>
    550a:	77 00 37    	bra       0x55fa <.L52>
    550c:	7b 00 37    	bra       0x5604 <.L53>
    550e:	7f 00 37    	bra       0x560e <.L54>
    5510:	83 00 37    	bra       0x5618 <.L55>
    5512:	87 00 37    	bra       0x5622 <.L56>
    5514:	8b 00 37    	bra       0x562c <.L57>
    5516:	8f 00 37    	bra       0x5636 <.L58>
    5518:	93 00 37    	bra       0x5640 <.L59>
    551a:	97 00 37    	bra       0x564a <.L60>
    551c:	9b 00 37    	bra       0x5654 <.L61>
    551e:	9f 00 37    	bra       0x565e <.L62>
    5520:	a3 00 37    	bra       0x5668 <.L63>
    5522:	a7 00 37    	bra       0x5672 <.L64>
    5524:	ab 00 37    	bra       0x567c <.L65>
    5526:	af 00 37    	bra       0x5686 <.L66>
    5528:	b3 00 37    	bra       0x5690 <.L67>
    552a:	b7 00 37    	bra       0x569a <.L68>
    552c:	bb 00 37    	bra       0x56a4 <.L69>
    552e:	bf 00 37    	bra       0x56ae <.L70>
    5530:	00 00 37    	bra       0x5532 <.L71>

00005532 <.L71>:
    5532:	b0 f0 29    	mov.w     #0x9f0b, w0
    5534:	13 00 09    	repeat    #0x13
    5536:	b0 58 78    	mov.b     [w0++], [w1++]
    5538:	41 01 b1    	sub.w     #0x14, w1

0000553a <.L73>:
    553a:	00 00 06    	return    

0000553c <.L33>:
    553c:	a0 b9 29    	mov.w     #0x9b9a, w0
    553e:	0f 00 09    	repeat    #0xf
    5540:	b0 58 78    	mov.b     [w0++], [w1++]
    5542:	01 01 b1    	sub.w     #0x10, w1
    5544:	00 00 06    	return    

00005546 <.L34>:
    5546:	a0 ba 29    	mov.w     #0x9baa, w0
    5548:	17 00 09    	repeat    #0x17
    554a:	b0 58 78    	mov.b     [w0++], [w1++]
    554c:	81 01 b1    	sub.w     #0x18, w1
    554e:	00 00 06    	return    

00005550 <.L35>:
    5550:	20 bc 29    	mov.w     #0x9bc2, w0
    5552:	19 00 09    	repeat    #0x19
    5554:	b0 58 78    	mov.b     [w0++], [w1++]
    5556:	a1 01 b1    	sub.w     #0x1a, w1
    5558:	00 00 06    	return    

0000555a <.L36>:
    555a:	c0 bd 29    	mov.w     #0x9bdc, w0
    555c:	15 00 09    	repeat    #0x15
    555e:	b0 58 78    	mov.b     [w0++], [w1++]
    5560:	61 01 b1    	sub.w     #0x16, w1
    5562:	00 00 06    	return    

00005564 <.L37>:
    5564:	20 bf 29    	mov.w     #0x9bf2, w0
    5566:	19 00 09    	repeat    #0x19
    5568:	b0 58 78    	mov.b     [w0++], [w1++]
    556a:	a1 01 b1    	sub.w     #0x1a, w1
    556c:	00 00 06    	return    

0000556e <.L38>:
    556e:	c0 c0 29    	mov.w     #0x9c0c, w0
    5570:	1f 00 09    	repeat    #0x1f
    5572:	b0 58 78    	mov.b     [w0++], [w1++]
    5574:	01 02 b1    	sub.w     #0x20, w1
    5576:	00 00 06    	return    

00005578 <.L39>:
    5578:	c0 c2 29    	mov.w     #0x9c2c, w0
    557a:	1a 00 09    	repeat    #0x1a
    557c:	b0 58 78    	mov.b     [w0++], [w1++]
    557e:	b1 01 b1    	sub.w     #0x1b, w1
    5580:	00 00 06    	return    

00005582 <.L40>:
    5582:	70 c4 29    	mov.w     #0x9c47, w0
    5584:	1c 00 09    	repeat    #0x1c
    5586:	b0 58 78    	mov.b     [w0++], [w1++]
    5588:	d1 01 b1    	sub.w     #0x1d, w1
    558a:	00 00 06    	return    

0000558c <.L41>:
    558c:	40 c6 29    	mov.w     #0x9c64, w0
    558e:	13 00 09    	repeat    #0x13
    5590:	b0 58 78    	mov.b     [w0++], [w1++]
    5592:	41 01 b1    	sub.w     #0x14, w1
    5594:	00 00 06    	return    

00005596 <.L42>:
    5596:	80 c7 29    	mov.w     #0x9c78, w0
    5598:	1e 00 09    	repeat    #0x1e
    559a:	b0 58 78    	mov.b     [w0++], [w1++]
    559c:	f1 01 b1    	sub.w     #0x1f, w1
    559e:	00 00 06    	return    

000055a0 <.L43>:
    55a0:	70 c9 29    	mov.w     #0x9c97, w0
    55a2:	0f 00 09    	repeat    #0xf
    55a4:	b0 58 78    	mov.b     [w0++], [w1++]
    55a6:	01 01 b1    	sub.w     #0x10, w1
    55a8:	00 00 06    	return    

000055aa <.L44>:
    55aa:	70 ca 29    	mov.w     #0x9ca7, w0
    55ac:	1c 00 09    	repeat    #0x1c
    55ae:	b0 58 78    	mov.b     [w0++], [w1++]
    55b0:	d1 01 b1    	sub.w     #0x1d, w1
    55b2:	00 00 06    	return    

000055b4 <.L45>:
    55b4:	b0 cd 29    	mov.w     #0x9cdb, w0
    55b6:	16 00 09    	repeat    #0x16
    55b8:	b0 58 78    	mov.b     [w0++], [w1++]
    55ba:	71 01 b1    	sub.w     #0x17, w1
    55bc:	00 00 06    	return    

000055be <.L46>:
    55be:	40 cc 29    	mov.w     #0x9cc4, w0
    55c0:	16 00 09    	repeat    #0x16
    55c2:	b0 58 78    	mov.b     [w0++], [w1++]
    55c4:	71 01 b1    	sub.w     #0x17, w1
    55c6:	00 00 06    	return    

000055c8 <.L47>:
    55c8:	20 cf 29    	mov.w     #0x9cf2, w0
    55ca:	13 00 09    	repeat    #0x13
    55cc:	b0 58 78    	mov.b     [w0++], [w1++]
    55ce:	41 01 b1    	sub.w     #0x14, w1
    55d0:	00 00 06    	return    

000055d2 <.L48>:
    55d2:	60 d0 29    	mov.w     #0x9d06, w0
    55d4:	16 00 09    	repeat    #0x16
    55d6:	b0 58 78    	mov.b     [w0++], [w1++]
    55d8:	71 01 b1    	sub.w     #0x17, w1
    55da:	00 00 06    	return    

000055dc <.L49>:
    55dc:	d0 d1 29    	mov.w     #0x9d1d, w0
    55de:	19 00 09    	repeat    #0x19
    55e0:	b0 58 78    	mov.b     [w0++], [w1++]
    55e2:	a1 01 b1    	sub.w     #0x1a, w1
    55e4:	00 00 06    	return    

000055e6 <.L50>:
    55e6:	70 d3 29    	mov.w     #0x9d37, w0
    55e8:	0e 00 09    	repeat    #0xe
    55ea:	b0 58 78    	mov.b     [w0++], [w1++]
    55ec:	f1 00 b1    	sub.w     #0xf, w1
    55ee:	00 00 06    	return    

000055f0 <.L51>:
    55f0:	60 d4 29    	mov.w     #0x9d46, w0
    55f2:	11 00 09    	repeat    #0x11
    55f4:	b0 58 78    	mov.b     [w0++], [w1++]
    55f6:	21 01 b1    	sub.w     #0x12, w1
    55f8:	00 00 06    	return    

000055fa <.L52>:
    55fa:	80 d5 29    	mov.w     #0x9d58, w0
    55fc:	0f 00 09    	repeat    #0xf
    55fe:	b0 58 78    	mov.b     [w0++], [w1++]
    5600:	01 01 b1    	sub.w     #0x10, w1
    5602:	00 00 06    	return    

00005604 <.L53>:
    5604:	80 d6 29    	mov.w     #0x9d68, w0
    5606:	18 00 09    	repeat    #0x18
    5608:	b0 58 78    	mov.b     [w0++], [w1++]
    560a:	91 01 b1    	sub.w     #0x19, w1
    560c:	00 00 06    	return    

0000560e <.L54>:
    560e:	10 d8 29    	mov.w     #0x9d81, w0
    5610:	12 00 09    	repeat    #0x12
    5612:	b0 58 78    	mov.b     [w0++], [w1++]
    5614:	31 01 b1    	sub.w     #0x13, w1
    5616:	00 00 06    	return    

00005618 <.L55>:
    5618:	40 d9 29    	mov.w     #0x9d94, w0
    561a:	17 00 09    	repeat    #0x17
    561c:	b0 58 78    	mov.b     [w0++], [w1++]
    561e:	81 01 b1    	sub.w     #0x18, w1
    5620:	00 00 06    	return    

00005622 <.L56>:
    5622:	c0 da 29    	mov.w     #0x9dac, w0
    5624:	13 00 09    	repeat    #0x13
    5626:	b0 58 78    	mov.b     [w0++], [w1++]
    5628:	41 01 b1    	sub.w     #0x14, w1
    562a:	00 00 06    	return    

0000562c <.L57>:
    562c:	00 dc 29    	mov.w     #0x9dc0, w0
    562e:	1b 00 09    	repeat    #0x1b
    5630:	b0 58 78    	mov.b     [w0++], [w1++]
    5632:	c1 01 b1    	sub.w     #0x1c, w1
    5634:	00 00 06    	return    

00005636 <.L58>:
    5636:	c0 dd 29    	mov.w     #0x9ddc, w0
    5638:	1c 00 09    	repeat    #0x1c
    563a:	b0 58 78    	mov.b     [w0++], [w1++]
    563c:	d1 01 b1    	sub.w     #0x1d, w1
    563e:	00 00 06    	return    

00005640 <.L59>:
    5640:	90 df 29    	mov.w     #0x9df9, w0
    5642:	11 00 09    	repeat    #0x11
    5644:	b0 58 78    	mov.b     [w0++], [w1++]
    5646:	21 01 b1    	sub.w     #0x12, w1
    5648:	00 00 06    	return    

0000564a <.L60>:
    564a:	b0 e0 29    	mov.w     #0x9e0b, w0
    564c:	17 00 09    	repeat    #0x17
    564e:	b0 58 78    	mov.b     [w0++], [w1++]
    5650:	81 01 b1    	sub.w     #0x18, w1
    5652:	00 00 06    	return    

00005654 <.L61>:
    5654:	30 e2 29    	mov.w     #0x9e23, w0
    5656:	1d 00 09    	repeat    #0x1d
    5658:	b0 58 78    	mov.b     [w0++], [w1++]
    565a:	e1 01 b1    	sub.w     #0x1e, w1
    565c:	00 00 06    	return    

0000565e <.L62>:
    565e:	10 e4 29    	mov.w     #0x9e41, w0
    5660:	17 00 09    	repeat    #0x17
    5662:	b0 58 78    	mov.b     [w0++], [w1++]
    5664:	81 01 b1    	sub.w     #0x18, w1
    5666:	00 00 06    	return    

00005668 <.L63>:
    5668:	90 e5 29    	mov.w     #0x9e59, w0
    566a:	18 00 09    	repeat    #0x18
    566c:	b0 58 78    	mov.b     [w0++], [w1++]
    566e:	91 01 b1    	sub.w     #0x19, w1
    5670:	00 00 06    	return    

00005672 <.L64>:
    5672:	20 e7 29    	mov.w     #0x9e72, w0
    5674:	11 00 09    	repeat    #0x11
    5676:	b0 58 78    	mov.b     [w0++], [w1++]
    5678:	21 01 b1    	sub.w     #0x12, w1
    567a:	00 00 06    	return    

0000567c <.L65>:
    567c:	40 e8 29    	mov.w     #0x9e84, w0
    567e:	14 00 09    	repeat    #0x14
    5680:	b0 58 78    	mov.b     [w0++], [w1++]
    5682:	51 01 b1    	sub.w     #0x15, w1
    5684:	00 00 06    	return    

00005686 <.L66>:
    5686:	90 e9 29    	mov.w     #0x9e99, w0
    5688:	15 00 09    	repeat    #0x15
    568a:	b0 58 78    	mov.b     [w0++], [w1++]
    568c:	61 01 b1    	sub.w     #0x16, w1
    568e:	00 00 06    	return    

00005690 <.L67>:
    5690:	f0 ea 29    	mov.w     #0x9eaf, w0
    5692:	15 00 09    	repeat    #0x15
    5694:	b0 58 78    	mov.b     [w0++], [w1++]
    5696:	61 01 b1    	sub.w     #0x16, w1
    5698:	00 00 06    	return    

0000569a <.L68>:
    569a:	50 ec 29    	mov.w     #0x9ec5, w0
    569c:	11 00 09    	repeat    #0x11
    569e:	b0 58 78    	mov.b     [w0++], [w1++]
    56a0:	21 01 b1    	sub.w     #0x12, w1
    56a2:	00 00 06    	return    

000056a4 <.L69>:
    56a4:	70 ed 29    	mov.w     #0x9ed7, w0
    56a6:	18 00 09    	repeat    #0x18
    56a8:	b0 58 78    	mov.b     [w0++], [w1++]
    56aa:	91 01 b1    	sub.w     #0x19, w1
    56ac:	00 00 06    	return    

000056ae <.L70>:
    56ae:	00 ef 29    	mov.w     #0x9ef0, w0
    56b0:	1a 00 09    	repeat    #0x1a
    56b2:	b0 58 78    	mov.b     [w0++], [w1++]
    56b4:	b1 01 b1    	sub.w     #0x1b, w1
    56b6:	00 00 06    	return    

000056b8 <_uwl_simple154_set_rx_callback>:
    56b8:	00 69 88    	mov.w     w0, 0xd20
    56ba:	00 00 06    	return    

000056bc <_uwl_simple154_get_mac_error>:
    56bc:	9d cd bf    	mov.b     0xd9d, WREG
    56be:	00 00 fb    	se        w0, w0
    56c0:	00 00 06    	return    

000056c2 <_uwl_simple154_init_coordinator>:
    56c2:	02 00 fa    	lnk       #0x2
    56c4:	88 9f be    	mov.d     w8, [w15++]
    56c6:	8a 9f be    	mov.d     w10, [w15++]
    56c8:	8c 1f 78    	mov.w     w12, [w15++]
    56ca:	a0 bf 9f    	mov.w     w0, [w15-12]
    56cc:	01 06 78    	mov.w     w1, w12
    56ce:	82 45 78    	mov.b     w2, w11
    56d0:	03 45 78    	mov.b     w3, w10
    56d2:	84 44 78    	mov.b     w4, w9
    56d4:	1e cd bf    	mov.b     0xd1e, WREG
    56d6:	62 44 60    	and.b     w0, #0x2, w8
    56d8:	3c 00 3a    	bra       NZ, 0x5752 <.L27>
    56da:	65 f0 07    	rcall     0x37a6 <_uwl_mac_init>
    56dc:	9d ed b7    	mov.b     WREG, 0xd9d
    56de:	00 04 e0    	cp0.b     w0
    56e0:	53 00 35    	bra       LT, 0x5788 <.L28>
    56e2:	6c 81 57    	sub.w     w15, #0xc, w2
    56e4:	80 00 eb    	clr.w     w1
    56e6:	30 05 20    	mov.w     #0x53, w0
    56e8:	9e 0a 07    	rcall     0x6c26 <_uwl_MLME_SET_request>
    56ea:	9d ed b7    	mov.b     WREG, 0xd9d
    56ec:	00 04 e0    	cp0.b     w0
    56ee:	43 00 35    	bra       LT, 0x5776 <.L29>
    56f0:	1e 0d a8    	bset.b    0xd1e, #0x0
    56f2:	8f 87 e8    	inc2.w    w15, w15
    56f4:	e8 ff 9f    	mov.b     w8, [w15-2]
    56f6:	80 1f eb    	clr.w     [w15++]
    56f8:	e6 87 47    	add.w     w15, #0x6, w15
    56fa:	a8 ff 9f    	mov.b     w8, [w15-6]
    56fc:	c8 ff 9f    	mov.b     w8, [w15-4]
    56fe:	e8 ff 9f    	mov.b     w8, [w15-2]
    5700:	80 1f eb    	clr.w     [w15++]
    5702:	e8 87 47    	add.w     w15, #0x8, w15
    5704:	88 ff 9f    	mov.b     w8, [w15-8]
    5706:	a8 ff 9f    	mov.b     w8, [w15-6]
    5708:	c8 ff 9f    	mov.b     w8, [w15-4]
    570a:	e8 ff 9f    	mov.b     w8, [w15-2]
    570c:	17 c0 b3    	mov.b     #0x1, w7
    570e:	09 43 78    	mov.b     w9, w6
    5710:	8a 41 78    	mov.b     w10, w3
    5712:	60 22 b8    	mul.uu    w4, #0x0, w4
    5714:	08 41 78    	mov.b     w8, w2
    5716:	8b 40 78    	mov.b     w11, w1
    5718:	0c 00 78    	mov.w     w12, w0
    571a:	98 0a 07    	rcall     0x6c4c <_uwl_MLME_START_request>
    571c:	9d ed b7    	mov.b     WREG, 0xd9d
    571e:	f4 87 57    	sub.w     w15, #0x14, w15
    5720:	00 04 e0    	cp0.b     w0
    5722:	20 00 35    	bra       LT, 0x5764 <.L30>

00005724 <.L23>:
    5724:	1e cd bf    	mov.b     0xd1e, WREG
    5726:	00 08 a3    	btst.z    w0, #0x0
    5728:	fd ff 3a    	bra       NZ, 0x5724 <.L23>
    572a:	9c cd bf    	mov.b     0xd9c, WREG
    572c:	0b 00 33    	bra       N, 0x5744 <.L31>
    572e:	1e 2d a8    	bset.b    0xd1e, #0x1
    5730:	1e 4d a8    	bset.b    0xd1e, #0x2
    5732:	dc 6c 88    	mov.w     w12, 0xd9a
    5734:	10 c0 b3    	mov.b     #0x1, w0
    5736:	9c ed b7    	mov.b     WREG, 0xd9c
    5738:	10 00 20    	mov.w     #0x1, w0
    573a:	4f 06 78    	mov.w     [--w15], w12
    573c:	4f 05 be    	mov.d     [--w15], w10
    573e:	4f 04 be    	mov.d     [--w15], w8
    5740:	00 80 fa    	ulnk      
    5742:	00 00 06    	return    

00005744 <.L31>:
    5744:	00 00 fb    	se        w0, w0
    5746:	4f 06 78    	mov.w     [--w15], w12
    5748:	4f 05 be    	mov.d     [--w15], w10
    574a:	4f 04 be    	mov.d     [--w15], w8
    574c:	00 80 fa    	ulnk      
    574e:	00 00 06    	return    
    5750:	f9 ff 37    	bra       0x5744 <.L31>

00005752 <.L27>:
    5752:	b0 cf b3    	mov.b     #0xfb, w0
    5754:	9c ed b7    	mov.b     WREG, 0xd9c
    5756:	b0 ff 2f    	mov.w     #0xfffb, w0
    5758:	4f 06 78    	mov.w     [--w15], w12
    575a:	4f 05 be    	mov.d     [--w15], w10
    575c:	4f 04 be    	mov.d     [--w15], w8
    575e:	00 80 fa    	ulnk      
    5760:	00 00 06    	return    
    5762:	f0 ff 37    	bra       0x5744 <.L31>

00005764 <.L30>:
    5764:	d0 cf b3    	mov.b     #0xfd, w0
    5766:	9c ed b7    	mov.b     WREG, 0xd9c
    5768:	d0 ff 2f    	mov.w     #0xfffd, w0
    576a:	4f 06 78    	mov.w     [--w15], w12
    576c:	4f 05 be    	mov.d     [--w15], w10
    576e:	4f 04 be    	mov.d     [--w15], w8
    5770:	00 80 fa    	ulnk      
    5772:	00 00 06    	return    
    5774:	e7 ff 37    	bra       0x5744 <.L31>

00005776 <.L29>:
    5776:	e0 cf b3    	mov.b     #0xfe, w0
    5778:	9c ed b7    	mov.b     WREG, 0xd9c
    577a:	e0 ff 2f    	mov.w     #0xfffe, w0
    577c:	4f 06 78    	mov.w     [--w15], w12
    577e:	4f 05 be    	mov.d     [--w15], w10
    5780:	4f 04 be    	mov.d     [--w15], w8
    5782:	00 80 fa    	ulnk      
    5784:	00 00 06    	return    
    5786:	de ff 37    	bra       0x5744 <.L31>

00005788 <.L28>:
    5788:	9c ed ef    	setm.b    0xd9c
    578a:	00 80 eb    	setm.w    w0
    578c:	4f 06 78    	mov.w     [--w15], w12
    578e:	4f 05 be    	mov.d     [--w15], w10
    5790:	4f 04 be    	mov.d     [--w15], w8
    5792:	00 80 fa    	ulnk      
    5794:	00 00 06    	return    
    5796:	d6 ff 37    	bra       0x5744 <.L31>

00005798 <_uwl_simple154_init_device>:
    5798:	04 00 fa    	lnk       #0x4
    579a:	88 9f be    	mov.d     w8, [w15++]
    579c:	8a 1f 78    	mov.w     w10, [w15++]
    579e:	b0 bf 9f    	mov.w     w0, [w15-10]
    57a0:	c1 bf 9f    	mov.w     w1, [w15-8]
    57a2:	02 05 78    	mov.w     w2, w10
    57a4:	83 44 78    	mov.b     w3, w9
    57a6:	1e cd bf    	mov.b     0xd1e, WREG
    57a8:	62 44 60    	and.b     w0, #0x2, w8
    57aa:	33 00 3a    	bra       NZ, 0x5812 <.L52>
    57ac:	fc ef 07    	rcall     0x37a6 <_uwl_mac_init>
    57ae:	9d ed b7    	mov.b     WREG, 0xd9d
    57b0:	00 04 e0    	cp0.b     w0
    57b2:	3f 00 35    	bra       LT, 0x5832 <.L53>
    57b4:	1e 0d a8    	bset.b    0xd1e, #0x0
    57b6:	8f 87 e8    	inc2.w    w15, w15
    57b8:	e8 ff 9f    	mov.b     w8, [w15-2]
    57ba:	80 1f eb    	clr.w     [w15++]
    57bc:	88 43 78    	mov.b     w8, w7
    57be:	08 43 78    	mov.b     w8, w6
    57c0:	e5 c8 b3    	mov.b     #0x8e, w5
    57c2:	6c 82 57    	sub.w     w15, #0xc, w4
    57c4:	8a 01 78    	mov.w     w10, w3
    57c6:	22 c0 b3    	mov.b     #0x2, w2
    57c8:	88 40 78    	mov.b     w8, w1
    57ca:	09 40 78    	mov.b     w9, w0
    57cc:	e7 09 07    	rcall     0x6b9c <_uwl_MLME_ASSOCIATE_request>
    57ce:	9d ed b7    	mov.b     WREG, 0xd9d
    57d0:	e4 87 57    	sub.w     w15, #0x4, w15
    57d2:	00 04 e0    	cp0.b     w0
    57d4:	26 00 35    	bra       LT, 0x5822 <.L54>

000057d6 <.L48>:
    57d6:	1e cd bf    	mov.b     0xd1e, WREG
    57d8:	00 08 a3    	btst.z    w0, #0x0
    57da:	fd ff 3a    	bra       NZ, 0x57d6 <.L48>
    57dc:	9c cd bf    	mov.b     0xd9c, WREG
    57de:	13 00 33    	bra       N, 0x5806 <.L55>
    57e0:	6a 81 57    	sub.w     w15, #0xa, w2
    57e2:	80 00 eb    	clr.w     w1
    57e4:	30 05 20    	mov.w     #0x53, w0
    57e6:	1f 0a 07    	rcall     0x6c26 <_uwl_MLME_SET_request>
    57e8:	9d ed b7    	mov.b     WREG, 0xd9d
    57ea:	00 04 e0    	cp0.b     w0
    57ec:	29 00 35    	bra       LT, 0x5840 <.L56>
    57ee:	1e 2d a8    	bset.b    0xd1e, #0x1
    57f0:	1e 4d a9    	bclr.b    0xd1e, #0x2
    57f2:	4f b8 97    	mov.w     [w15-8], w0
    57f4:	c0 6c 88    	mov.w     w0, 0xd98
    57f6:	da 6c 88    	mov.w     w10, 0xd9a
    57f8:	10 c0 b3    	mov.b     #0x1, w0
    57fa:	9c ed b7    	mov.b     WREG, 0xd9c
    57fc:	10 00 20    	mov.w     #0x1, w0
    57fe:	4f 05 78    	mov.w     [--w15], w10
    5800:	4f 04 be    	mov.d     [--w15], w8
    5802:	00 80 fa    	ulnk      
    5804:	00 00 06    	return    

00005806 <.L55>:
    5806:	00 00 fb    	se        w0, w0
    5808:	4f 05 78    	mov.w     [--w15], w10
    580a:	4f 04 be    	mov.d     [--w15], w8
    580c:	00 80 fa    	ulnk      
    580e:	00 00 06    	return    
    5810:	fa ff 37    	bra       0x5806 <.L55>

00005812 <.L52>:
    5812:	b0 cf b3    	mov.b     #0xfb, w0
    5814:	9c ed b7    	mov.b     WREG, 0xd9c
    5816:	b0 ff 2f    	mov.w     #0xfffb, w0
    5818:	4f 05 78    	mov.w     [--w15], w10
    581a:	4f 04 be    	mov.d     [--w15], w8
    581c:	00 80 fa    	ulnk      
    581e:	00 00 06    	return    
    5820:	f2 ff 37    	bra       0x5806 <.L55>

00005822 <.L54>:
    5822:	c0 cf b3    	mov.b     #0xfc, w0
    5824:	9c ed b7    	mov.b     WREG, 0xd9c
    5826:	c0 ff 2f    	mov.w     #0xfffc, w0
    5828:	4f 05 78    	mov.w     [--w15], w10
    582a:	4f 04 be    	mov.d     [--w15], w8
    582c:	00 80 fa    	ulnk      
    582e:	00 00 06    	return    
    5830:	ea ff 37    	bra       0x5806 <.L55>

00005832 <.L53>:
    5832:	9c ed ef    	setm.b    0xd9c
    5834:	00 80 eb    	setm.w    w0
    5836:	4f 05 78    	mov.w     [--w15], w10
    5838:	4f 04 be    	mov.d     [--w15], w8
    583a:	00 80 fa    	ulnk      
    583c:	00 00 06    	return    
    583e:	e3 ff 37    	bra       0x5806 <.L55>

00005840 <.L56>:
    5840:	e0 cf b3    	mov.b     #0xfe, w0
    5842:	9c ed b7    	mov.b     WREG, 0xd9c
    5844:	e0 ff 2f    	mov.w     #0xfffe, w0
    5846:	4f 05 78    	mov.w     [--w15], w10
    5848:	4f 04 be    	mov.d     [--w15], w8
    584a:	00 80 fa    	ulnk      
    584c:	00 00 06    	return    
    584e:	db ff 37    	bra       0x5806 <.L55>

00005850 <_uwl_simple154_send>:
    5850:	02 00 fa    	lnk       #0x2
    5852:	00 02 78    	mov.w     w0, w4
    5854:	f2 bf 9f    	mov.w     w2, [w15-2]
    5856:	1e cd bf    	mov.b     0xd1e, WREG
    5858:	00 18 a3    	btst.z    w0, #0x1
    585a:	20 00 32    	bra       Z, 0x589c <.L69>
    585c:	1e cd bf    	mov.b     0xd1e, WREG
    585e:	00 28 a3    	btst.z    w0, #0x2
    5860:	1a 00 32    	bra       Z, 0x5896 <.L70>

00005862 <.L63>:
    5862:	e1 83 61    	and.w     w3, #0x1, w7
    5864:	87 83 43    	add.w     w7, w7, w7
    5866:	87 83 fb    	ze        w7, w7
    5868:	d2 6c 80    	mov.w     0xd9a, w2
    586a:	8f 87 e8    	inc2.w    w15, w15
    586c:	00 43 eb    	clr.b     w6
    586e:	e6 ff 9f    	mov.b     w6, [w15-2]
    5870:	80 1f eb    	clr.w     [w15++]
    5872:	e4 87 47    	add.w     w15, #0x4, w15
    5874:	c6 ff 9f    	mov.b     w6, [w15-4]
    5876:	e6 ff 9f    	mov.b     w6, [w15-2]
    5878:	84 02 78    	mov.w     w4, w5
    587a:	01 42 78    	mov.b     w1, w4
    587c:	ea 81 57    	sub.w     w15, #0xa, w3
    587e:	21 c0 b3    	mov.b     #0x2, w1
    5880:	01 40 78    	mov.b     w1, w0
    5882:	79 0e 07    	rcall     0x7576 <_uwl_MCPS_DATA_request>
    5884:	9d ed b7    	mov.b     WREG, 0xd9d
    5886:	e8 87 57    	sub.w     w15, #0x8, w15
    5888:	00 04 e0    	cp0.b     w0
    588a:	0e 00 35    	bra       LT, 0x58a8 <.L71>
    588c:	10 c0 b3    	mov.b     #0x1, w0
    588e:	9c ed b7    	mov.b     WREG, 0xd9c
    5890:	10 00 20    	mov.w     #0x1, w0
    5892:	00 80 fa    	ulnk      
    5894:	00 00 06    	return    

00005896 <.L70>:
    5896:	c0 6c 80    	mov.w     0xd98, w0
    5898:	f0 bf 9f    	mov.w     w0, [w15-2]
    589a:	e3 ff 37    	bra       0x5862 <.L63>

0000589c <.L69>:
    589c:	a0 cf b3    	mov.b     #0xfa, w0
    589e:	9c ed b7    	mov.b     WREG, 0xd9c
    58a0:	a0 ff 2f    	mov.w     #0xfffa, w0
    58a2:	00 80 fa    	ulnk      
    58a4:	00 00 06    	return    
    58a6:	f7 ff 37    	bra       0x5896 <.L70>

000058a8 <.L71>:
    58a8:	80 cf b3    	mov.b     #0xf8, w0
    58aa:	9c ed b7    	mov.b     WREG, 0xd9c
    58ac:	80 ff 2f    	mov.w     #0xfff8, w0
    58ae:	00 80 fa    	ulnk      
    58b0:	00 00 06    	return    
    58b2:	f1 ff 37    	bra       0x5896 <.L70>

000058b4 <_uwl_simple154_gts_clear>:
    58b4:	1e cd bf    	mov.b     0xd1e, WREG
    58b6:	00 18 a3    	btst.z    w0, #0x1
    58b8:	0e 00 32    	bra       Z, 0x58d6 <.L84>
    58ba:	1e cd bf    	mov.b     0xd1e, WREG
    58bc:	00 28 a3    	btst.z    w0, #0x2
    58be:	07 00 32    	bra       Z, 0x58ce <.L85>
    58c0:	69 05 07    	rcall     0x6394 <_uwl_mac_gts_db_clean>
    58c2:	9d ed b7    	mov.b     WREG, 0xd9d
    58c4:	00 04 e0    	cp0.b     w0
    58c6:	0b 00 35    	bra       LT, 0x58de <.L86>
    58c8:	10 c0 b3    	mov.b     #0x1, w0
    58ca:	9c ed b7    	mov.b     WREG, 0xd9c
    58cc:	10 00 05    	retlw.w   #0x1, w0

000058ce <.L85>:
    58ce:	50 cf b3    	mov.b     #0xf5, w0
    58d0:	9c ed b7    	mov.b     WREG, 0xd9c
    58d2:	50 ff 2f    	mov.w     #0xfff5, w0
    58d4:	00 00 06    	return    

000058d6 <.L84>:
    58d6:	a0 cf b3    	mov.b     #0xfa, w0
    58d8:	9c ed b7    	mov.b     WREG, 0xd9c
    58da:	a0 ff 2f    	mov.w     #0xfffa, w0
    58dc:	00 00 06    	return    

000058de <.L86>:
    58de:	60 cf b3    	mov.b     #0xf6, w0
    58e0:	9c ed b7    	mov.b     WREG, 0xd9c
    58e2:	60 ff 2f    	mov.w     #0xfff6, w0
    58e4:	00 00 06    	return    

000058e6 <_uwl_simple154_gts_add>:
    58e6:	80 01 78    	mov.w     w0, w3
    58e8:	1e cd bf    	mov.b     0xd1e, WREG
    58ea:	00 18 a3    	btst.z    w0, #0x1
    58ec:	0f 00 32    	bra       Z, 0x590c <.L98>
    58ee:	1e cd bf    	mov.b     0xd1e, WREG
    58f0:	00 28 a3    	btst.z    w0, #0x2
    58f2:	08 00 32    	bra       Z, 0x5904 <.L99>
    58f4:	03 00 78    	mov.w     w3, w0
    58f6:	f3 03 07    	rcall     0x60de <_uwl_mac_gts_db_add>
    58f8:	9d ed b7    	mov.b     WREG, 0xd9d
    58fa:	00 04 e0    	cp0.b     w0
    58fc:	0b 00 35    	bra       LT, 0x5914 <.L100>
    58fe:	10 c0 b3    	mov.b     #0x1, w0
    5900:	9c ed b7    	mov.b     WREG, 0xd9c
    5902:	10 00 05    	retlw.w   #0x1, w0

00005904 <.L99>:
    5904:	50 cf b3    	mov.b     #0xf5, w0
    5906:	9c ed b7    	mov.b     WREG, 0xd9c
    5908:	50 ff 2f    	mov.w     #0xfff5, w0
    590a:	00 00 06    	return    

0000590c <.L98>:
    590c:	a0 cf b3    	mov.b     #0xfa, w0
    590e:	9c ed b7    	mov.b     WREG, 0xd9c
    5910:	a0 ff 2f    	mov.w     #0xfffa, w0
    5912:	00 00 06    	return    

00005914 <.L100>:
    5914:	60 cf b3    	mov.b     #0xf6, w0
    5916:	9c ed b7    	mov.b     WREG, 0xd9c
    5918:	60 ff 2f    	mov.w     #0xfff6, w0
    591a:	00 00 06    	return    

0000591c <_uwl_simple154_set_beacon_payload>:
    591c:	00 01 78    	mov.w     w0, w2
    591e:	1e cd bf    	mov.b     0xd1e, WREG
    5920:	00 18 a3    	btst.z    w0, #0x1
    5922:	0f 00 32    	bra       Z, 0x5942 <.L112>
    5924:	1e cd bf    	mov.b     0xd1e, WREG
    5926:	00 28 a3    	btst.z    w0, #0x2
    5928:	08 00 32    	bra       Z, 0x593a <.L113>
    592a:	02 00 78    	mov.w     w2, w0
    592c:	55 ee 07    	rcall     0x35d8 <_uwl_mac_set_beacon_payload>
    592e:	9d ed b7    	mov.b     WREG, 0xd9d
    5930:	00 04 e0    	cp0.b     w0
    5932:	0b 00 35    	bra       LT, 0x594a <.L114>
    5934:	10 c0 b3    	mov.b     #0x1, w0
    5936:	9c ed b7    	mov.b     WREG, 0xd9c
    5938:	10 00 05    	retlw.w   #0x1, w0

0000593a <.L113>:
    593a:	50 cf b3    	mov.b     #0xf5, w0
    593c:	9c ed b7    	mov.b     WREG, 0xd9c
    593e:	50 ff 2f    	mov.w     #0xfff5, w0
    5940:	00 00 06    	return    

00005942 <.L112>:
    5942:	a0 cf b3    	mov.b     #0xfa, w0
    5944:	9c ed b7    	mov.b     WREG, 0xd9c
    5946:	a0 ff 2f    	mov.w     #0xfffa, w0
    5948:	00 00 06    	return    

0000594a <.L114>:
    594a:	40 cf b3    	mov.b     #0xf4, w0
    594c:	9c ed b7    	mov.b     WREG, 0xd9c
    594e:	40 ff 2f    	mov.w     #0xfff4, w0
    5950:	00 00 06    	return    

00005952 <_uwl_simple154_get_beacon_payload>:
    5952:	00 01 78    	mov.w     w0, w2
    5954:	1e cd bf    	mov.b     0xd1e, WREG
    5956:	00 18 a3    	btst.z    w0, #0x1
    5958:	06 00 32    	bra       Z, 0x5966 <.L124>
    595a:	02 00 78    	mov.w     w2, w0
    595c:	f5 ec 07    	rcall     0x3348 <_uwl_mac_get_beacon_payload>
    595e:	00 04 e0    	cp0.b     w0
    5960:	06 00 35    	bra       LT, 0x596e <.L125>
    5962:	00 00 fb    	se        w0, w0
    5964:	00 00 06    	return    

00005966 <.L124>:
    5966:	a0 cf b3    	mov.b     #0xfa, w0
    5968:	9c ed b7    	mov.b     WREG, 0xd9c
    596a:	a0 ff 2f    	mov.w     #0xfffa, w0
    596c:	00 00 06    	return    

0000596e <.L125>:
    596e:	9d ed b7    	mov.b     WREG, 0xd9d
    5970:	40 cf b3    	mov.b     #0xf4, w0
    5972:	9c ed b7    	mov.b     WREG, 0xd9c
    5974:	40 ff 2f    	mov.w     #0xfff4, w0
    5976:	00 00 06    	return    

00005978 <_uwl_simple154_set_on_beacon_callback>:
    5978:	37 e4 07    	rcall     0x21e8 <_uwl_mac_set_on_beacon_callback>
    597a:	9d ed b7    	mov.b     WREG, 0xd9d
    597c:	00 04 e0    	cp0.b     w0
    597e:	03 00 3d    	bra       GE, 0x5986 <.L128>
    5980:	d0 c0 b3    	mov.b     #0xd, w0
    5982:	9c ed b7    	mov.b     WREG, 0xd9c
    5984:	d0 00 05    	retlw.w   #0xd, w0

00005986 <.L128>:
    5986:	10 c0 b3    	mov.b     #0x1, w0
    5988:	9c ed b7    	mov.b     WREG, 0xd9c
    598a:	10 00 05    	retlw.w   #0x1, w0

0000598c <_uwl_simple154_set_on_rx_beacon_callback>:
    598c:	f4 ec 07    	rcall     0x3376 <_uwl_mac_set_on_rx_beacon_callback>
    598e:	9d ed b7    	mov.b     WREG, 0xd9d
    5990:	00 04 e0    	cp0.b     w0
    5992:	03 00 3d    	bra       GE, 0x599a <.L135>
    5994:	d0 c0 b3    	mov.b     #0xd, w0
    5996:	9c ed b7    	mov.b     WREG, 0xd9c
    5998:	d0 00 05    	retlw.w   #0xd, w0

0000599a <.L135>:
    599a:	10 c0 b3    	mov.b     #0x1, w0
    599c:	9c ed b7    	mov.b     WREG, 0xd9c
    599e:	10 00 05    	retlw.w   #0x1, w0

000059a0 <_uwl_simple154_set_before_beacon_callback>:
    59a0:	21 e4 07    	rcall     0x21e4 <_uwl_mac_set_before_beacon_callback>
    59a2:	9d ed b7    	mov.b     WREG, 0xd9d
    59a4:	00 04 e0    	cp0.b     w0
    59a6:	03 00 3d    	bra       GE, 0x59ae <.L142>
    59a8:	d0 c0 b3    	mov.b     #0xd, w0
    59aa:	9c ed b7    	mov.b     WREG, 0xd9c
    59ac:	d0 00 05    	retlw.w   #0xd, w0

000059ae <.L142>:
    59ae:	10 c0 b3    	mov.b     #0x1, w0
    59b0:	9c ed b7    	mov.b     WREG, 0xd9c
    59b2:	10 00 05    	retlw.w   #0x1, w0

000059b4 <_uwl_simple154_jam_cap>:
    59b4:	00 01 78    	mov.w     w0, w2
    59b6:	1e cd bf    	mov.b     0xd1e, WREG
    59b8:	00 18 a3    	btst.z    w0, #0x1
    59ba:	0b 00 32    	bra       Z, 0x59d2 <.L156>
    59bc:	02 00 78    	mov.w     w2, w0
    59be:	d9 ec 07    	rcall     0x3372 <_uwl_mac_jammer_cap>
    59c0:	9d ed b7    	mov.b     WREG, 0xd9d
    59c2:	00 04 e0    	cp0.b     w0
    59c4:	03 00 3d    	bra       GE, 0x59cc <.L152>
    59c6:	e0 c0 b3    	mov.b     #0xe, w0
    59c8:	9c ed b7    	mov.b     WREG, 0xd9c
    59ca:	e0 00 05    	retlw.w   #0xe, w0

000059cc <.L152>:
    59cc:	10 c0 b3    	mov.b     #0x1, w0
    59ce:	9c ed b7    	mov.b     WREG, 0xd9c
    59d0:	10 00 05    	retlw.w   #0x1, w0

000059d2 <.L156>:
    59d2:	a0 cf b3    	mov.b     #0xfa, w0
    59d4:	9c ed b7    	mov.b     WREG, 0xd9c
    59d6:	a0 ff 2f    	mov.w     #0xfffa, w0
    59d8:	00 00 06    	return    

000059da <_uwl_MCPS_DATA_confirm>:
    59da:	01 00 e0    	cp0.w     w1
    59dc:	02 00 32    	bra       Z, 0x59e2 <.L159>
    59de:	70 cf b3    	mov.b     #0xf7, w0
    59e0:	9c ed b7    	mov.b     WREG, 0xd9c

000059e2 <.L159>:
    59e2:	1e 0d a9    	bclr.b    0xd1e, #0x0
    59e4:	10 00 05    	retlw.w   #0x1, w0

000059e6 <_uwl_MCPS_DATA_indication>:
    59e6:	02 00 fa    	lnk       #0x2
    59e8:	88 9f be    	mov.d     w8, [w15++]
    59ea:	8a 9f be    	mov.d     w10, [w15++]
    59ec:	00 45 78    	mov.b     w0, w10
    59ee:	82 05 78    	mov.w     w2, w11
    59f0:	06 44 78    	mov.b     w6, w8
    59f2:	87 04 78    	mov.w     w7, w9
    59f4:	20 0d e2    	cp0.w     0xd20
    59f6:	03 00 32    	bra       Z, 0x59fe <.L165>
    59f8:	60 c7 b3    	mov.b     #0x76, w0
    59fa:	80 4f 53    	sub.b     w6, w0, [w15]
    59fc:	05 00 36    	bra       LEU, 0x5a08 <.L173>

000059fe <.L165>:
    59fe:	10 00 20    	mov.w     #0x1, w0
    5a00:	4f 05 be    	mov.d     [--w15], w10
    5a02:	4f 04 be    	mov.d     [--w15], w8
    5a04:	00 80 fa    	ulnk      
    5a06:	00 00 06    	return    

00005a08 <.L173>:
    5a08:	62 07 20    	mov.w     #0x76, w2
    5a0a:	80 00 eb    	clr.w     w1
    5a0c:	20 d2 20    	mov.w     #0xd22, w0
    5a0e:	30 da 07    	rcall     0xe70 <_memset>
    5a10:	08 81 fb    	ze        w8, w2
    5a12:	89 00 78    	mov.w     w9, w1
    5a14:	20 d2 20    	mov.w     #0xd22, w0
    5a16:	33 da 07    	rcall     0xe7e <_memcpy>
    5a18:	e2 4f 55    	sub.b     w10, #0x2, [w15]
    5a1a:	0e 00 32    	bra       Z, 0x5a38 <.L174>
    5a1c:	e0 ff 2f    	mov.w     #0xfffe, w0
    5a1e:	b0 bf 9f    	mov.w     w0, [w15-10]
    5a20:	bf b9 97    	mov.w     [w15-10], w3
    5a22:	08 41 78    	mov.b     w8, w2
    5a24:	21 d2 20    	mov.w     #0xd22, w1
    5a26:	10 c0 b3    	mov.b     #0x1, w0
    5a28:	04 69 80    	mov.w     0xd20, w4
    5a2a:	04 00 01    	call      w4

00005a2c <.L175>:
    5a2c:	10 00 20    	mov.w     #0x1, w0
    5a2e:	4f 05 be    	mov.d     [--w15], w10
    5a30:	4f 04 be    	mov.d     [--w15], w8
    5a32:	00 80 fa    	ulnk      
    5a34:	00 00 06    	return    
    5a36:	e8 ff 37    	bra       0x5a08 <.L173>

00005a38 <.L174>:
    5a38:	1b 40 78    	mov.b     [w11], w0
    5a3a:	e0 f7 9f    	mov.b     w0, [w15-10]
    5a3c:	9b 45 90    	mov.b     [w11+1], w11
    5a3e:	fb f7 9f    	mov.b     w11, [w15-9]
    5a40:	bf b9 97    	mov.w     [w15-10], w3
    5a42:	08 41 78    	mov.b     w8, w2
    5a44:	21 d2 20    	mov.w     #0xd22, w1
    5a46:	10 c0 b3    	mov.b     #0x1, w0
    5a48:	04 69 80    	mov.w     0xd20, w4
    5a4a:	04 00 01    	call      w4
    5a4c:	ef ff 37    	bra       0x5a2c <.L175>

00005a4e <_uwl_MCPS_PURGE_confirm>:
    5a4e:	10 00 05    	retlw.w   #0x1, w0

00005a50 <_uwl_MLME_ASSOCIATE_confirm>:
    5a50:	01 00 e0    	cp0.w     w1
    5a52:	02 00 32    	bra       Z, 0x5a58 <.L183>
    5a54:	c0 cf b3    	mov.b     #0xfc, w0
    5a56:	9c ed b7    	mov.b     WREG, 0xd9c

00005a58 <.L183>:
    5a58:	1e 0d a9    	bclr.b    0xd1e, #0x0
    5a5a:	10 00 05    	retlw.w   #0x1, w0

00005a5c <_uwl_MLME_ASSOCIATE_indication>:
    5a5c:	91 7a 80    	mov.w     0xf52, w1
    5a5e:	81 00 e8    	inc.w     w1, w1
    5a60:	91 7a 88    	mov.w     w1, 0xf52
    5a62:	05 43 78    	mov.b     w5, w6
    5a64:	84 02 78    	mov.w     w4, w5
    5a66:	03 42 78    	mov.b     w3, w4
    5a68:	82 41 78    	mov.b     w2, w3
    5a6a:	00 01 eb    	clr.w     w2
    5a6c:	58 09 07    	rcall     0x6d1e <_uwl_MLME_ASSOCIATE_response>
    5a6e:	10 00 05    	retlw.w   #0x1, w0

00005a70 <_uwl_MLME_DISASSOCIATE_confirm>:
    5a70:	10 00 05    	retlw.w   #0x1, w0

00005a72 <_uwl_MLME_BEACON_NOTIFY_indication>:
    5a72:	00 00 fa    	lnk       #0x0
    5a74:	10 00 20    	mov.w     #0x1, w0
    5a76:	00 80 fa    	ulnk      
    5a78:	00 00 06    	return    

00005a7a <_uwl_MLME_GET_confirm>:
    5a7a:	10 00 05    	retlw.w   #0x1, w0

00005a7c <_uwl_MLME_GTS_confirm>:
    5a7c:	10 00 05    	retlw.w   #0x1, w0

00005a7e <_uwl_MLME_GTS_indication>:
    5a7e:	10 00 05    	retlw.w   #0x1, w0

00005a80 <_uwl_MLME_ORPHAN_indication>:
    5a80:	10 00 05    	retlw.w   #0x1, w0

00005a82 <_uwl_MLME_RESET_confirm>:
    5a82:	10 00 05    	retlw.w   #0x1, w0

00005a84 <_uwl_MLME_RX_ENABLE_confirm>:
    5a84:	10 00 05    	retlw.w   #0x1, w0

00005a86 <_uwl_MLME_SCAN_confirm>:
    5a86:	10 00 05    	retlw.w   #0x1, w0

00005a88 <_uwl_MLME_COMM_STATUS_indication>:
    5a88:	00 00 fa    	lnk       #0x0
    5a8a:	10 00 20    	mov.w     #0x1, w0
    5a8c:	00 80 fa    	ulnk      
    5a8e:	00 00 06    	return    

00005a90 <_uwl_MLME_SET_confirm>:
    5a90:	1e 0d a9    	bclr.b    0xd1e, #0x0
    5a92:	10 00 05    	retlw.w   #0x1, w0

00005a94 <_uwl_MLME_START_confirm>:
    5a94:	00 00 e0    	cp0.w     w0
    5a96:	02 00 32    	bra       Z, 0x5a9c <.L237>
    5a98:	d0 cf b3    	mov.b     #0xfd, w0
    5a9a:	9c ed b7    	mov.b     WREG, 0xd9c

00005a9c <.L237>:
    5a9c:	1e 0d a9    	bclr.b    0xd1e, #0x0
    5a9e:	10 00 05    	retlw.w   #0x1, w0

00005aa0 <_uwl_MLME_SYNC_LOSS_indication>:
    5aa0:	10 00 05    	retlw.w   #0x1, w0

00005aa2 <_uwl_MLME_POLL_confirm>:
    5aa2:	10 00 05    	retlw.w   #0x1, w0

00005aa4 <_list_last>:
    5aa4:	80 01 78    	mov.w     w0, w3
    5aa6:	90 00 78    	mov.w     [w0], w1
    5aa8:	00 00 eb    	clr.w     w0
    5aaa:	e2 8f 40    	add.w     w1, #0x2, [w15]
    5aac:	0e 00 32    	bra       Z, 0x5aca <.L4>
    5aae:	63 01 90    	mov.w     [w3+12], w2
    5ab0:	01 80 40    	add.w     w1, w1, w0
    5ab2:	60 00 79    	mov.w     [w0+w2], w0
    5ab4:	e2 0f 40    	add.w     w0, #0x2, [w15]
    5ab6:	05 00 32    	bra       Z, 0x5ac2 <.L6>

00005ab8 <.L10>:
    5ab8:	80 00 78    	mov.w     w0, w1
    5aba:	01 80 40    	add.w     w1, w1, w0
    5abc:	60 00 79    	mov.w     [w0+w2], w0
    5abe:	e2 0f 40    	add.w     w0, #0x2, [w15]
    5ac0:	fb ff 3a    	bra       NZ, 0x5ab8 <.L10>

00005ac2 <.L6>:
    5ac2:	43 00 90    	mov.w     [w3+8], w0
    5ac4:	00 88 b9    	mul.ss    w1, w0, w0
    5ac6:	53 01 90    	mov.w     [w3+10], w2
    5ac8:	00 00 41    	add.w     w2, w0, w0

00005aca <.L4>:
    5aca:	00 00 06    	return    

00005acc <_list_at>:
    5acc:	00 02 78    	mov.w     w0, w4
    5ace:	90 01 78    	mov.w     [w0], w3
    5ad0:	e2 8f 41    	add.w     w3, #0x2, [w15]
    5ad2:	01 00 3a    	bra       NZ, 0x5ad6 <.L24>

00005ad4 <.L13>:
    5ad4:	00 00 05    	retlw.w   #0x0, w0

00005ad6 <.L24>:
    5ad6:	10 00 90    	mov.w     [w0+2], w0
    5ad8:	81 0f 50    	sub.w     w0, w1, [w15]
    5ada:	fc ff 36    	bra       LEU, 0x5ad4 <.L13>
    5adc:	01 00 e0    	cp0.w     w1
    5ade:	07 00 32    	bra       Z, 0x5aee <.L17>
    5ae0:	e4 02 90    	mov.w     [w4+12], w5
    5ae2:	00 01 eb    	clr.w     w2

00005ae4 <.L16>:
    5ae4:	03 80 41    	add.w     w3, w3, w0
    5ae6:	e0 81 7a    	mov.w     [w0+w5], w3
    5ae8:	02 01 e8    	inc.w     w2, w2
    5aea:	82 8f 50    	sub.w     w1, w2, [w15]
    5aec:	fb ff 3a    	bra       NZ, 0x5ae4 <.L16>

00005aee <.L17>:
    5aee:	44 00 90    	mov.w     [w4+8], w0
    5af0:	00 98 b9    	mul.ss    w3, w0, w0
    5af2:	54 01 90    	mov.w     [w4+10], w2
    5af4:	00 00 41    	add.w     w2, w0, w0
    5af6:	00 00 06    	return    

00005af8 <_list_pop_front>:
    5af8:	80 01 78    	mov.w     w0, w3
    5afa:	10 02 78    	mov.w     [w0], w4
    5afc:	10 00 90    	mov.w     [w0+2], w0
    5afe:	00 00 e0    	cp0.w     w0
    5b00:	0b 00 32    	bra       Z, 0x5b18 <.L29>
    5b02:	00 00 e9    	dec.w     w0, w0
    5b04:	90 01 98    	mov.w     w0, [w3+2]
    5b06:	04 01 42    	add.w     w4, w4, w2
    5b08:	e3 00 90    	mov.w     [w3+12], w1
    5b0a:	e2 89 78    	mov.w     [w2+w1], [w3]
    5b0c:	00 80 eb    	setm.w    w0
    5b0e:	80 30 79    	mov.w     w0, [w1+w2]
    5b10:	43 00 90    	mov.w     [w3+8], w0
    5b12:	00 a0 b9    	mul.ss    w4, w0, w0
    5b14:	53 01 90    	mov.w     [w3+10], w2
    5b16:	00 00 41    	add.w     w2, w0, w0

00005b18 <.L29>:
    5b18:	00 00 06    	return    

00005b1a <_list_pop_back>:
    5b1a:	80 02 78    	mov.w     w0, w5
    5b1c:	10 00 90    	mov.w     [w0+2], w0
    5b1e:	00 00 e0    	cp0.w     w0
    5b20:	19 00 32    	bra       Z, 0x5b54 <.L36>
    5b22:	00 00 e9    	dec.w     w0, w0
    5b24:	90 02 98    	mov.w     w0, [w5+2]
    5b26:	95 00 78    	mov.w     [w5], w1
    5b28:	65 02 90    	mov.w     [w5+12], w4
    5b2a:	01 01 78    	mov.w     w1, w2
    5b2c:	02 00 41    	add.w     w2, w2, w0
    5b2e:	80 01 42    	add.w     w4, w0, w3
    5b30:	13 00 78    	mov.w     [w3], w0
    5b32:	e2 0f 40    	add.w     w0, #0x2, [w15]
    5b34:	07 00 32    	bra       Z, 0x5b44 <.L38>

00005b36 <.L42>:
    5b36:	82 00 78    	mov.w     w2, w1
    5b38:	00 01 78    	mov.w     w0, w2
    5b3a:	02 00 41    	add.w     w2, w2, w0
    5b3c:	80 01 42    	add.w     w4, w0, w3
    5b3e:	13 00 78    	mov.w     [w3], w0
    5b40:	e2 0f 40    	add.w     w0, #0x2, [w15]
    5b42:	f9 ff 3a    	bra       NZ, 0x5b36 <.L42>

00005b44 <.L38>:
    5b44:	80 89 eb    	setm.w    [w3]
    5b46:	81 80 40    	add.w     w1, w1, w1
    5b48:	e0 ff 2f    	mov.w     #0xfffe, w0
    5b4a:	80 30 7a    	mov.w     w0, [w1+w4]
    5b4c:	45 00 90    	mov.w     [w5+8], w0
    5b4e:	00 90 b9    	mul.ss    w2, w0, w0
    5b50:	55 01 90    	mov.w     [w5+10], w2
    5b52:	00 00 41    	add.w     w2, w0, w0

00005b54 <.L36>:
    5b54:	00 00 06    	return    

00005b56 <_list_extract>:
    5b56:	00 02 78    	mov.w     w0, w4
    5b58:	01 00 e0    	cp0.w     w1
    5b5a:	01 00 3a    	bra       NZ, 0x5b5e <.L45>
    5b5c:	cd ff 37    	bra       0x5af8 <_list_pop_front>

00005b5e <.L45>:
    5b5e:	10 00 90    	mov.w     [w0+2], w0
    5b60:	00 00 e0    	cp0.w     w0
    5b62:	01 00 3a    	bra       NZ, 0x5b66 <.L60>

00005b64 <.L48>:
    5b64:	00 00 05    	retlw.w   #0x0, w0

00005b66 <.L60>:
    5b66:	80 8f 50    	sub.w     w1, w0, [w15]
    5b68:	fd ff 31    	bra       C, 0x5b64 <.L48>
    5b6a:	00 00 e9    	dec.w     w0, w0
    5b6c:	80 8f 50    	sub.w     w1, w0, [w15]
    5b6e:	1c 00 32    	bra       Z, 0x5ba8 <.L61>
    5b70:	14 00 78    	mov.w     [w4], w0
    5b72:	01 01 e9    	dec.w     w1, w2
    5b74:	e1 8f 50    	sub.w     w1, #0x1, [w15]
    5b76:	08 00 36    	bra       LEU, 0x5b88 <.L58>
    5b78:	e4 01 90    	mov.w     [w4+12], w3

00005b7a <.L55>:
    5b7a:	00 00 40    	add.w     w0, w0, w0
    5b7c:	60 80 79    	mov.w     [w0+w3], w0
    5b7e:	82 00 e9    	dec.w     w2, w1
    5b80:	e1 0f 51    	sub.w     w2, #0x1, [w15]
    5b82:	03 00 36    	bra       LEU, 0x5b8a <.L53>
    5b84:	01 01 78    	mov.w     w1, w2
    5b86:	f9 ff 37    	bra       0x5b7a <.L55>

00005b88 <.L58>:
    5b88:	e4 01 90    	mov.w     [w4+12], w3

00005b8a <.L53>:
    5b8a:	00 00 40    	add.w     w0, w0, w0
    5b8c:	00 80 41    	add.w     w3, w0, w0
    5b8e:	10 01 78    	mov.w     [w0], w2
    5b90:	82 00 41    	add.w     w2, w2, w1
    5b92:	61 88 79    	mov.w     [w1+w3], [w0]
    5b94:	00 80 eb    	setm.w    w0
    5b96:	80 b1 78    	mov.w     w0, [w3+w1]
    5b98:	14 00 90    	mov.w     [w4+2], w0
    5b9a:	00 00 e9    	dec.w     w0, w0
    5b9c:	10 02 98    	mov.w     w0, [w4+2]
    5b9e:	44 00 90    	mov.w     [w4+8], w0
    5ba0:	00 91 b9    	mul.ss    w2, w0, w2
    5ba2:	54 00 90    	mov.w     [w4+10], w0
    5ba4:	02 00 40    	add.w     w0, w2, w0
    5ba6:	00 00 06    	return    

00005ba8 <.L61>:
    5ba8:	04 00 78    	mov.w     w4, w0
    5baa:	b7 ff 37    	bra       0x5b1a <_list_pop_back>

00005bac <_list_iter_at>:
    5bac:	00 02 78    	mov.w     w0, w4
    5bae:	90 01 78    	mov.w     [w0], w3
    5bb0:	e2 8f 41    	add.w     w3, #0x2, [w15]
    5bb2:	01 00 3a    	bra       NZ, 0x5bb6 <.L75>

00005bb4 <.L64>:
    5bb4:	00 00 05    	retlw.w   #0x0, w0

00005bb6 <.L75>:
    5bb6:	10 00 90    	mov.w     [w0+2], w0
    5bb8:	81 0f 50    	sub.w     w0, w1, [w15]
    5bba:	fc ff 39    	bra       NC, 0x5bb4 <.L64>
    5bbc:	01 00 e0    	cp0.w     w1
    5bbe:	07 00 32    	bra       Z, 0x5bce <.L68>
    5bc0:	e4 02 90    	mov.w     [w4+12], w5
    5bc2:	00 01 eb    	clr.w     w2

00005bc4 <.L67>:
    5bc4:	03 80 41    	add.w     w3, w3, w0
    5bc6:	e0 81 7a    	mov.w     [w0+w5], w3
    5bc8:	02 01 e8    	inc.w     w2, w2
    5bca:	82 8f 50    	sub.w     w1, w2, [w15]
    5bcc:	fb ff 3a    	bra       NZ, 0x5bc4 <.L67>

00005bce <.L68>:
    5bce:	33 02 98    	mov.w     w3, [w4+6]
    5bd0:	44 00 90    	mov.w     [w4+8], w0
    5bd2:	00 98 b9    	mul.ss    w3, w0, w0
    5bd4:	54 01 90    	mov.w     [w4+10], w2
    5bd6:	00 00 41    	add.w     w2, w0, w0
    5bd8:	00 00 06    	return    

00005bda <_list_iter_front>:
    5bda:	00 01 78    	mov.w     w0, w2
    5bdc:	90 00 78    	mov.w     [w0], w1
    5bde:	00 00 eb    	clr.w     w0
    5be0:	e2 8f 40    	add.w     w1, #0x2, [w15]
    5be2:	05 00 32    	bra       Z, 0x5bee <.L80>
    5be4:	31 01 98    	mov.w     w1, [w2+6]
    5be6:	42 00 90    	mov.w     [w2+8], w0
    5be8:	00 88 b9    	mul.ss    w1, w0, w0
    5bea:	52 01 90    	mov.w     [w2+10], w2
    5bec:	00 00 41    	add.w     w2, w0, w0

00005bee <.L80>:
    5bee:	00 00 06    	return    

00005bf0 <_list_iter_next>:
    5bf0:	00 01 78    	mov.w     w0, w2
    5bf2:	30 00 90    	mov.w     [w0+6], w0
    5bf4:	e2 00 90    	mov.w     [w2+12], w1
    5bf6:	00 00 40    	add.w     w0, w0, w0
    5bf8:	e0 80 78    	mov.w     [w0+w1], w1
    5bfa:	31 01 98    	mov.w     w1, [w2+6]
    5bfc:	00 00 eb    	clr.w     w0
    5bfe:	e2 8f 40    	add.w     w1, #0x2, [w15]
    5c00:	04 00 32    	bra       Z, 0x5c0a <.L87>
    5c02:	42 00 90    	mov.w     [w2+8], w0
    5c04:	00 88 b9    	mul.ss    w1, w0, w0
    5c06:	52 01 90    	mov.w     [w2+10], w2
    5c08:	00 00 41    	add.w     w2, w0, w0

00005c0a <.L87>:
    5c0a:	00 00 06    	return    

00005c0c <_list_iter_current>:
    5c0c:	00 01 78    	mov.w     w0, w2
    5c0e:	b0 00 90    	mov.w     [w0+6], w1
    5c10:	00 00 eb    	clr.w     w0
    5c12:	e2 8f 40    	add.w     w1, #0x2, [w15]
    5c14:	04 00 32    	bra       Z, 0x5c1e <.L94>
    5c16:	42 00 90    	mov.w     [w2+8], w0
    5c18:	00 88 b9    	mul.ss    w1, w0, w0
    5c1a:	52 01 90    	mov.w     [w2+10], w2
    5c1c:	00 00 41    	add.w     w2, w0, w0

00005c1e <.L94>:
    5c1e:	00 00 06    	return    

00005c20 <_list_iter_extract>:
    5c20:	00 00 05    	retlw.w   #0x0, w0

00005c22 <_list_push_front>:
    5c22:	80 01 78    	mov.w     w0, w3
    5c24:	a0 02 90    	mov.w     [w0+4], w5
    5c26:	10 00 90    	mov.w     [w0+2], w0
    5c28:	80 00 eb    	clr.w     w1
    5c2a:	85 0f 50    	sub.w     w0, w5, [w15]
    5c2c:	11 00 32    	bra       Z, 0x5c50 <.L105>
    5c2e:	93 03 78    	mov.w     [w3], w7
    5c30:	e2 8f 43    	add.w     w7, #0x2, [w15]
    5c32:	28 00 32    	bra       Z, 0x5c84 <.L119>

00005c34 <.bb>:
    5c34:	05 00 e0    	cp0.w     w5
    5c36:	0e 00 3a    	bra       NZ, 0x5c54 <.L120>
    5c38:	63 03 90    	mov.w     [w3+12], w6

00005c3a <.L112>:
    5c3a:	80 00 eb    	clr.w     w1
    5c3c:	01 01 78    	mov.w     w1, w2

00005c3e <.eb>:
    5c3e:	07 31 7b    	mov.w     w7, [w2+w6]
    5c40:	81 09 78    	mov.w     w1, [w3]
    5c42:	13 00 90    	mov.w     [w3+2], w0
    5c44:	00 00 e8    	inc.w     w0, w0
    5c46:	90 01 98    	mov.w     w0, [w3+2]
    5c48:	43 00 90    	mov.w     [w3+8], w0
    5c4a:	00 88 b9    	mul.ss    w1, w0, w0
    5c4c:	53 01 90    	mov.w     [w3+10], w2
    5c4e:	80 00 41    	add.w     w2, w0, w1

00005c50 <.L105>:
    5c50:	01 00 78    	mov.w     w1, w0
    5c52:	00 00 06    	return    

00005c54 <.L120>:
    5c54:	63 03 90    	mov.w     [w3+12], w6
    5c56:	80 00 eb    	clr.w     w1
    5c58:	24 00 20    	mov.w     #0x2, w4
    5c5a:	00 80 eb    	setm.w    w0
    5c5c:	96 0f 10    	subr.w    w0, [w6], [w15]
    5c5e:	ed ff 32    	bra       Z, 0x5c3a <.L112>

00005c60 <.L110>:
    5c60:	81 00 e8    	inc.w     w1, w1
    5c62:	81 8f 52    	sub.w     w5, w1, [w15]
    5c64:	18 00 32    	bra       Z, 0x5c96 <.L121>

00005c66 <.eb>:
    5c66:	04 01 78    	mov.w     w4, w2
    5c68:	04 82 e8    	inc2.w    w4, w4

00005c6a <.bb>:
    5c6a:	66 00 79    	mov.w     [w6+w2], w0
    5c6c:	e1 0f 40    	add.w     w0, #0x1, [w15]
    5c6e:	f8 ff 3a    	bra       NZ, 0x5c60 <.L110>

00005c70 <.eb>:
    5c70:	07 31 7b    	mov.w     w7, [w2+w6]
    5c72:	81 09 78    	mov.w     w1, [w3]
    5c74:	13 00 90    	mov.w     [w3+2], w0
    5c76:	00 00 e8    	inc.w     w0, w0
    5c78:	90 01 98    	mov.w     w0, [w3+2]
    5c7a:	43 00 90    	mov.w     [w3+8], w0
    5c7c:	00 88 b9    	mul.ss    w1, w0, w0
    5c7e:	53 01 90    	mov.w     [w3+10], w2
    5c80:	80 00 41    	add.w     w2, w0, w1
    5c82:	e6 ff 37    	bra       0x5c50 <.L105>

00005c84 <.L119>:
    5c84:	80 09 eb    	clr.w     [w3]
    5c86:	63 00 90    	mov.w     [w3+12], w0
    5c88:	07 08 78    	mov.w     w7, [w0]
    5c8a:	13 00 90    	mov.w     [w3+2], w0
    5c8c:	00 00 e8    	inc.w     w0, w0
    5c8e:	90 01 98    	mov.w     w0, [w3+2]
    5c90:	53 00 90    	mov.w     [w3+10], w0
    5c92:	00 00 06    	return    
    5c94:	df ff 37    	bra       0x5c54 <.L120>

00005c96 <.L121>:
    5c96:	01 81 40    	add.w     w1, w1, w2

00005c98 <.eb>:
    5c98:	07 31 7b    	mov.w     w7, [w2+w6]
    5c9a:	81 09 78    	mov.w     w1, [w3]
    5c9c:	13 00 90    	mov.w     [w3+2], w0
    5c9e:	00 00 e8    	inc.w     w0, w0
    5ca0:	90 01 98    	mov.w     w0, [w3+2]
    5ca2:	43 00 90    	mov.w     [w3+8], w0
    5ca4:	00 88 b9    	mul.ss    w1, w0, w0
    5ca6:	53 01 90    	mov.w     [w3+10], w2
    5ca8:	80 00 41    	add.w     w2, w0, w1
    5caa:	d2 ff 37    	bra       0x5c50 <.L105>

00005cac <_list_push_back>:
    5cac:	80 02 78    	mov.w     w0, w5
    5cae:	20 03 90    	mov.w     [w0+4], w6
    5cb0:	10 00 90    	mov.w     [w0+2], w0
    5cb2:	80 00 eb    	clr.w     w1
    5cb4:	86 0f 50    	sub.w     w0, w6, [w15]
    5cb6:	22 00 32    	bra       Z, 0x5cfc <.L127>
    5cb8:	95 00 78    	mov.w     [w5], w1
    5cba:	e2 8f 40    	add.w     w1, #0x2, [w15]
    5cbc:	2f 00 32    	bra       Z, 0x5d1c <.L142>
    5cbe:	e5 01 90    	mov.w     [w5+12], w3

00005cc0 <.L130>:
    5cc0:	01 82 40    	add.w     w1, w1, w4
    5cc2:	03 01 42    	add.w     w4, w3, w2
    5cc4:	92 00 78    	mov.w     [w2], w1
    5cc6:	e2 8f 40    	add.w     w1, #0x2, [w15]
    5cc8:	fb ff 3a    	bra       NZ, 0x5cc0 <.L130>

00005cca <.bb>:
    5cca:	06 00 e0    	cp0.w     w6
    5ccc:	19 00 32    	bra       Z, 0x5d00 <.L135>
    5cce:	00 80 eb    	setm.w    w0
    5cd0:	93 0f 10    	subr.w    w0, [w3], [w15]
    5cd2:	16 00 32    	bra       Z, 0x5d00 <.L135>
    5cd4:	83 80 e8    	inc2.w    w3, w1
    5cd6:	00 00 eb    	clr.w     w0

00005cd8 <.L134>:
    5cd8:	00 00 e8    	inc.w     w0, w0
    5cda:	80 0f 53    	sub.w     w6, w0, [w15]
    5cdc:	03 00 32    	bra       Z, 0x5ce4 <.L133>
    5cde:	80 83 eb    	setm.w    w7
    5ce0:	b1 8f 13    	subr.w    w7, [w1++], [w15]
    5ce2:	fa ff 3a    	bra       NZ, 0x5cd8 <.L134>

00005ce4 <.L133>:
    5ce4:	00 09 78    	mov.w     w0, [w2]
    5ce6:	63 01 7a    	mov.w     [w3+w4], w2
    5ce8:	82 00 41    	add.w     w2, w2, w1
    5cea:	e0 ff 2f    	mov.w     #0xfffe, w0
    5cec:	80 b0 79    	mov.w     w0, [w1+w3]
    5cee:	15 00 90    	mov.w     [w5+2], w0
    5cf0:	00 00 e8    	inc.w     w0, w0
    5cf2:	90 02 98    	mov.w     w0, [w5+2]
    5cf4:	45 00 90    	mov.w     [w5+8], w0
    5cf6:	00 91 b9    	mul.ss    w2, w0, w2
    5cf8:	55 00 90    	mov.w     [w5+10], w0
    5cfa:	82 00 40    	add.w     w0, w2, w1

00005cfc <.L127>:
    5cfc:	01 00 78    	mov.w     w1, w0
    5cfe:	00 00 06    	return    

00005d00 <.L135>:
    5d00:	00 00 eb    	clr.w     w0

00005d02 <.eb>:
    5d02:	00 09 78    	mov.w     w0, [w2]
    5d04:	63 01 7a    	mov.w     [w3+w4], w2
    5d06:	82 00 41    	add.w     w2, w2, w1
    5d08:	e0 ff 2f    	mov.w     #0xfffe, w0
    5d0a:	80 b0 79    	mov.w     w0, [w1+w3]
    5d0c:	15 00 90    	mov.w     [w5+2], w0
    5d0e:	00 00 e8    	inc.w     w0, w0
    5d10:	90 02 98    	mov.w     w0, [w5+2]
    5d12:	45 00 90    	mov.w     [w5+8], w0
    5d14:	00 91 b9    	mul.ss    w2, w0, w2
    5d16:	55 00 90    	mov.w     [w5+10], w0
    5d18:	82 00 40    	add.w     w0, w2, w1
    5d1a:	f0 ff 37    	bra       0x5cfc <.L127>

00005d1c <.L142>:
    5d1c:	80 0a eb    	clr.w     [w5]
    5d1e:	65 00 90    	mov.w     [w5+12], w0
    5d20:	01 08 78    	mov.w     w1, [w0]
    5d22:	15 00 90    	mov.w     [w5+2], w0
    5d24:	00 00 e8    	inc.w     w0, w0
    5d26:	90 02 98    	mov.w     w0, [w5+2]
    5d28:	55 00 90    	mov.w     [w5+10], w0
    5d2a:	00 00 06    	return    
    5d2c:	e9 ff 37    	bra       0x5d00 <.L135>

00005d2e <_list_insert>:
    5d2e:	80 01 78    	mov.w     w0, w3
    5d30:	01 00 e0    	cp0.w     w1
    5d32:	09 00 32    	bra       Z, 0x5d46 <.L168>
    5d34:	10 00 90    	mov.w     [w0+2], w0
    5d36:	80 8f 50    	sub.w     w1, w0, [w15]
    5d38:	02 00 3a    	bra       NZ, 0x5d3e <.L149>
    5d3a:	03 00 78    	mov.w     w3, w0
    5d3c:	b7 ff 37    	bra       0x5cac <_list_push_back>

00005d3e <.L149>:
    5d3e:	a3 03 90    	mov.w     [w3+4], w7
    5d40:	87 0f 50    	sub.w     w0, w7, [w15]
    5d42:	02 00 3a    	bra       NZ, 0x5d48 <.L169>

00005d44 <.L151>:
    5d44:	00 00 05    	retlw.w   #0x0, w0

00005d46 <.L168>:
    5d46:	6d ff 37    	bra       0x5c22 <_list_push_front>

00005d48 <.L169>:
    5d48:	80 8f 50    	sub.w     w1, w0, [w15]
    5d4a:	fc ff 3e    	bra       GTU, 0x5d44 <.L151>
    5d4c:	13 02 78    	mov.w     [w3], w4
    5d4e:	01 01 e9    	dec.w     w1, w2
    5d50:	e1 8f 50    	sub.w     w1, #0x1, [w15]
    5d52:	08 00 36    	bra       LEU, 0x5d64 <.L166>
    5d54:	e3 02 90    	mov.w     [w3+12], w5

00005d56 <.L156>:
    5d56:	04 00 42    	add.w     w4, w4, w0
    5d58:	60 82 7a    	mov.w     [w0+w5], w4
    5d5a:	02 00 e9    	dec.w     w2, w0
    5d5c:	e1 0f 51    	sub.w     w2, #0x1, [w15]
    5d5e:	03 00 36    	bra       LEU, 0x5d66 <.L154>
    5d60:	00 01 78    	mov.w     w0, w2
    5d62:	f9 ff 37    	bra       0x5d56 <.L156>

00005d64 <.L166>:
    5d64:	e3 02 90    	mov.w     [w3+12], w5

00005d66 <.L154>:
    5d66:	07 00 e0    	cp0.w     w7
    5d68:	18 00 32    	bra       Z, 0x5d9a <.L159>
    5d6a:	80 00 eb    	clr.w     w1
    5d6c:	26 00 20    	mov.w     #0x2, w6
    5d6e:	00 80 eb    	setm.w    w0
    5d70:	95 0f 10    	subr.w    w0, [w5], [w15]
    5d72:	13 00 32    	bra       Z, 0x5d9a <.L159>

00005d74 <.L162>:
    5d74:	81 00 e8    	inc.w     w1, w1
    5d76:	81 8f 53    	sub.w     w7, w1, [w15]
    5d78:	1d 00 32    	bra       Z, 0x5db4 <.L170>
    5d7a:	06 01 78    	mov.w     w6, w2
    5d7c:	06 83 e8    	inc2.w    w6, w6
    5d7e:	65 00 79    	mov.w     [w5+w2], w0
    5d80:	e1 0f 40    	add.w     w0, #0x1, [w15]
    5d82:	f8 ff 3a    	bra       NZ, 0x5d74 <.L162>

00005d84 <.eb>:
    5d84:	04 00 42    	add.w     w4, w4, w0
    5d86:	60 b1 7a    	mov.w     [w0+w5], [w2+w5]
    5d88:	81 32 78    	mov.w     w1, [w5+w0]
    5d8a:	13 00 90    	mov.w     [w3+2], w0
    5d8c:	00 00 e8    	inc.w     w0, w0
    5d8e:	90 01 98    	mov.w     w0, [w3+2]
    5d90:	43 00 90    	mov.w     [w3+8], w0
    5d92:	00 88 b9    	mul.ss    w1, w0, w0
    5d94:	53 01 90    	mov.w     [w3+10], w2
    5d96:	00 00 41    	add.w     w2, w0, w0
    5d98:	00 00 06    	return    

00005d9a <.L159>:
    5d9a:	80 00 eb    	clr.w     w1
    5d9c:	01 01 78    	mov.w     w1, w2

00005d9e <.eb>:
    5d9e:	04 00 42    	add.w     w4, w4, w0
    5da0:	60 b1 7a    	mov.w     [w0+w5], [w2+w5]
    5da2:	81 32 78    	mov.w     w1, [w5+w0]
    5da4:	13 00 90    	mov.w     [w3+2], w0
    5da6:	00 00 e8    	inc.w     w0, w0
    5da8:	90 01 98    	mov.w     w0, [w3+2]
    5daa:	43 00 90    	mov.w     [w3+8], w0
    5dac:	00 88 b9    	mul.ss    w1, w0, w0
    5dae:	53 01 90    	mov.w     [w3+10], w2
    5db0:	00 00 41    	add.w     w2, w0, w0
    5db2:	00 00 06    	return    

00005db4 <.L170>:
    5db4:	01 81 40    	add.w     w1, w1, w2

00005db6 <.eb>:
    5db6:	04 00 42    	add.w     w4, w4, w0
    5db8:	60 b1 7a    	mov.w     [w0+w5], [w2+w5]
    5dba:	81 32 78    	mov.w     w1, [w5+w0]
    5dbc:	13 00 90    	mov.w     [w3+2], w0
    5dbe:	00 00 e8    	inc.w     w0, w0
    5dc0:	90 01 98    	mov.w     w0, [w3+2]
    5dc2:	43 00 90    	mov.w     [w3+8], w0
    5dc4:	00 88 b9    	mul.ss    w1, w0, w0
    5dc6:	53 01 90    	mov.w     [w3+10], w2
    5dc8:	00 00 41    	add.w     w2, w0, w0
    5dca:	00 00 06    	return    

00005dcc <_FuncUWL_EE_TASK_PHY_READ_DISPATCHER>:
    5dcc:	80 7a 80    	mov.w     0xf50, w0
    5dce:	00 00 e0    	cp0.w     w0
    5dd0:	01 00 32    	bra       Z, 0x5dd4 <.L4>
    5dd2:	00 00 01    	call      w0

00005dd4 <.L4>:
    5dd4:	00 00 06    	return    

00005dd6 <_phy_read_dispatcher>:
    5dd6:	02 01 fa    	lnk       #0x102
    5dd8:	88 1f 78    	mov.w     w8, [w15++]

00005dda <.bb>:
    5dda:	b8 f7 2f    	mov.w     #0xff7b, w8
    5ddc:	08 84 47    	add.w     w15, w8, w8
    5dde:	08 00 78    	mov.w     w8, w0
    5de0:	3b f9 07    	rcall     0x5058 <_cc2420_get_fifo_msg>
    5de2:	80 01 fb    	se        w0, w3
    5de4:	e1 8f 51    	sub.w     w3, #0x1, [w15]
    5de6:	0d 00 34    	bra       LE, 0x5e02 <.L18>
    5de8:	e3 40 7c    	mov.b     [w3+w8], w1
    5dea:	01 80 fb    	ze        w1, w0
    5dec:	47 02 de    	lsr.w     w0, #0x7, w4
    5dee:	01 41 78    	mov.b     w1, w2
    5df0:	02 74 a1    	bclr.b    w2, #0x7
    5df2:	03 80 e9    	dec2.w    w3, w0
    5df4:	42 40 a9    	bclr.b    0x42, #0x2
    5df6:	08 00 3c    	bra       GT, 0x5e08 <.L22>

00005df8 <.L12>:
    5df8:	00 00 fb    	se        w0, w0

00005dfa <.eb>:
    5dfa:	00 04 e0    	cp0.b     w0
    5dfc:	02 00 35    	bra       LT, 0x5e02 <.L18>
    5dfe:	04 04 e0    	cp0.b     w4
    5e00:	0f 00 3a    	bra       NZ, 0x5e20 <.L23>

00005e02 <.L18>:
    5e02:	4f 04 78    	mov.w     [--w15], w8
    5e04:	00 80 fa    	ulnk      
    5e06:	00 00 06    	return    

00005e08 <.L22>:
    5e08:	80 00 eb    	clr.w     w1
    5e0a:	c3 ef 2f    	mov.w     #0xfefc, w3
    5e0c:	8f 81 41    	add.w     w3, w15, w3

00005e0e <.L14>:
    5e0e:	81 00 e8    	inc.w     w1, w1
    5e10:	e8 d9 78    	mov.b     [w8+w1], [w3++]
    5e12:	81 0f 50    	sub.w     w0, w1, [w15]
    5e14:	f1 ff 32    	bra       Z, 0x5df8 <.L12>
    5e16:	81 00 e8    	inc.w     w1, w1
    5e18:	e8 d9 78    	mov.b     [w8+w1], [w3++]
    5e1a:	81 0f 50    	sub.w     w0, w1, [w15]
    5e1c:	f8 ff 3a    	bra       NZ, 0x5e0e <.L14>
    5e1e:	ec ff 37    	bra       0x5df8 <.L12>

00005e20 <.L23>:
    5e20:	c1 ef 2f    	mov.w     #0xfefc, w1
    5e22:	8f 80 40    	add.w     w1, w15, w1
    5e24:	a0 09 07    	rcall     0x7166 <_uwl_PD_DATA_indication>
    5e26:	4f 04 78    	mov.w     [--w15], w8
    5e28:	00 80 fa    	ulnk      
    5e2a:	00 00 06    	return    
    5e2c:	ed ff 37    	bra       0x5e08 <.L22>

00005e2e <_phy_read_isr>:
    5e2e:	30 00 20    	mov.w     #0x3, w0
    5e30:	40 0b 37    	bra       0x74b2 <_EE_fp_ActivateTask>

00005e32 <_uwl_phy_init>:
    5e32:	60 dd 25    	mov.w     #0x5dd6, w0
    5e34:	80 7a 88    	mov.w     w0, 0xf50

00005e36 <.bb>:
    5e36:	e0 e2 25    	mov.w     #0x5e2e, w0
    5e38:	07 f8 07    	rcall     0x4e48 <_cc2420_set_rx_callback>

00005e3a <.bb>:
    5e3a:	10 c0 b3    	mov.b     #0x1, w0
    5e3c:	51 f8 07    	rcall     0x4ee0 <_cc2420_radio_init>

00005e3e <.eb>:
    5e3e:	d1 ff 2f    	mov.w     #0xfffd, w1
    5e40:	00 04 e0    	cp0.b     w0
    5e42:	06 00 35    	bra       LT, 0x5e50 <.L33>
    5e44:	10 0f a9    	bclr.b    0xf10, #0x0
    5e46:	10 2f a9    	bclr.b    0xf10, #0x1
    5e48:	10 4f a9    	bclr.b    0xf10, #0x2
    5e4a:	10 6f a8    	bset.b    0xf10, #0x3
    5e4c:	10 8f a8    	bset.b    0xf10, #0x4
    5e4e:	11 00 20    	mov.w     #0x1, w1

00005e50 <.L33>:
    5e50:	01 00 78    	mov.w     w1, w0
    5e52:	00 00 06    	return    

00005e54 <_uwl_PD_DATA_request>:
    5e54:	88 9f be    	mov.d     w8, [w15++]
    5e56:	00 44 78    	mov.b     w0, w8
    5e58:	81 04 78    	mov.w     w1, w9
    5e5a:	81 78 80    	mov.w     0xf10, w1
    5e5c:	c0 ff 2f    	mov.w     #0xfffc, w0
    5e5e:	01 48 a3    	btst.z    w1, #0x4
    5e60:	09 00 32    	bra       Z, 0x5e74 <.L40>
    5e62:	6f 80 60    	and.w     w1, #0xf, w0
    5e64:	e6 0f 50    	sub.w     w0, #0x6, [w15]
    5e66:	04 00 32    	bra       Z, 0x5e70 <.L47>
    5e68:	07 00 3c    	bra       GT, 0x5e78 <.L46>
    5e6a:	e2 0f 50    	sub.w     w0, #0x2, [w15]
    5e6c:	01 00 32    	bra       Z, 0x5e70 <.L47>

00005e6e <.L62>:
    5e6e:	70 00 20    	mov.w     #0x7, w0

00005e70 <.L47>:
    5e70:	79 09 07    	rcall     0x7164 <_uwl_PD_DATA_confirm>
    5e72:	10 00 20    	mov.w     #0x1, w0

00005e74 <.L40>:
    5e74:	4f 04 be    	mov.d     [--w15], w8
    5e76:	00 00 06    	return    

00005e78 <.L46>:
    5e78:	e8 0f 50    	sub.w     w0, #0x8, [w15]
    5e7a:	fa ff 32    	bra       Z, 0x5e70 <.L47>
    5e7c:	e9 0f 50    	sub.w     w0, #0x9, [w15]
    5e7e:	f7 ff 3a    	bra       NZ, 0x5e6e <.L62>
    5e80:	60 17 2a    	mov.w     #0xa176, w0
    5e82:	04 fa 07    	rcall     0x528c <_uwl_debug_print>
    5e84:	e0 ff 2f    	mov.w     #0xfffe, w0
    5e86:	08 04 e0    	cp0.b     w8
    5e88:	f5 ff 35    	bra       LT, 0x5e74 <.L40>
    5e8a:	10 0f a9    	bclr.b    0xf10, #0x0
    5e8c:	10 2f a8    	bset.b    0xf10, #0x1
    5e8e:	10 4f a9    	bclr.b    0xf10, #0x2
    5e90:	10 6f a9    	bclr.b    0xf10, #0x3

00005e92 <.bb>:
    5e92:	88 40 78    	mov.b     w8, w1
    5e94:	09 00 78    	mov.w     w9, w0
    5e96:	8c f8 07    	rcall     0x4fb0 <_cc2420_store_msg>
    5e98:	44 f9 07    	rcall     0x5122 <_cc2420_set_tx>

00005e9a <.L50>:
    5e9a:	81 f8 07    	rcall     0x4f9e <_cc2420_get_status>
    5e9c:	68 04 60    	and.w     w0, #0x8, w8
    5e9e:	fd ff 3a    	bra       NZ, 0x5e9a <.L50>
    5ea0:	7e f8 07    	rcall     0x4f9e <_cc2420_get_status>
    5ea2:	00 58 a3    	btst.z    w0, #0x5
    5ea4:	09 00 32    	bra       Z, 0x5eb8 <.L59>
    5ea6:	e7 22 a9    	bclr.b    0x2e7, #0x1
    5ea8:	88 00 78    	mov.w     w8, w1
    5eaa:	90 c0 b3    	mov.b     #0x9, w0
    5eac:	3a 0a 07    	rcall     0x7322 <_cc2420_spi_put>
    5eae:	e7 22 a8    	bset.b    0x2e7, #0x1

00005eb0 <.eb>:
    5eb0:	d0 ff 2f    	mov.w     #0xfffd, w0
    5eb2:	4f 04 be    	mov.d     [--w15], w8
    5eb4:	00 00 06    	return    
    5eb6:	e0 ff 37    	bra       0x5e78 <.L46>

00005eb8 <.L59>:
    5eb8:	10 0f a8    	bset.b    0xf10, #0x0
    5eba:	10 2f a9    	bclr.b    0xf10, #0x1
    5ebc:	10 4f a9    	bclr.b    0xf10, #0x2
    5ebe:	10 6f a8    	bset.b    0xf10, #0x3
    5ec0:	70 00 20    	mov.w     #0x7, w0
    5ec2:	d6 ff 37    	bra       0x5e70 <.L47>

00005ec4 <_uwl_PLME_CCA_request>:
    5ec4:	81 78 80    	mov.w     0xf10, w1
    5ec6:	c0 ff 2f    	mov.w     #0xfffc, w0
    5ec8:	01 48 a3    	btst.z    w1, #0x4
    5eca:	01 00 3a    	bra       NZ, 0x5ece <.L78>

00005ecc <.L69>:
    5ecc:	00 00 06    	return    

00005ece <.L78>:
    5ece:	ef 80 60    	and.w     w1, #0xf, w1
    5ed0:	e8 8f 50    	sub.w     w1, #0x8, [w15]
    5ed2:	09 00 32    	bra       Z, 0x5ee6 <.L74>
    5ed4:	e9 8f 50    	sub.w     w1, #0x9, [w15]
    5ed6:	0b 00 32    	bra       Z, 0x5eee <.L73>
    5ed8:	e0 ff 2f    	mov.w     #0xfffe, w0
    5eda:	e6 8f 50    	sub.w     w1, #0x6, [w15]
    5edc:	f7 ff 3a    	bra       NZ, 0x5ecc <.L69>

00005ede <.bb>:
    5ede:	e6 c2 bf    	mov.b     0x2e6, WREG

00005ee0 <.eb>:
    5ee0:	41 00 20    	mov.w     #0x4, w1
    5ee2:	00 18 a3    	btst.z    w0, #0x1
    5ee4:	04 00 32    	bra       Z, 0x5eee <.L73>

00005ee6 <.L74>:
    5ee6:	01 00 78    	mov.w     w1, w0
    5ee8:	43 09 07    	rcall     0x7170 <_uwl_PLME_CCA_confirm>
    5eea:	10 00 20    	mov.w     #0x1, w0

00005eec <.L79>:
    5eec:	00 00 06    	return    

00005eee <.L73>:
    5eee:	00 00 20    	mov.w     #0x0, w0
    5ef0:	3f 09 07    	rcall     0x7170 <_uwl_PLME_CCA_confirm>
    5ef2:	10 00 20    	mov.w     #0x1, w0
    5ef4:	fb ff 37    	bra       0x5eec <.L79>

00005ef6 <_uwl_PLME_ED_request>:
    5ef6:	81 78 80    	mov.w     0xf10, w1
    5ef8:	c0 ff 2f    	mov.w     #0xfffc, w0
    5efa:	01 48 a3    	btst.z    w1, #0x4
    5efc:	01 00 3a    	bra       NZ, 0x5f00 <.L92>

00005efe <.L84>:
    5efe:	00 00 06    	return    

00005f00 <.L92>:
    5f00:	ef 80 60    	and.w     w1, #0xf, w1
    5f02:	e8 8f 50    	sub.w     w1, #0x8, [w15]
    5f04:	0b 00 32    	bra       Z, 0x5f1c <.L88>
    5f06:	e9 8f 50    	sub.w     w1, #0x9, [w15]
    5f08:	09 00 32    	bra       Z, 0x5f1c <.L88>
    5f0a:	e0 ff 2f    	mov.w     #0xfffe, w0
    5f0c:	e6 8f 50    	sub.w     w1, #0x6, [w15]
    5f0e:	f7 ff 3a    	bra       NZ, 0x5efe <.L84>

00005f10 <.bb>:
    5f10:	df f8 07    	rcall     0x50d0 <_cc2420_rssi_get>
    5f12:	80 40 78    	mov.b     w0, w1
    5f14:	70 00 20    	mov.w     #0x7, w0

00005f16 <.eb>:
    5f16:	2e 09 07    	rcall     0x7174 <_uwl_PLME_ED_confirm>
    5f18:	10 00 20    	mov.w     #0x1, w0

00005f1a <.L93>:
    5f1a:	00 00 06    	return    

00005f1c <.L88>:
    5f1c:	01 00 78    	mov.w     w1, w0
    5f1e:	80 40 eb    	clr.b     w1
    5f20:	29 09 07    	rcall     0x7174 <_uwl_PLME_ED_confirm>
    5f22:	10 00 20    	mov.w     #0x1, w0
    5f24:	fa ff 37    	bra       0x5f1a <.L93>

00005f26 <_uwl_PLME_GET_request>:
    5f26:	80 00 78    	mov.w     w0, w1
    5f28:	c0 ff 2f    	mov.w     #0xfffc, w0
    5f2a:	10 8f ab    	btst.b    0xf10, #0x4
    5f2c:	0a 00 32    	bra       Z, 0x5f42 <.L98>
    5f2e:	e3 8f 50    	sub.w     w1, #0x3, [w15]
    5f30:	17 00 32    	bra       Z, 0x5f60 <.L103>
    5f32:	08 00 3e    	bra       GTU, 0x5f44 <.L108>
    5f34:	e1 8f 50    	sub.w     w1, #0x1, [w15]
    5f36:	19 00 32    	bra       Z, 0x5f6a <.L101>
    5f38:	27 00 36    	bra       LEU, 0x5f88 <.L113>
    5f3a:	70 00 20    	mov.w     #0x7, w0
    5f3c:	42 f0 20    	mov.w     #0xf04, w2

00005f3e <.L109>:
    5f3e:	1c 09 07    	rcall     0x7178 <_uwl_PLME_GET_confirm>
    5f40:	10 00 20    	mov.w     #0x1, w0

00005f42 <.L98>:
    5f42:	00 00 06    	return    

00005f44 <.L108>:
    5f44:	e5 8f 50    	sub.w     w1, #0x5, [w15]
    5f46:	16 00 32    	bra       Z, 0x5f74 <.L105>
    5f48:	1a 00 39    	bra       NC, 0x5f7e <.L104>
    5f4a:	e6 8f 50    	sub.w     w1, #0x6, [w15]
    5f4c:	22 00 32    	bra       Z, 0x5f92 <.L106>
    5f4e:	a0 00 20    	mov.w     #0xa, w0
    5f50:	00 01 eb    	clr.w     w2
    5f52:	e7 8f 50    	sub.w     w1, #0x7, [w15]
    5f54:	f4 ff 3a    	bra       NZ, 0x5f3e <.L109>
    5f56:	01 00 78    	mov.w     w1, w0
    5f58:	c2 f0 20    	mov.w     #0xf0c, w2
    5f5a:	0e 09 07    	rcall     0x7178 <_uwl_PLME_GET_confirm>
    5f5c:	10 00 20    	mov.w     #0x1, w0
    5f5e:	f1 ff 37    	bra       0x5f42 <.L98>

00005f60 <.L103>:
    5f60:	70 00 20    	mov.w     #0x7, w0
    5f62:	52 f0 20    	mov.w     #0xf05, w2
    5f64:	09 09 07    	rcall     0x7178 <_uwl_PLME_GET_confirm>
    5f66:	10 00 20    	mov.w     #0x1, w0
    5f68:	ec ff 37    	bra       0x5f42 <.L98>

00005f6a <.L101>:
    5f6a:	70 00 20    	mov.w     #0x7, w0
    5f6c:	02 f0 20    	mov.w     #0xf00, w2
    5f6e:	04 09 07    	rcall     0x7178 <_uwl_PLME_GET_confirm>
    5f70:	10 00 20    	mov.w     #0x1, w0
    5f72:	e7 ff 37    	bra       0x5f42 <.L98>

00005f74 <.L105>:
    5f74:	70 00 20    	mov.w     #0x7, w0
    5f76:	82 f0 20    	mov.w     #0xf08, w2
    5f78:	ff 08 07    	rcall     0x7178 <_uwl_PLME_GET_confirm>
    5f7a:	10 00 20    	mov.w     #0x1, w0
    5f7c:	e2 ff 37    	bra       0x5f42 <.L98>

00005f7e <.L104>:
    5f7e:	70 00 20    	mov.w     #0x7, w0
    5f80:	62 f0 20    	mov.w     #0xf06, w2
    5f82:	fa 08 07    	rcall     0x7178 <_uwl_PLME_GET_confirm>
    5f84:	10 00 20    	mov.w     #0x1, w0
    5f86:	dd ff 37    	bra       0x5f42 <.L98>

00005f88 <.L113>:
    5f88:	70 00 20    	mov.w     #0x7, w0
    5f8a:	e2 ef 20    	mov.w     #0xefe, w2
    5f8c:	f5 08 07    	rcall     0x7178 <_uwl_PLME_GET_confirm>
    5f8e:	10 00 20    	mov.w     #0x1, w0
    5f90:	d8 ff 37    	bra       0x5f42 <.L98>

00005f92 <.L106>:
    5f92:	70 00 20    	mov.w     #0x7, w0
    5f94:	a2 f0 20    	mov.w     #0xf0a, w2
    5f96:	f0 08 07    	rcall     0x7178 <_uwl_PLME_GET_confirm>
    5f98:	10 00 20    	mov.w     #0x1, w0
    5f9a:	d3 ff 37    	bra       0x5f42 <.L98>

00005f9c <_uwl_PLME_SET_request>:
    5f9c:	02 00 fa    	lnk       #0x2
    5f9e:	88 9f be    	mov.d     w8, [w15++]
    5fa0:	80 04 78    	mov.w     w0, w9
    5fa2:	11 44 78    	mov.b     [w1], w8
    5fa4:	c0 ff 2f    	mov.w     #0xfffc, w0
    5fa6:	10 8f ab    	btst.b    0xf10, #0x4
    5fa8:	11 00 32    	bra       Z, 0x5fcc <.L118>
    5faa:	e3 8f 54    	sub.w     w9, #0x3, [w15]
    5fac:	1c 00 32    	bra       Z, 0x5fe6 <.L123>
    5fae:	11 00 3e    	bra       GTU, 0x5fd2 <.L125>
    5fb0:	e1 8f 54    	sub.w     w9, #0x1, [w15]
    5fb2:	14 00 32    	bra       Z, 0x5fdc <.L121>
    5fb4:	45 00 36    	bra       LEU, 0x6040 <.L134>
    5fb6:	f8 43 b2    	and.b     #0x3f, w8
    5fb8:	40 f0 20    	mov.w     #0xf04, w0
    5fba:	10 44 74    	ior.b     w8, [w0], w8

00005fbc <.bb>:
    5fbc:	00 c0 eb    	setm.b    w0
    5fbe:	52 f7 07    	rcall     0x4e64 <_cc2420_set_pa>

00005fc0 <.eb>:
    5fc0:	08 00 78    	mov.w     w8, w0
    5fc2:	04 ef b7    	mov.b     WREG, 0xf04
    5fc4:	70 00 20    	mov.w     #0x7, w0

00005fc6 <.L126>:
    5fc6:	89 00 78    	mov.w     w9, w1
    5fc8:	db 08 07    	rcall     0x7180 <_uwl_PLME_SET_confirm>
    5fca:	10 00 20    	mov.w     #0x1, w0

00005fcc <.L118>:
    5fcc:	4f 04 be    	mov.d     [--w15], w8
    5fce:	00 80 fa    	ulnk      
    5fd0:	00 00 06    	return    

00005fd2 <.L125>:
    5fd2:	e4 8f 54    	sub.w     w9, #0x4, [w15]
    5fd4:	10 00 32    	bra       Z, 0x5ff6 <.L124>
    5fd6:	a0 00 20    	mov.w     #0xa, w0
    5fd8:	e7 8f 54    	sub.w     w9, #0x7, [w15]
    5fda:	f5 ff 3e    	bra       GTU, 0x5fc6 <.L126>

00005fdc <.L121>:
    5fdc:	b0 00 20    	mov.w     #0xb, w0
    5fde:	89 00 78    	mov.w     w9, w1
    5fe0:	cf 08 07    	rcall     0x7180 <_uwl_PLME_SET_confirm>
    5fe2:	10 00 20    	mov.w     #0x1, w0
    5fe4:	f3 ff 37    	bra       0x5fcc <.L118>

00005fe6 <.L123>:
    5fe6:	08 40 e9    	dec.b     w8, w0
    5fe8:	e2 4f 50    	sub.b     w0, #0x2, [w15]
    5fea:	0e 00 36    	bra       LEU, 0x6008 <.L135>

00005fec <.L127>:
    5fec:	50 00 20    	mov.w     #0x5, w0
    5fee:	89 00 78    	mov.w     w9, w1
    5ff0:	c7 08 07    	rcall     0x7180 <_uwl_PLME_SET_confirm>
    5ff2:	10 00 20    	mov.w     #0x1, w0
    5ff4:	eb ff 37    	bra       0x5fcc <.L118>

00005ff6 <.L124>:
    5ff6:	ff 4f 54    	sub.b     w8, #0x1f, [w15]
    5ff8:	f9 ff 3e    	bra       GTU, 0x5fec <.L127>
    5ffa:	08 00 78    	mov.w     w8, w0
    5ffc:	06 ef b7    	mov.b     WREG, 0xf06
    5ffe:	70 00 20    	mov.w     #0x7, w0
    6000:	89 00 78    	mov.w     w9, w1
    6002:	be 08 07    	rcall     0x7180 <_uwl_PLME_SET_confirm>
    6004:	10 00 20    	mov.w     #0x1, w0
    6006:	e2 ff 37    	bra       0x5fcc <.L118>

00006008 <.L135>:
    6008:	e7 22 a9    	bclr.b    0x2e7, #0x1
    600a:	80 00 eb    	clr.w     w1
    600c:	10 c5 b3    	mov.b     #0x51, w0
    600e:	89 09 07    	rcall     0x7322 <_cc2420_spi_put>
    6010:	66 80 57    	sub.w     w15, #0x6, w0
    6012:	95 09 07    	rcall     0x733e <_cc2420_spi_get>
    6014:	65 80 57    	sub.w     w15, #0x5, w0
    6016:	93 09 07    	rcall     0x733e <_cc2420_spi_get>
    6018:	e7 22 a8    	bset.b    0x2e7, #0x1
    601a:	e7 22 a9    	bclr.b    0x2e7, #0x1
    601c:	80 00 eb    	clr.w     w1
    601e:	10 c1 b3    	mov.b     #0x11, w0
    6020:	80 09 07    	rcall     0x7322 <_cc2420_spi_put>
    6022:	af f8 97    	mov.b     [w15-6], w1
    6024:	01 40 74    	ior.b     w8, w1, w0
    6026:	80 00 eb    	clr.w     w1
    6028:	7c 09 07    	rcall     0x7322 <_cc2420_spi_put>
    602a:	3f f8 97    	mov.b     [w15-5], w0
    602c:	80 00 eb    	clr.w     w1
    602e:	79 09 07    	rcall     0x7322 <_cc2420_spi_put>
    6030:	e7 22 a8    	bset.b    0x2e7, #0x1

00006032 <.eb>:
    6032:	08 00 78    	mov.w     w8, w0
    6034:	05 ef b7    	mov.b     WREG, 0xf05
    6036:	70 00 20    	mov.w     #0x7, w0
    6038:	89 00 78    	mov.w     w9, w1
    603a:	a2 08 07    	rcall     0x7180 <_uwl_PLME_SET_confirm>
    603c:	10 00 20    	mov.w     #0x1, w0
    603e:	c6 ff 37    	bra       0x5fcc <.L118>

00006040 <.L134>:
    6040:	6b 40 54    	sub.b     w8, #0xb, w0
    6042:	ef 4f 50    	sub.b     w0, #0xf, [w15]
    6044:	d3 ff 3e    	bra       GTU, 0x5fec <.L127>

00006046 <.bb>:
    6046:	08 40 78    	mov.b     w8, w0
    6048:	a9 f8 07    	rcall     0x519c <_cc2420_set_channel>

0000604a <.eb>:
    604a:	08 00 78    	mov.w     w8, w0
    604c:	fe ee b7    	mov.b     WREG, 0xefe
    604e:	70 00 20    	mov.w     #0x7, w0
    6050:	89 00 78    	mov.w     w9, w1
    6052:	96 08 07    	rcall     0x7180 <_uwl_PLME_SET_confirm>
    6054:	10 00 20    	mov.w     #0x1, w0
    6056:	ba ff 37    	bra       0x5fcc <.L118>

00006058 <_uwl_PLME_SET_TRX_STATE_request>:
    6058:	00 01 78    	mov.w     w0, w2
    605a:	81 78 80    	mov.w     0xf10, w1
    605c:	c0 ff 2f    	mov.w     #0xfffc, w0
    605e:	01 48 a3    	btst.z    w1, #0x4
    6060:	0d 00 32    	bra       Z, 0x607c <.L140>
    6062:	6f 80 60    	and.w     w1, #0xf, w0
    6064:	82 0f 50    	sub.w     w0, w2, [w15]
    6066:	02 00 3a    	bra       NZ, 0x606c <.L164>
    6068:	89 08 07    	rcall     0x717c <_uwl_PLME_SET_TRX_STATE_confirm>
    606a:	10 00 05    	retlw.w   #0x1, w0

0000606c <.L164>:
    606c:	e6 0f 51    	sub.w     w2, #0x6, [w15]
    606e:	07 00 32    	bra       Z, 0x607e <.L157>
    6070:	11 00 36    	bra       LEU, 0x6094 <.L165>
    6072:	e8 0f 51    	sub.w     w2, #0x8, [w15]
    6074:	21 00 32    	bra       Z, 0x60b8 <.L146>
    6076:	e9 0f 51    	sub.w     w2, #0x9, [w15]
    6078:	18 00 32    	bra       Z, 0x60aa <.L166>

0000607a <.L143>:
    607a:	e0 ff 2f    	mov.w     #0xfffe, w0

0000607c <.L140>:
    607c:	00 00 06    	return    

0000607e <.L157>:
    607e:	8f f7 07    	rcall     0x4f9e <_cc2420_get_status>

00006080 <.eb>:
    6080:	00 38 a3    	btst.z    w0, #0x3
    6082:	fd ff 3a    	bra       NZ, 0x607e <.L157>

00006084 <.bb>:
    6084:	69 f8 07    	rcall     0x5158 <_cc2420_set_rx>

00006086 <.eb>:
    6086:	10 0f a9    	bclr.b    0xf10, #0x0
    6088:	10 2f a8    	bset.b    0xf10, #0x1
    608a:	10 4f a8    	bset.b    0xf10, #0x2
    608c:	10 6f a9    	bclr.b    0xf10, #0x3
    608e:	70 00 20    	mov.w     #0x7, w0
    6090:	75 08 07    	rcall     0x717c <_uwl_PLME_SET_TRX_STATE_confirm>
    6092:	10 00 05    	retlw.w   #0x1, w0

00006094 <.L165>:
    6094:	e3 0f 51    	sub.w     w2, #0x3, [w15]
    6096:	f1 ff 3a    	bra       NZ, 0x607a <.L143>

00006098 <.L151>:
    6098:	10 00 20    	mov.w     #0x1, w0
    609a:	6f f8 07    	rcall     0x517a <_cc2420_set_sleep>

0000609c <.eb>:
    609c:	10 0f a9    	bclr.b    0xf10, #0x0
    609e:	10 2f a9    	bclr.b    0xf10, #0x1
    60a0:	10 4f a9    	bclr.b    0xf10, #0x2
    60a2:	10 6f a8    	bset.b    0xf10, #0x3
    60a4:	70 00 20    	mov.w     #0x7, w0
    60a6:	6a 08 07    	rcall     0x717c <_uwl_PLME_SET_TRX_STATE_confirm>
    60a8:	10 00 05    	retlw.w   #0x1, w0

000060aa <.L166>:
    60aa:	10 0f a8    	bset.b    0xf10, #0x0
    60ac:	10 2f a9    	bclr.b    0xf10, #0x1
    60ae:	10 4f a9    	bclr.b    0xf10, #0x2
    60b0:	10 6f a8    	bset.b    0xf10, #0x3
    60b2:	70 00 20    	mov.w     #0x7, w0
    60b4:	63 08 07    	rcall     0x717c <_uwl_PLME_SET_TRX_STATE_confirm>
    60b6:	10 00 05    	retlw.w   #0x1, w0

000060b8 <.L146>:
    60b8:	6f 80 60    	and.w     w1, #0xf, w0
    60ba:	e6 0f 50    	sub.w     w0, #0x6, [w15]
    60bc:	07 00 3a    	bra       NZ, 0x60cc <.L149>

000060be <.L155>:
    60be:	d5 c2 bf    	mov.b     0x2d5, WREG

000060c0 <.eb>:
    60c0:	00 58 a3    	btst.z    w0, #0x5
    60c2:	ea ff 32    	bra       Z, 0x6098 <.L151>

000060c4 <.bb>:
    60c4:	d5 c2 bf    	mov.b     0x2d5, WREG

000060c6 <.eb>:
    60c6:	00 58 a3    	btst.z    w0, #0x5
    60c8:	fa ff 3a    	bra       NZ, 0x60be <.L155>
    60ca:	e6 ff 37    	bra       0x6098 <.L151>

000060cc <.L149>:
    60cc:	e9 0f 50    	sub.w     w0, #0x9, [w15]
    60ce:	d5 ff 3a    	bra       NZ, 0x607a <.L143>

000060d0 <.L156>:
    60d0:	66 f7 07    	rcall     0x4f9e <_cc2420_get_status>

000060d2 <.eb>:
    60d2:	00 38 a3    	btst.z    w0, #0x3
    60d4:	e1 ff 32    	bra       Z, 0x6098 <.L151>

000060d6 <.bb>:
    60d6:	63 f7 07    	rcall     0x4f9e <_cc2420_get_status>

000060d8 <.eb>:
    60d8:	00 38 a3    	btst.z    w0, #0x3
    60da:	fa ff 3a    	bra       NZ, 0x60d0 <.L156>
    60dc:	dd ff 37    	bra       0x6098 <.L151>

000060de <_uwl_mac_gts_db_add>:
    60de:	88 9f be    	mov.d     w8, [w15++]
    60e0:	8a 9f be    	mov.d     w10, [w15++]
    60e2:	00 05 78    	mov.w     w0, w10
    60e4:	81 44 78    	mov.b     w1, w9
    60e6:	02 44 78    	mov.b     w2, w8

000060e8 <.bb>:
    60e8:	ef cf 50    	sub.b     w1, #0xf, [w15]
    60ea:	02 00 3e    	bra       GTU, 0x60f0 <.L2>
    60ec:	e1 4f 51    	sub.b     w2, #0x1, [w15]
    60ee:	05 00 36    	bra       LEU, 0x60fa <.L21>

000060f0 <.L2>:
    60f0:	d0 cf b3    	mov.b     #0xfd, w0
    60f2:	00 00 fb    	se        w0, w0

000060f4 <.eb>:
    60f4:	4f 05 be    	mov.d     [--w15], w10
    60f6:	4f 04 be    	mov.d     [--w15], w8
    60f8:	00 00 06    	return    

000060fa <.L21>:
    60fa:	21 79 80    	mov.w     0xf24, w1
    60fc:	30 79 80    	mov.w     0xf26, w0
    60fe:	80 8f 50    	sub.w     w1, w0, [w15]
    6100:	07 00 32    	bra       Z, 0x6110 <.L5>
    6102:	20 71 80    	mov.w     0xe24, w0
    6104:	43 00 de    	lsr.w     w0, #0x3, w0
    6106:	7f 00 60    	and.w     w0, #0x1f, w0
    6108:	89 85 fb    	ze        w9, w11
    610a:	8b 00 e8    	inc.w     w11, w1
    610c:	81 0f 50    	sub.w     w0, w1, [w15]
    610e:	06 00 3d    	bra       GE, 0x611c <.L22>

00006110 <.L5>:
    6110:	b0 ce b3    	mov.b     #0xeb, w0
    6112:	00 00 fb    	se        w0, w0

00006114 <.eb>:
    6114:	4f 05 be    	mov.d     [--w15], w10
    6116:	4f 04 be    	mov.d     [--w15], w8
    6118:	00 00 06    	return    
    611a:	ef ff 37    	bra       0x60fa <.L21>

0000611c <.L22>:
    611c:	20 f2 20    	mov.w     #0xf22, w0
    611e:	5d fd 07    	rcall     0x5bda <_list_iter_front>
    6120:	80 00 78    	mov.w     w0, w1
    6122:	00 00 e0    	cp0.w     w0
    6124:	37 00 32    	bra       Z, 0x6194 <.L16>
    6126:	08 84 fb    	ze        w8, w8

00006128 <.L10>:
    6128:	11 00 90    	mov.w     [w1+2], w0
    612a:	80 0f 55    	sub.w     w10, w0, [w15]
    612c:	05 00 3a    	bra       NZ, 0x6138 <.L11>
    612e:	11 00 78    	mov.w     [w1], w0
    6130:	48 00 de    	lsr.w     w0, #0x8, w0
    6132:	61 00 60    	and.w     w0, #0x1, w0
    6134:	88 0f 50    	sub.w     w0, w8, [w15]
    6136:	28 00 32    	bra       Z, 0x6188 <.L17>

00006138 <.L11>:
    6138:	20 f2 20    	mov.w     #0xf22, w0
    613a:	5a fd 07    	rcall     0x5bf0 <_list_iter_next>
    613c:	80 00 78    	mov.w     w0, w1
    613e:	00 00 e0    	cp0.w     w0
    6140:	f3 ff 3a    	bra       NZ, 0x6128 <.L10>
    6142:	22 71 80    	mov.w     0xe24, w2
    6144:	43 10 de    	lsr.w     w2, #0x3, w0
    6146:	09 00 50    	sub.w     w0, w9, w0
    6148:	7f 00 60    	and.w     w0, #0x1f, w0
    614a:	43 00 dd    	sl.w      w0, #0x3, w0
    614c:	71 f0 2f    	mov.w     #0xff07, w1
    614e:	01 01 61    	and.w     w2, w1, w2
    6150:	00 01 71    	ior.w     w2, w0, w2
    6152:	22 71 88    	mov.w     w2, 0xe24
    6154:	20 f2 20    	mov.w     #0xf22, w0
    6156:	65 fd 07    	rcall     0x5c22 <_list_push_front>
    6158:	21 71 80    	mov.w     0xe24, w1
    615a:	c3 08 de    	lsr.w     w1, #0x3, w1
    615c:	ef 80 60    	and.w     w1, #0xf, w1
    615e:	02 ff 2f    	mov.w     #0xfff0, w2
    6160:	10 08 61    	and.w     w2, [w0], [w0]
    6162:	10 88 70    	ior.w     w1, [w0], [w0]
    6164:	ef 80 65    	and.w     w11, #0xf, w1
    6166:	c4 08 dd    	sl.w      w1, #0x4, w1
    6168:	f2 f0 2f    	mov.w     #0xff0f, w2
    616a:	10 08 61    	and.w     w2, [w0], [w0]
    616c:	10 88 70    	ior.w     w1, [w0], [w0]
    616e:	e1 00 64    	and.w     w8, #0x1, w1
    6170:	c8 08 dd    	sl.w      w1, #0x8, w1
    6172:	10 80 a1    	bclr.w    [w0], #0x8
    6174:	10 88 70    	ior.w     w1, [w0], [w0]
    6176:	1a 00 98    	mov.w     w10, [w0+2]
    6178:	80 40 eb    	clr.b     w1
    617a:	41 40 98    	mov.b     w1, [w0+4]
    617c:	10 c0 b3    	mov.b     #0x1, w0

0000617e <.L23>:
    617e:	00 00 fb    	se        w0, w0

00006180 <.eb>:
    6180:	4f 05 be    	mov.d     [--w15], w10
    6182:	4f 04 be    	mov.d     [--w15], w8
    6184:	00 00 06    	return    
    6186:	b9 ff 37    	bra       0x60fa <.L21>

00006188 <.L17>:
    6188:	00 40 eb    	clr.b     w0
    618a:	00 00 fb    	se        w0, w0

0000618c <.eb>:
    618c:	4f 05 be    	mov.d     [--w15], w10
    618e:	4f 04 be    	mov.d     [--w15], w8
    6190:	00 00 06    	return    
    6192:	b3 ff 37    	bra       0x60fa <.L21>

00006194 <.L16>:
    6194:	08 84 fb    	ze        w8, w8

00006196 <.bb>:
    6196:	22 71 80    	mov.w     0xe24, w2
    6198:	43 10 de    	lsr.w     w2, #0x3, w0
    619a:	09 00 50    	sub.w     w0, w9, w0
    619c:	7f 00 60    	and.w     w0, #0x1f, w0
    619e:	43 00 dd    	sl.w      w0, #0x3, w0
    61a0:	71 f0 2f    	mov.w     #0xff07, w1
    61a2:	01 01 61    	and.w     w2, w1, w2
    61a4:	00 01 71    	ior.w     w2, w0, w2
    61a6:	22 71 88    	mov.w     w2, 0xe24
    61a8:	20 f2 20    	mov.w     #0xf22, w0
    61aa:	3b fd 07    	rcall     0x5c22 <_list_push_front>
    61ac:	21 71 80    	mov.w     0xe24, w1
    61ae:	c3 08 de    	lsr.w     w1, #0x3, w1
    61b0:	ef 80 60    	and.w     w1, #0xf, w1
    61b2:	02 ff 2f    	mov.w     #0xfff0, w2
    61b4:	10 08 61    	and.w     w2, [w0], [w0]
    61b6:	10 88 70    	ior.w     w1, [w0], [w0]
    61b8:	ef 80 65    	and.w     w11, #0xf, w1
    61ba:	c4 08 dd    	sl.w      w1, #0x4, w1
    61bc:	f2 f0 2f    	mov.w     #0xff0f, w2
    61be:	10 08 61    	and.w     w2, [w0], [w0]
    61c0:	10 88 70    	ior.w     w1, [w0], [w0]
    61c2:	e1 00 64    	and.w     w8, #0x1, w1
    61c4:	c8 08 dd    	sl.w      w1, #0x8, w1
    61c6:	10 80 a1    	bclr.w    [w0], #0x8
    61c8:	10 88 70    	ior.w     w1, [w0], [w0]
    61ca:	1a 00 98    	mov.w     w10, [w0+2]
    61cc:	80 40 eb    	clr.b     w1
    61ce:	41 40 98    	mov.b     w1, [w0+4]
    61d0:	10 c0 b3    	mov.b     #0x1, w0
    61d2:	d5 ff 37    	bra       0x617e <.L23>

000061d4 <_uwl_mac_gts_init>:
    61d4:	24 2f ef    	clr.w     0xf24
    61d6:	e0 ff 2f    	mov.w     #0xfffe, w0
    61d8:	10 79 88    	mov.w     w0, 0xf22
    61da:	40 79 88    	mov.w     w0, 0xf28
    61dc:	32 79 80    	mov.w     0xf26, w2
    61de:	02 01 41    	add.w     w2, w2, w2
    61e0:	70 79 80    	mov.w     0xf2e, w0
    61e2:	80 80 eb    	setm.w    w1
    61e4:	45 d6 07    	rcall     0xe70 <_memset>

000061e6 <.eb>:
    61e6:	20 71 80    	mov.w     0xe24, w0
    61e8:	71 f0 2f    	mov.w     #0xff07, w1
    61ea:	01 00 60    	and.w     w0, w1, w0
    61ec:	00 70 a0    	bset.w    w0, #0x7
    61ee:	20 71 88    	mov.w     w0, 0xe24
    61f0:	25 0e a9    	bclr.b    0xe25, #0x0
    61f2:	25 2e a9    	bclr.b    0xe25, #0x1
    61f4:	25 4e a9    	bclr.b    0xe25, #0x2
    61f6:	25 6e a9    	bclr.b    0xe25, #0x3
    61f8:	25 8e a9    	bclr.b    0xe25, #0x4
    61fa:	25 ae a9    	bclr.b    0xe25, #0x5
    61fc:	25 ce a9    	bclr.b    0xe25, #0x6
    61fe:	25 ee a9    	bclr.b    0xe25, #0x7
    6200:	26 0e a9    	bclr.b    0xe26, #0x0
    6202:	26 2e a9    	bclr.b    0xe26, #0x1
    6204:	26 4e a9    	bclr.b    0xe26, #0x2
    6206:	26 6e a9    	bclr.b    0xe26, #0x3
    6208:	26 8e a9    	bclr.b    0xe26, #0x4
    620a:	26 ae a9    	bclr.b    0xe26, #0x5
    620c:	26 ce a9    	bclr.b    0xe26, #0x6
    620e:	26 ee a9    	bclr.b    0xe26, #0x7
    6210:	10 00 05    	retlw.w   #0x1, w0

00006212 <_uwl_mac_gts_set_gts_fields>:
    6212:	88 9f be    	mov.d     w8, [w15++]
    6214:	8a 9f be    	mov.d     w10, [w15++]
    6216:	8c 1f 78    	mov.w     w12, [w15++]
    6218:	00 05 78    	mov.w     w0, w10
    621a:	6c f5 20    	mov.w     #0xf56, w12
    621c:	56 2f ef    	clr.w     0xf56
    621e:	58 2f ef    	clr.w     0xf58
    6220:	5a 2f ef    	clr.w     0xf5a
    6222:	5c 2f ef    	clr.w     0xf5c
    6224:	5e 2f ef    	clr.w     0xf5e
    6226:	60 2f ef    	clr.w     0xf60
    6228:	62 2f ef    	clr.w     0xf62
    622a:	64 2f ef    	clr.w     0xf64
    622c:	66 2f ef    	clr.w     0xf66
    622e:	68 2f ef    	clr.w     0xf68
    6230:	6a 2f ef    	clr.w     0xf6a
    6232:	6c 2f ef    	clr.w     0xf6c
    6234:	6e 2f ef    	clr.w     0xf6e
    6236:	70 2f ef    	clr.w     0xf70
    6238:	72 2f ef    	clr.w     0xf72
    623a:	74 2f ef    	clr.w     0xf74
    623c:	76 2f ef    	clr.w     0xf76
    623e:	78 2f ef    	clr.w     0xf78
    6240:	7a 2f ef    	clr.w     0xf7a
    6242:	7c 2f ef    	clr.w     0xf7c
    6244:	7e 2f ef    	clr.w     0xf7e
    6246:	a5 48 e2    	cp0.b     0x8a5
    6248:	06 00 3a    	bra       NZ, 0x6256 <.L31>
    624a:	00 48 eb    	clr.b     [w0]
    624c:	10 00 20    	mov.w     #0x1, w0

0000624e <.L33>:
    624e:	4f 06 78    	mov.w     [--w15], w12
    6250:	4f 05 be    	mov.d     [--w15], w10
    6252:	4f 04 be    	mov.d     [--w15], w8
    6254:	00 00 06    	return    

00006256 <.L31>:
    6256:	80 cf b3    	mov.b     #0xf8, w0
    6258:	1a 40 60    	and.b     w0, [w10], w0
    625a:	21 79 80    	mov.w     0xf24, w1
    625c:	e7 c0 60    	and.b     w1, #0x7, w1
    625e:	01 40 70    	ior.b     w0, w1, w0
    6260:	00 4d 78    	mov.b     w0, [w10]
    6262:	00 74 a1    	bclr.b    w0, #0x7
    6264:	51 8a 20    	mov.w     #0x8a5, w1
    6266:	91 40 78    	mov.b     [w1], w1
    6268:	c7 08 dd    	sl.w      w1, #0x7, w1
    626a:	00 cd 70    	ior.b     w1, w0, [w10]
    626c:	10 00 20    	mov.w     #0x1, w0
    626e:	24 0f e2    	cp0.w     0xf24
    6270:	ee ff 32    	bra       Z, 0x624e <.L33>
    6272:	8a 05 e8    	inc.w     w10, w11
    6274:	20 f2 20    	mov.w     #0xf22, w0
    6276:	b1 fc 07    	rcall     0x5bda <_list_iter_front>
    6278:	80 02 78    	mov.w     w0, w5
    627a:	20 00 20    	mov.w     #0x2, w0
    627c:	05 00 e0    	cp0.w     w5
    627e:	e7 ff 32    	bra       Z, 0x624e <.L33>
    6280:	29 c0 b3    	mov.b     #0x2, w9
    6282:	00 04 eb    	clr.w     w8

00006284 <.L39>:
    6284:	08 81 fb    	ze        w8, w2
    6286:	11 00 20    	mov.w     #0x1, w1
    6288:	82 08 dd    	sl.w      w1, w2, w1
    628a:	81 c0 ea    	com.b     w1, w1
    628c:	9b c0 60    	and.b     w1, [w11], w1
    628e:	15 00 78    	mov.w     [w5], w0
    6290:	48 00 de    	lsr.w     w0, #0x8, w0
    6292:	61 00 60    	and.w     w0, #0x1, w0
    6294:	02 00 dd    	sl.w      w0, w2, w0
    6296:	80 cd 70    	ior.b     w1, w0, [w11]
    6298:	15 02 78    	mov.w     [w5], w4
    629a:	95 00 90    	mov.w     [w5+2], w1
    629c:	09 80 fb    	ze        w9, w0
    629e:	00 00 45    	add.w     w10, w0, w0

000062a0 <.bb>:
    62a0:	01 48 78    	mov.b     w1, [w0]
    62a2:	c8 08 de    	lsr.w     w1, #0x8, w1
    62a4:	11 40 98    	mov.b     w1, [w0+1]
    62a6:	24 40 98    	mov.b     w4, [w0+2]
    62a8:	e3 c4 44    	add.b     w9, #0x3, w9

000062aa <.eb>:
    62aa:	66 11 b9    	mul.su    w2, #0x6, w2
    62ac:	02 01 46    	add.w     w12, w2, w2
    62ae:	15 00 be    	mov.d     [w5], w0
    62b0:	00 89 be    	mov.d     w0, [w2]
    62b2:	a5 02 90    	mov.w     [w5+4], w5
    62b4:	25 01 98    	mov.w     w5, [w2+4]
    62b6:	20 f2 20    	mov.w     #0xf22, w0
    62b8:	9b fc 07    	rcall     0x5bf0 <_list_iter_next>
    62ba:	80 02 78    	mov.w     w0, w5
    62bc:	08 04 e8    	inc.w     w8, w8
    62be:	00 00 e0    	cp0.w     w0
    62c0:	e1 ff 3a    	bra       NZ, 0x6284 <.L39>
    62c2:	09 80 fb    	ze        w9, w0
    62c4:	4f 06 78    	mov.w     [--w15], w12
    62c6:	4f 05 be    	mov.d     [--w15], w10
    62c8:	4f 04 be    	mov.d     [--w15], w8
    62ca:	00 00 06    	return    
    62cc:	c4 ff 37    	bra       0x6256 <.L31>

000062ce <_uwl_mac_gts_get_gts_fields>:
    62ce:	88 9f be    	mov.d     w8, [w15++]
    62d0:	8a 1f 78    	mov.w     w10, [w15++]
    62d2:	80 03 78    	mov.w     w0, w7
    62d4:	10 80 fb    	ze        [w0], w0
    62d6:	47 00 de    	lsr.w     w0, #0x7, w0
    62d8:	a5 e8 b7    	mov.b     WREG, 0x8a5
    62da:	25 8e a9    	bclr.b    0xe25, #0x4
    62dc:	25 ae a9    	bclr.b    0xe25, #0x5
    62de:	25 ce a9    	bclr.b    0xe25, #0x6
    62e0:	25 ee a9    	bclr.b    0xe25, #0x7
    62e2:	26 8e a9    	bclr.b    0xe26, #0x4
    62e4:	26 ae a9    	bclr.b    0xe26, #0x5
    62e6:	26 ce a9    	bclr.b    0xe26, #0x6
    62e8:	26 ee a9    	bclr.b    0xe26, #0x7
    62ea:	11 00 20    	mov.w     #0x1, w1
    62ec:	00 04 e0    	cp0.b     w0
    62ee:	06 00 32    	bra       Z, 0x62fc <.L51>
    62f0:	07 04 78    	mov.w     w7, w8
    62f2:	38 40 78    	mov.b     [w8++], w0
    62f4:	e7 44 60    	and.b     w0, #0x7, w9
    62f6:	16 c0 b3    	mov.b     #0x1, w6
    62f8:	05 00 3a    	bra       NZ, 0x6304 <.L64>

000062fa <.L54>:
    62fa:	86 80 fb    	ze        w6, w1

000062fc <.L51>:
    62fc:	01 00 78    	mov.w     w1, w0
    62fe:	4f 05 78    	mov.w     [--w15], w10
    6300:	4f 04 be    	mov.d     [--w15], w8
    6302:	00 00 06    	return    

00006304 <.L64>:
    6304:	ba 45 80    	mov.w     0x8b6, w10
    6306:	00 42 eb    	clr.b     w4
    6308:	26 c0 b3    	mov.b     #0x2, w6
    630a:	80 02 eb    	clr.w     w5
    630c:	06 80 fb    	ze        w6, w0
    630e:	80 81 43    	add.w     w7, w0, w3
    6310:	93 80 fb    	ze        [w3], w1
    6312:	13 40 90    	mov.b     [w3+1], w0
    6314:	48 00 dd    	sl.w      w0, #0x8, w0
    6316:	80 80 40    	add.w     w1, w0, w1
    6318:	8a 8f 50    	sub.w     w1, w10, [w15]
    631a:	0d 00 32    	bra       Z, 0x6336 <.L65>

0000631c <.L56>:
    631c:	63 43 43    	add.b     w6, #0x3, w6
    631e:	04 42 e8    	inc.b     w4, w4
    6320:	85 02 e8    	inc.w     w5, w5
    6322:	84 cf 54    	sub.b     w9, w4, [w15]
    6324:	ea ff 32    	bra       Z, 0x62fa <.L54>

00006326 <.L63>:
    6326:	06 80 fb    	ze        w6, w0
    6328:	80 81 43    	add.w     w7, w0, w3
    632a:	93 80 fb    	ze        [w3], w1
    632c:	13 40 90    	mov.b     [w3+1], w0
    632e:	48 00 dd    	sl.w      w0, #0x8, w0
    6330:	80 80 40    	add.w     w1, w0, w1
    6332:	8a 8f 50    	sub.w     w1, w10, [w15]
    6334:	f3 ff 3a    	bra       NZ, 0x631c <.L56>

00006336 <.L65>:
    6336:	18 80 fb    	ze        [w8], w0
    6338:	05 80 de    	asr.w     w0, w5, w0
    633a:	00 08 a3    	btst.z    w0, #0x0
    633c:	16 00 3a    	bra       NZ, 0x636a <.L58>
    633e:	83 81 e8    	inc2.w    w3, w3
    6340:	13 40 78    	mov.b     [w3], w0
    6342:	6f 41 60    	and.b     w0, #0xf, w2
    6344:	48 11 dd    	sl.w      w2, #0x8, w2
    6346:	20 71 80    	mov.w     0xe24, w0
    6348:	f1 0f 2f    	mov.w     #0xf0ff, w1
    634a:	01 00 60    	and.w     w0, w1, w0
    634c:	02 00 70    	ior.w     w0, w2, w0
    634e:	20 71 88    	mov.w     w0, 0xe24
    6350:	93 80 fb    	ze        [w3], w1
    6352:	c4 08 de    	lsr.w     w1, #0x4, w1
    6354:	cc 08 dd    	sl.w      w1, #0xc, w1
    6356:	f2 ff 20    	mov.w     #0xfff, w2
    6358:	02 00 60    	and.w     w0, w2, w0
    635a:	01 00 70    	ior.w     w0, w1, w0
    635c:	20 71 88    	mov.w     w0, 0xe24
    635e:	63 43 43    	add.b     w6, #0x3, w6
    6360:	04 42 e8    	inc.b     w4, w4
    6362:	85 02 e8    	inc.w     w5, w5
    6364:	84 cf 54    	sub.b     w9, w4, [w15]
    6366:	df ff 3a    	bra       NZ, 0x6326 <.L63>
    6368:	c8 ff 37    	bra       0x62fa <.L54>

0000636a <.L58>:
    636a:	83 81 e8    	inc2.w    w3, w3
    636c:	13 40 78    	mov.b     [w3], w0
    636e:	6f 41 60    	and.b     w0, #0xf, w2
    6370:	6f 01 61    	and.w     w2, #0xf, w2
    6372:	30 71 80    	mov.w     0xe26, w0
    6374:	01 ff 2f    	mov.w     #0xfff0, w1
    6376:	01 00 60    	and.w     w0, w1, w0
    6378:	02 00 70    	ior.w     w0, w2, w0
    637a:	30 71 88    	mov.w     w0, 0xe26
    637c:	93 80 fb    	ze        [w3], w1
    637e:	01 0f b2    	and.w     #0xf0, w1
    6380:	f2 f0 2f    	mov.w     #0xff0f, w2
    6382:	02 00 60    	and.w     w0, w2, w0
    6384:	01 00 70    	ior.w     w0, w1, w0
    6386:	30 71 88    	mov.w     w0, 0xe26
    6388:	63 43 43    	add.b     w6, #0x3, w6
    638a:	04 42 e8    	inc.b     w4, w4
    638c:	85 02 e8    	inc.w     w5, w5
    638e:	84 cf 54    	sub.b     w9, w4, [w15]
    6390:	ca ff 3a    	bra       NZ, 0x6326 <.L63>
    6392:	b3 ff 37    	bra       0x62fa <.L54>

00006394 <_uwl_mac_gts_db_clean>:
    6394:	24 2f ef    	clr.w     0xf24
    6396:	e0 ff 2f    	mov.w     #0xfffe, w0
    6398:	10 79 88    	mov.w     w0, 0xf22
    639a:	40 79 88    	mov.w     w0, 0xf28
    639c:	32 79 80    	mov.w     0xf26, w2
    639e:	02 01 41    	add.w     w2, w2, w2
    63a0:	70 79 80    	mov.w     0xf2e, w0
    63a2:	80 80 eb    	setm.w    w1
    63a4:	65 d5 07    	rcall     0xe70 <_memset>

000063a6 <.eb>:
    63a6:	20 71 80    	mov.w     0xe24, w0
    63a8:	71 f0 2f    	mov.w     #0xff07, w1
    63aa:	01 00 60    	and.w     w0, w1, w0
    63ac:	00 70 a0    	bset.w    w0, #0x7
    63ae:	20 71 88    	mov.w     w0, 0xe24
    63b0:	25 0e a9    	bclr.b    0xe25, #0x0
    63b2:	25 2e a9    	bclr.b    0xe25, #0x1
    63b4:	25 4e a9    	bclr.b    0xe25, #0x2
    63b6:	25 6e a9    	bclr.b    0xe25, #0x3
    63b8:	25 8e a9    	bclr.b    0xe25, #0x4
    63ba:	25 ae a9    	bclr.b    0xe25, #0x5
    63bc:	25 ce a9    	bclr.b    0xe25, #0x6
    63be:	25 ee a9    	bclr.b    0xe25, #0x7
    63c0:	26 0e a9    	bclr.b    0xe26, #0x0
    63c2:	26 2e a9    	bclr.b    0xe26, #0x1
    63c4:	26 4e a9    	bclr.b    0xe26, #0x2
    63c6:	26 6e a9    	bclr.b    0xe26, #0x3
    63c8:	26 8e a9    	bclr.b    0xe26, #0x4
    63ca:	26 ae a9    	bclr.b    0xe26, #0x5
    63cc:	26 ce a9    	bclr.b    0xe26, #0x6
    63ce:	26 ee a9    	bclr.b    0xe26, #0x7
    63d0:	10 00 05    	retlw.w   #0x1, w0
Disassembly of section .dinit:

000063d2 <.dinit>:
    63d2:	7a 0e 00    	nop       
    63d4:	28 00 00    	nop       
    63d6:	02 00 00    	nop       
    63d8:	00 00 00    	nop       
    63da:	00 ff ff    	nopr      
    63dc:	00 00 00    	nop       
    63de:	00 ff ff    	nopr      
    63e0:	00 00 ff    	nopr      
    63e2:	ff ff ff    	nopr      
    63e4:	ff ff ff    	nopr      
    63e6:	ff ff ff    	nopr      
    63e8:	ff ff ff    	nopr      
    63ea:	ff ff ff    	nopr      
    63ec:	ff ff ff    	nopr      
    63ee:	ff ff ff    	nopr      
    63f0:	ff ff ff    	nopr      
    63f2:	ff 00 00    	nop       
    63f4:	9e 0d 00    	nop       
    63f6:	62 00 00    	nop       
    63f8:	00 00 00    	nop       
    63fa:	12 0f 00    	nop       
    63fc:	10 00 00    	nop       
    63fe:	02 00 00    	nop       
    6400:	20 9f 00    	nop       
	...
    6408:	ff ff 01    	.pword 0x01ffff
    640a:	00 00 00    	nop       
    640c:	26 0c 00    	nop       
    640e:	f8 00 00    	nop       
    6410:	00 00 00    	nop       
    6412:	94 31 00    	nop       
    6414:	04 00 00    	nop       
    6416:	00 00 00    	nop       
    6418:	8c 2f 00    	nop       
    641a:	f0 00 00    	nop       
    641c:	00 00 00    	nop       
    641e:	30 0f 00    	nop       
    6420:	04 00 00    	nop       
    6422:	02 00 00    	nop       
    6424:	00 00 06    	return    
    6426:	00 00 00    	nop       
    6428:	c6 0e 00    	nop       
    642a:	1e 00 00    	nop       
    642c:	00 00 00    	nop       
    642e:	c0 7f 00    	nop       
    6430:	40 00 00    	nop       
    6432:	00 00 00    	nop       
    6434:	80 7f 00    	nop       
    6436:	40 00 00    	nop       
    6438:	00 00 00    	nop       
    643a:	fe 0e 00    	nop       
    643c:	14 00 00    	nop       
    643e:	02 00 00    	nop       
    6440:	0b 00 00    	nop       
    6442:	00 00 00    	nop       
    6444:	00 03 00    	nop       
    6446:	00 0a 01    	.pword 0x010a00
    6448:	0a 00 00    	nop       
    644a:	00 00 40    	add.w     w0, w0, w0
    644c:	08 00 00    	nop       
    644e:	50 0f 00    	nop       
    6450:	02 00 00    	nop       
    6452:	00 00 00    	nop       
    6454:	56 0f 00    	nop       
    6456:	d6 1e 00    	nop       
    6458:	00 00 00    	nop       
    645a:	00 0e 00    	nop       
    645c:	42 00 00    	nop       
    645e:	02 00 00    	nop       
    6460:	fe ff 00    	nop       
    6462:	00 14 00    	nop       
    6464:	00 00 82    	mov.w     0x4000, w0
    6466:	00 80 0f    	bra       SB, 0xffff6468
    6468:	c2 08 00    	nop       
    646a:	00 00 00    	nop       
    646c:	14 00 82    	mov.w     0x4002, w4
    646e:	00 a8 19    	subbr.w   w3, w0, [++w0]
	...
    6478:	80 00 00    	nop       
    647a:	00 00 00    	nop       
    647c:	fe ff 00    	nop       
    647e:	00 14 00    	nop       
    6480:	00 00 82    	mov.w     0x4000, w0
    6482:	00 d0 23    	mov.w     #0x3d00, w0
    6484:	ea 08 00    	nop       
    6486:	00 00 00    	nop       
    6488:	14 00 82    	mov.w     0x4002, w4
    648a:	00 d0 23    	mov.w     #0x3d00, w0
    648c:	00 08 00    	nop       
    648e:	24 03 00    	nop       
    6490:	00 00 00    	nop       
    6492:	6c 31 00    	nop       
    6494:	1c 00 00    	nop       
    6496:	00 00 00    	nop       
    6498:	e4 0e 00    	nop       
    649a:	1a 00 00    	nop       
    649c:	00 00 00    	nop       
    649e:	34 0f 00    	nop       
    64a0:	04 00 00    	nop       
    64a2:	02 00 00    	nop       
    64a4:	00 40 0f    	bra       SB, 0xe4a6
    64a6:	00 00 00    	nop       
    64a8:	38 0f 00    	nop       
    64aa:	04 00 00    	nop       
    64ac:	00 00 00    	nop       
    64ae:	1e 0d 00    	nop       
    64b0:	80 00 00    	nop       
    64b2:	00 00 00    	nop       
    64b4:	52 0f 00    	nop       
    64b6:	02 00 00    	nop       
    64b8:	02 00 00    	nop       
    64ba:	20 00 00    	nop       
    64bc:	3c 0f 00    	nop       
    64be:	04 00 00    	nop       
    64c0:	00 00 00    	nop       
    64c2:	a2 0e 00    	nop       
    64c4:	24 00 00    	nop       
    64c6:	00 00 00    	nop       
    64c8:	40 0f 00    	nop       
    64ca:	04 00 00    	nop       
    64cc:	00 00 00    	nop       
    64ce:	24 0b 00    	nop       
    64d0:	02 01 00    	nop       
    64d2:	00 00 00    	nop       
    64d4:	44 0f 00    	nop       
    64d6:	04 00 00    	nop       
    64d8:	00 00 00    	nop       
    64da:	48 0f 00    	nop       
    64dc:	04 00 00    	nop       
    64de:	02 00 00    	nop       
    64e0:	00 00 01    	call      w0
    64e2:	ff 00 00    	nop       
    64e4:	22 0f 00    	nop       
    64e6:	0e 00 00    	nop       
    64e8:	02 00 00    	nop       
    64ea:	fe ff 00    	nop       
    64ec:	00 07 00    	nop       
    64ee:	00 00 06    	return    
    64f0:	00 50 0e    	bra       SA, 0x104f2
    64f2:	42 0e 00    	nop       
    64f4:	42 0e 00    	nop       
    64f6:	38 00 00    	nop       
    64f8:	00 00 00    	nop       
    64fa:	4c 0f 00    	nop       
    64fc:	04 00 00    	nop       
    64fe:	02 00 00    	nop       
	...
    6504:	54 0f 00    	nop       
    6506:	02 00 00    	nop       
    6508:	00 00 00    	nop       
    650a:	88 31 00    	nop       
    650c:	06 00 00    	nop       
    650e:	00 00 00    	nop       
    6510:	7c 30 00    	nop       
    6512:	a0 00 00    	nop       
    6514:	02 00 00    	nop       
    6516:	01 00 00    	nop       
    6518:	00 00 00    	nop       
    651a:	00 00 0a    	.pword 0x0a0000
	...
    6520:	00 64 00    	nop       
	...
    6526:	e8 03 00    	nop       
    6528:	00 00 00    	nop       
    652a:	00 00 10    	subr.w    w0, w0, w0
    652c:	27 00 00    	nop       
    652e:	00 00 00    	nop       
    6530:	00 a0 86    	mov.w     0xd400, w0
    6532:	01 00 00    	nop       
    6534:	00 00 00    	nop       
    6536:	40 42 0f    	bra       SB, 0xe9b8
    6538:	00 00 00    	nop       
    653a:	00 00 80    	mov.w     0x0, w0
    653c:	96 98 00    	nop       
    653e:	00 00 00    	nop       
    6540:	00 00 e1    	cp.w      w0, w0
    6542:	f5 05 00    	nop       
    6544:	00 00 00    	nop       
    6546:	00 ca 9a    	mov.b     w0, [w4+328]
    6548:	3b 00 00    	nop       
    654a:	00 00 00    	nop       
    654c:	e4 0b 54    	sub.w     w8, #0x4, [w7]
    654e:	02 00 00    	nop       
    6550:	00 00 e8    	inc.w     w0, w0
    6552:	76 48 17    	subr.b    w14, #0x16, [w0]
    6554:	00 00 00    	nop       
    6556:	00 10 a5    	btst.c    w0, w2
    6558:	d4 e8 00    	nop       
    655a:	00 00 00    	nop       
    655c:	a0 72 4e    	.pword 0x4e72a0
    655e:	18 09 00    	nop       
    6560:	00 00 40    	add.w     w0, w0, w0
    6562:	7a 10 f3    	.pword 0xf3107a
    6564:	5a 00 00    	nop       
    6566:	00 80 c6    	mac       w6 * w7, B, [w8], w4, [w10], w4, w13
    6568:	a4 7e 8d    	mov.w     w4, 0xafd4
    656a:	03 00 00    	nop       
    656c:	00 c1 6f    	xor.b     w15, w0, w2
    656e:	f2 86 23    	mov.w     #0x386f, w2
    6570:	00 00 00    	nop       
    6572:	8a 5d 78    	mov.b     w10, [w11++]
    6574:	45 63 01    	.pword 0x016345
    6576:	00 00 64    	and.w     w8, w0, w0
    6578:	a7 b3 b6    	xor.w     0x13a7
    657a:	e0 0d 00    	nop       
    657c:	00 e8 89    	mov.w     w0, 0x3d00
    657e:	04 23 c7    	movsac    A, [w9+w12], w6, [w10]+=2, w4, w13
    6580:	8a 00 00    	nop       
    6582:	1c 31 00    	nop       
    6584:	2a 00 00    	nop       
    6586:	02 00 00    	nop       
    6588:	28 6e 75    	ior.b     w10, [w8--], [++w12]
    658a:	6c 6c 29    	mov.w     #0x96c6, w12
    658c:	00 30 31    	bra       C, 0xc58e
    658e:	32 33 34    	bra       LE, 0xcbf4
    6590:	35 36 37    	bra       0xd1fc
    6592:	38 39 41    	.pword 0x413938
    6594:	42 43 44    	add.b     w8, [--w2], w6
    6596:	45 46 00    	nop       
    6598:	30 31 32    	bra       Z, 0xc7fa
    659a:	33 34 35    	bra       LT, 0xce02
    659c:	36 37 38    	bra       NOV, 0xd40a
    659e:	39 61 62    	and.b     w4, [w9++], [--w2]
    65a0:	63 64 65    	and.b     w10, #0x3, [--w8]
    65a2:	66 00 00    	nop       
    65a4:	2c 2e 00    	nop       
    65a6:	60 01 00    	nop       
    65a8:	02 00 00    	nop       
	...
    65ae:	f0 3f 00    	nop       
    65b0:	00 00 a0    	bset.w    w0, #0x0
    65b2:	99 99 b9    	.pword 0xb99999
    65b4:	3f 00 00    	nop       
    65b6:	00 40 e1    	cp.w      w8, w0
    65b8:	7a 84 3f    	bra       0xffff6eae
    65ba:	00 00 00    	nop       
    65bc:	e0 4d 62    	and.b     w4, #0x0, [w11]
    65be:	50 3f 00    	nop       
    65c0:	00 00 e0    	cp0.w     w0
    65c2:	e2 36 1a    	.pword 0x1a36e2
    65c4:	3f 00 00    	nop       
    65c6:	00 80 b5    	subb.w    0x0, WREG
    65c8:	f8 e4 3e    	bra       GTU, 0x2fba
    65ca:	00 00 00    	nop       
    65cc:	a0 f7 c6    	msc       w6 * w7, B, [w9]-=4, w7, [w11], w5, w13
    65ce:	b0 3e 00    	nop       
    65d0:	00 00 a0    	bset.w    w0, #0x0
    65d2:	f2 d7 7a    	.pword 0x7ad7f2
    65d4:	3e 00 00    	nop       
    65d6:	00 e0 8e    	mov.w     w0, 0xdc00
    65d8:	79 45 3e    	bra       GTU, 0xf0cc
    65da:	00 00 00    	nop       
    65dc:	e0 0b 2e    	mov.w     #0xe0be, w0
    65de:	11 3e 00    	nop       
    65e0:	00 00 e0    	cp0.w     w0
    65e2:	df 7c db    	.pword 0xdb7cdf
    65e4:	3d 00 00    	nop       
    65e6:	00 00 a1    	bclr.w    w0, #0x0
    65e8:	9c c7 3b    	bra       NN, 0xfffff522
    65ea:	00 00 00    	nop       
    65ec:	00 4c 48    	addc.b    w0, w0, [w8]
    65ee:	b4 39 00    	nop       
    65f0:	00 00 00    	nop       
    65f2:	20 6c a1    	.pword 0xa16c20
    65f4:	37 00 00    	nop       
	...
    6622:	00 00 f0    	mac       w4 * w4, A, [w8], w4, [w10], w4
    6624:	3f 00 00    	nop       
    6626:	00 00 00    	nop       
    6628:	00 24 40    	add.w     w0, w0, [--w8]
	...
    662e:	59 40 00    	nop       
    6630:	00 00 00    	nop       
    6632:	00 40 8f    	mov.w     w0, 0xe800
    6634:	40 00 00    	nop       
    6636:	00 00 00    	nop       
    6638:	88 c3 40    	add.b     w1, w8, w7
    663a:	00 00 00    	nop       
    663c:	00 00 6a    	xor.w     w4, w0, w0
    663e:	f8 40 00    	nop       
    6640:	00 00 00    	nop       
    6642:	80 84 2e    	mov.w     #0xe848, w0
    6644:	41 00 00    	nop       
    6646:	00 00 d0    	sl.w      w0, w0
    6648:	12 63 41    	add.b     w2, [w2], [--w6]
    664a:	00 00 00    	nop       
    664c:	00 84 d7    	rrc.w     0x400, WREG
    664e:	97 41 00    	nop       
    6650:	00 00 00    	nop       
    6652:	65 cd cd    	sac.r     B, #0xa, [w5+w9]
    6654:	41 00 00    	nop       
    6656:	00 20 5f    	subb.w    w14, w0, [--w0]
    6658:	a0 02 42    	add.w     w4, [w0--], w5
    665a:	00 00 00    	nop       
    665c:	80 1d af    	btsc.b    0x1d80, #0x0
    665e:	15 44 00    	nop       
    6660:	00 00 40    	add.w     w0, w0, w0
    6662:	59 3e 29    	mov.w     #0x93e5, w9
    6664:	46 00 00    	nop       
    6666:	00 00 00    	nop       
    6668:	00 f0 7f    	mov.b     w0, [w0+w15]
	...
    666e:	f0 7f 00    	nop       
    6670:	00 00 00    	nop       
    6672:	00 00 f0    	mac       w4 * w4, A, [w8], w4, [w10], w4
    6674:	7f 00 00    	nop       
    6676:	00 00 00    	nop       
    6678:	00 f0 7f    	mov.b     w0, [w0+w15]
	...
    667e:	f0 7f 00    	nop       
    6680:	00 00 00    	nop       
    6682:	00 00 f0    	mac       w4 * w4, A, [w8], w4, [w10], w4
    6684:	7f 00 00    	nop       
    6686:	00 00 00    	nop       
    6688:	00 f0 7f    	mov.b     w0, [w0+w15]
	...
    668e:	f0 7f 00    	nop       
    6690:	00 00 00    	nop       
    6692:	00 00 f0    	mac       w4 * w4, A, [w8], w4, [w10], w4
    6694:	7f 00 00    	nop       
    6696:	46 31 00    	nop       
    6698:	26 00 00    	nop       
    669a:	02 00 00    	nop       
    669c:	48 31 90    	mov.w     [w8+104], w2
    669e:	31 00 00    	nop       
    66a0:	90 31 09    	repeat    #0x3190
    66a2:	00 00 00    	nop       
    66a4:	02 00 8e    	mov.w     w2, 0xc000
    66a6:	31 00 00    	nop       
    66a8:	8e 31 06    	.pword 0x06318e
    66aa:	02 01 00    	nop       
	...
    66b0:	00 00 06    	return    
    66b2:	02 02 00    	nop       
    66b4:	00 00 00    	nop       
    66b6:	8e 31 00    	nop       
    66b8:	06 00 00    	nop       
    66ba:	00 00 00    	nop       
    66bc:	98 31 00    	nop       
    66be:	02 00 00    	nop       
    66c0:	02 00 00    	nop       
    66c2:	01 00 00    	nop       
    66c4:	00 00 00    	nop       
Disassembly of section .text:

000066c6 <_EE_compute_ticks_for_baud>:
    66c6:	88 9f be    	mov.d     w8, [w15++]
    66c8:	00 04 be    	mov.d     w0, w8
    66ca:	3a 02 07    	rcall     0x6b40 <_EE_get_peripheral_clock>
    66cc:	00 01 be    	mov.d     w0, w2
    66ce:	e0 0f 50    	sub.w     w0, #0x0, [w15]
    66d0:	e0 8f 58    	subb.w    w1, #0x0, [w15]
    66d2:	07 00 34    	bra       LE, 0x66e2 <.L2>
    66d4:	89 00 d1    	lsr.w     w9, w1
    66d6:	08 80 d3    	rrc.w     w8, w0
    66d8:	00 00 41    	add.w     w2, w0, w0
    66da:	81 80 49    	addc.w    w3, w1, w1
    66dc:	08 01 be    	mov.d     w8, w2
    66de:	ba ce 07    	rcall     0x454
    66e0:	00 01 be    	mov.d     w0, w2

000066e2 <.L2>:
    66e2:	02 00 78    	mov.w     w2, w0
    66e4:	4f 04 be    	mov.d     [--w15], w8
    66e6:	00 00 06    	return    

000066e8 <_EE_uart_close>:
    66e8:	00 04 e0    	cp0.b     w0
    66ea:	02 00 3a    	bra       NZ, 0x66f0 <.L15>

000066ec <.L8>:
    66ec:	10 00 20    	mov.w     #0x1, w0
    66ee:	00 00 06    	return    

000066f0 <.L15>:
    66f0:	80 80 eb    	setm.w    w1
    66f2:	e1 4f 50    	sub.b     w0, #0x1, [w15]
    66f4:	fb ff 32    	bra       Z, 0x66ec <.L8>
    66f6:	01 00 78    	mov.w     w1, w0
    66f8:	00 00 06    	return    
    66fa:	fa ff 37    	bra       0x66f0 <.L15>

000066fc <_EE_uart_set_tx_callback>:
    66fc:	00 04 e0    	cp0.b     w0
    66fe:	05 00 32    	bra       Z, 0x670a <.L19>
    6700:	80 80 eb    	setm.w    w1
    6702:	e1 4f 50    	sub.b     w0, #0x1, [w15]
    6704:	02 00 32    	bra       Z, 0x670a <.L19>
    6706:	01 00 78    	mov.w     w1, w0
    6708:	00 00 06    	return    

0000670a <.L19>:
    670a:	b0 ff 2f    	mov.w     #0xfffb, w0
    670c:	00 00 06    	return    
    670e:	fd ff 37    	bra       0x670a <.L19>

00006710 <_EE_uart_set_rx_callback>:
    6710:	00 04 e0    	cp0.b     w0
    6712:	05 00 32    	bra       Z, 0x671e <.L28>
    6714:	80 80 eb    	setm.w    w1
    6716:	e1 4f 50    	sub.b     w0, #0x1, [w15]
    6718:	02 00 32    	bra       Z, 0x671e <.L28>
    671a:	01 00 78    	mov.w     w1, w0
    671c:	00 00 06    	return    

0000671e <.L28>:
    671e:	b0 ff 2f    	mov.w     #0xfffb, w0
    6720:	00 00 06    	return    
    6722:	fd ff 37    	bra       0x671e <.L28>

00006724 <_EE_uart_write_byte>:
    6724:	00 04 e0    	cp0.b     w0
    6726:	0b 00 3a    	bra       NZ, 0x673e <.L37>

00006728 <.L48>:
    6728:	23 c2 bf    	mov.b     0x223, WREG
    672a:	00 18 a3    	btst.z    w0, #0x1
    672c:	fd ff 3a    	bra       NZ, 0x6728 <.L48>
    672e:	01 80 fb    	ze        w1, w0
    6730:	20 11 88    	mov.w     w0, 0x224

00006732 <.L40>:
    6732:	23 c2 bf    	mov.b     0x223, WREG
    6734:	00 08 a3    	btst.z    w0, #0x0
    6736:	fd ff 32    	bra       Z, 0x6732 <.L40>

00006738 <.L41>:
    6738:	12 00 20    	mov.w     #0x1, w2

0000673a <.L44>:
    673a:	02 00 78    	mov.w     w2, w0
    673c:	00 00 06    	return    

0000673e <.L37>:
    673e:	00 81 eb    	setm.w    w2
    6740:	e1 4f 50    	sub.b     w0, #0x1, [w15]
    6742:	fb ff 3a    	bra       NZ, 0x673a <.L44>

00006744 <.L49>:
    6744:	33 c2 bf    	mov.b     0x233, WREG
    6746:	00 18 a3    	btst.z    w0, #0x1
    6748:	fd ff 3a    	bra       NZ, 0x6744 <.L49>
    674a:	01 80 fb    	ze        w1, w0
    674c:	a0 11 88    	mov.w     w0, 0x234

0000674e <.L46>:
    674e:	33 c2 bf    	mov.b     0x233, WREG
    6750:	00 08 a3    	btst.z    w0, #0x0
    6752:	f2 ff 3a    	bra       NZ, 0x6738 <.L41>
    6754:	33 c2 bf    	mov.b     0x233, WREG
    6756:	00 08 a3    	btst.z    w0, #0x0
    6758:	fa ff 32    	bra       Z, 0x674e <.L46>
    675a:	ee ff 37    	bra       0x6738 <.L41>

0000675c <_EE_uart_write_string>:
    675c:	88 9f be    	mov.d     w8, [w15++]
    675e:	8a 1f 78    	mov.w     w10, [w15++]
    6760:	00 45 78    	mov.b     w0, w10
    6762:	01 04 78    	mov.w     w1, w8
    6764:	01 00 e0    	cp0.w     w1
    6766:	03 00 32    	bra       Z, 0x676e <.L61>
    6768:	91 40 78    	mov.b     [w1], w1
    676a:	01 04 e0    	cp0.b     w1
    676c:	05 00 3a    	bra       NZ, 0x6778 <.L74>

0000676e <.L61>:
    676e:	00 40 eb    	clr.b     w0

00006770 <.L70>:
    6770:	00 00 fb    	se        w0, w0
    6772:	4f 05 78    	mov.w     [--w15], w10
    6774:	4f 04 be    	mov.d     [--w15], w8
    6776:	00 00 06    	return    

00006778 <.L74>:
    6778:	80 04 eb    	clr.w     w9

0000677a <.L63>:
    677a:	0a 40 78    	mov.b     w10, w0
    677c:	d3 ff 07    	rcall     0x6724 <_EE_uart_write_byte>
    677e:	00 00 fb    	se        w0, w0
    6780:	f7 ff 33    	bra       N, 0x6770 <.L70>
    6782:	89 04 e8    	inc.w     w9, w9
    6784:	e9 40 7c    	mov.b     [w9+w8], w1
    6786:	01 04 e0    	cp0.b     w1
    6788:	f8 ff 3a    	bra       NZ, 0x677a <.L63>
    678a:	09 40 78    	mov.b     w9, w0
    678c:	00 00 fb    	se        w0, w0
    678e:	4f 05 78    	mov.w     [--w15], w10
    6790:	4f 04 be    	mov.d     [--w15], w8
    6792:	00 00 06    	return    
    6794:	f1 ff 37    	bra       0x6778 <.L74>

00006796 <_EE_uart_read_byte>:
    6796:	00 04 e0    	cp0.b     w0
    6798:	12 00 3a    	bra       NZ, 0x67be <.L78>
    679a:	22 c2 bf    	mov.b     0x222, WREG
    679c:	00 18 a3    	btst.z    w0, #0x1
    679e:	08 00 3a    	bra       NZ, 0x67b0 <.L92>
    67a0:	22 c2 bf    	mov.b     0x222, WREG
    67a2:	00 08 a3    	btst.z    w0, #0x0
    67a4:	09 00 32    	bra       Z, 0x67b8 <.L83>
    67a6:	30 11 80    	mov.w     0x226, w0
    67a8:	80 48 78    	mov.b     w0, [w1]
    67aa:	12 00 20    	mov.w     #0x1, w2

000067ac <.L82>:
    67ac:	02 00 78    	mov.w     w2, w0
    67ae:	00 00 06    	return    

000067b0 <.L92>:
    67b0:	22 22 a9    	bclr.b    0x222, #0x1
    67b2:	d0 ff 2f    	mov.w     #0xfffd, w0
    67b4:	00 00 06    	return    
    67b6:	fc ff 37    	bra       0x67b0 <.L92>

000067b8 <.L83>:
    67b8:	e0 ff 2f    	mov.w     #0xfffe, w0
    67ba:	00 00 06    	return    
    67bc:	f9 ff 37    	bra       0x67b0 <.L92>

000067be <.L78>:
    67be:	00 81 eb    	setm.w    w2
    67c0:	e1 4f 50    	sub.b     w0, #0x1, [w15]
    67c2:	f4 ff 3a    	bra       NZ, 0x67ac <.L82>
    67c4:	32 c2 bf    	mov.b     0x232, WREG
    67c6:	00 18 a3    	btst.z    w0, #0x1
    67c8:	04 00 32    	bra       Z, 0x67d2 <.L87>
    67ca:	32 22 a9    	bclr.b    0x232, #0x1
    67cc:	d0 ff 2f    	mov.w     #0xfffd, w0
    67ce:	00 00 06    	return    
    67d0:	ef ff 37    	bra       0x67b0 <.L92>

000067d2 <.L87>:
    67d2:	32 c2 bf    	mov.b     0x232, WREG
    67d4:	00 08 a3    	btst.z    w0, #0x0
    67d6:	f0 ff 32    	bra       Z, 0x67b8 <.L83>
    67d8:	b0 11 80    	mov.w     0x236, w0
    67da:	80 48 78    	mov.b     w0, [w1]
    67dc:	10 00 20    	mov.w     #0x1, w0
    67de:	00 00 06    	return    
    67e0:	e7 ff 37    	bra       0x67b0 <.L92>

000067e2 <_EE_uart_write_byte_async>:
    67e2:	00 04 e0    	cp0.b     w0
    67e4:	05 00 3a    	bra       NZ, 0x67f0 <.L103>
    67e6:	01 80 fb    	ze        w1, w0
    67e8:	20 11 88    	mov.w     w0, 0x224
    67ea:	00 01 eb    	clr.w     w2

000067ec <.L98>:
    67ec:	02 00 78    	mov.w     w2, w0
    67ee:	00 00 06    	return    

000067f0 <.L103>:
    67f0:	00 81 eb    	setm.w    w2
    67f2:	e1 4f 50    	sub.b     w0, #0x1, [w15]
    67f4:	fb ff 3a    	bra       NZ, 0x67ec <.L98>
    67f6:	01 80 fb    	ze        w1, w0
    67f8:	a0 11 88    	mov.w     w0, 0x234
    67fa:	00 00 20    	mov.w     #0x0, w0
    67fc:	00 00 06    	return    
    67fe:	f8 ff 37    	bra       0x67f0 <.L103>

00006800 <_EE_uart_read_byte_async>:
    6800:	00 04 e0    	cp0.b     w0
    6802:	0b 00 3a    	bra       NZ, 0x681a <.L106>
    6804:	22 c2 bf    	mov.b     0x222, WREG
    6806:	00 18 a3    	btst.z    w0, #0x1
    6808:	16 00 3a    	bra       NZ, 0x6836 <.L120>
    680a:	22 c2 bf    	mov.b     0x222, WREG
    680c:	00 08 a3    	btst.z    w0, #0x0
    680e:	1b 00 32    	bra       Z, 0x6846 <.L111>
    6810:	30 11 80    	mov.w     0x226, w0
    6812:	80 48 78    	mov.b     w0, [w1]
    6814:	00 01 eb    	clr.w     w2

00006816 <.L110>:
    6816:	02 00 78    	mov.w     w2, w0
    6818:	00 00 06    	return    

0000681a <.L106>:
    681a:	00 81 eb    	setm.w    w2
    681c:	e1 4f 50    	sub.b     w0, #0x1, [w15]
    681e:	fb ff 3a    	bra       NZ, 0x6816 <.L110>
    6820:	32 c2 bf    	mov.b     0x232, WREG
    6822:	00 18 a3    	btst.z    w0, #0x1
    6824:	0c 00 3a    	bra       NZ, 0x683e <.L121>
    6826:	32 c2 bf    	mov.b     0x232, WREG
    6828:	00 08 a3    	btst.z    w0, #0x0
    682a:	0d 00 32    	bra       Z, 0x6846 <.L111>
    682c:	b0 11 80    	mov.w     0x236, w0
    682e:	80 48 78    	mov.b     w0, [w1]
    6830:	00 00 20    	mov.w     #0x0, w0
    6832:	00 00 06    	return    
    6834:	f2 ff 37    	bra       0x681a <.L106>

00006836 <.L120>:
    6836:	22 22 a9    	bclr.b    0x222, #0x1
    6838:	d0 ff 2f    	mov.w     #0xfffd, w0
    683a:	00 00 06    	return    
    683c:	ee ff 37    	bra       0x681a <.L106>

0000683e <.L121>:
    683e:	32 22 a9    	bclr.b    0x232, #0x1
    6840:	d0 ff 2f    	mov.w     #0xfffd, w0
    6842:	00 00 06    	return    
    6844:	ea ff 37    	bra       0x681a <.L106>

00006846 <.L111>:
    6846:	e0 ff 2f    	mov.w     #0xfffe, w0
    6848:	00 00 06    	return    
    684a:	e7 ff 37    	bra       0x681a <.L106>

0000684c <_EE_uart_init>:
    684c:	88 9f be    	mov.d     w8, [w15++]
    684e:	80 42 78    	mov.b     w0, w5
    6850:	81 04 78    	mov.w     w1, w9
    6852:	04 04 78    	mov.w     w4, w8
    6854:	00 04 e0    	cp0.b     w0
    6856:	3e 00 3a    	bra       NZ, 0x68d4 <.L125>

00006858 <.bb>:
    6858:	20 22 ef    	clr.w     0x220
    685a:	95 60 a9    	bclr.b    0x95, #0x3
    685c:	95 80 a9    	bclr.b    0x95, #0x4
    685e:	85 60 a9    	bclr.b    0x85, #0x3
    6860:	85 80 a9    	bclr.b    0x85, #0x4

00006862 <.bb>:
    6862:	de 42 a8    	bset.b    0x2de, #0x2

00006864 <.eb>:
    6864:	e1 0f 52    	sub.w     w4, #0x1, [w15]
    6866:	31 00 32    	bra       Z, 0x68ca <.L154>

00006868 <.bb>:
    6868:	de 62 a9    	bclr.b    0x2de, #0x3

0000686a <.eb>:
    686a:	e1 0f 54    	sub.w     w8, #0x1, [w15]
    686c:	2c 00 32    	bra       Z, 0x68c6 <.L155>

0000686e <.L129>:
    686e:	02 00 be    	mov.d     w2, w0
    6870:	2a ff 07    	rcall     0x66c6 <_EE_compute_ticks_for_baud>
    6872:	00 00 e0    	cp0.w     w0
    6874:	06 00 34    	bra       LE, 0x6882 <.L131>
    6876:	f0 0f 50    	sub.w     w0, #0x10, [w15]
    6878:	13 00 3c    	bra       GT, 0x68a0 <.L156>
    687a:	20 62 a8    	bset.b    0x220, #0x3
    687c:	42 80 de    	asr.w     w0, #0x2, w0
    687e:	00 00 e9    	dec.w     w0, w0
    6880:	40 11 88    	mov.w     w0, 0x228

00006882 <.L131>:
    6882:	21 e2 a8    	bset.b    0x221, #0x7
    6884:	e1 0f 54    	sub.w     w8, #0x1, [w15]
    6886:	13 00 32    	bra       Z, 0x68ae <.L157>

00006888 <.L135>:
    6888:	21 62 a9    	bclr.b    0x221, #0x3
    688a:	21 c2 bf    	mov.b     0x221, WREG
    688c:	c1 cf b3    	mov.b     #0xfc, w1
    688e:	01 40 60    	and.b     w0, w1, w0
    6890:	21 e2 b7    	mov.b     WREG, 0x221
    6892:	67 80 64    	and.w     w9, #0x7, w0
    6894:	20 22 b7    	ior.w     0x220
    6896:	22 22 ef    	clr.w     0x222
    6898:	23 42 a8    	bset.b    0x223, #0x2
    689a:	10 00 20    	mov.w     #0x1, w0

0000689c <.L138>:
    689c:	4f 04 be    	mov.d     [--w15], w8
    689e:	00 00 06    	return    

000068a0 <.L156>:
    68a0:	20 62 a9    	bclr.b    0x220, #0x3
    68a2:	44 80 de    	asr.w     w0, #0x4, w0
    68a4:	00 00 e9    	dec.w     w0, w0
    68a6:	40 11 88    	mov.w     w0, 0x228

000068a8 <.eb>:
    68a8:	21 e2 a8    	bset.b    0x221, #0x7
    68aa:	e1 0f 54    	sub.w     w8, #0x1, [w15]
    68ac:	ed ff 3a    	bra       NZ, 0x6888 <.L135>

000068ae <.L157>:
    68ae:	21 62 a8    	bset.b    0x221, #0x3
    68b0:	21 c2 bf    	mov.b     0x221, WREG
    68b2:	c1 cf b3    	mov.b     #0xfc, w1
    68b4:	01 40 60    	and.b     w0, w1, w0
    68b6:	00 14 a0    	bset.b    w0, #0x1
    68b8:	21 e2 b7    	mov.b     WREG, 0x221
    68ba:	67 80 64    	and.w     w9, #0x7, w0
    68bc:	20 22 b7    	ior.w     0x220
    68be:	22 22 ef    	clr.w     0x222
    68c0:	23 42 a8    	bset.b    0x223, #0x2
    68c2:	10 00 20    	mov.w     #0x1, w0
    68c4:	eb ff 37    	bra       0x689c <.L138>

000068c6 <.L155>:
    68c6:	d3 e2 a9    	bclr.b    0x2d3, #0x7
    68c8:	d2 ff 37    	bra       0x686e <.L129>

000068ca <.L154>:
    68ca:	d3 c2 a8    	bset.b    0x2d3, #0x6

000068cc <.bb>:
    68cc:	de 62 a9    	bclr.b    0x2de, #0x3

000068ce <.eb>:
    68ce:	e1 0f 54    	sub.w     w8, #0x1, [w15]
    68d0:	ce ff 3a    	bra       NZ, 0x686e <.L129>
    68d2:	f9 ff 37    	bra       0x68c6 <.L155>

000068d4 <.L125>:
    68d4:	00 80 eb    	setm.w    w0
    68d6:	e1 cf 52    	sub.b     w5, #0x1, [w15]
    68d8:	e1 ff 3a    	bra       NZ, 0x689c <.L138>

000068da <.bb>:
    68da:	30 22 ef    	clr.w     0x230
    68dc:	97 c0 a9    	bclr.b    0x97, #0x6
    68de:	97 e0 a9    	bclr.b    0x97, #0x7
    68e0:	87 c0 a9    	bclr.b    0x87, #0x6
    68e2:	87 e0 a9    	bclr.b    0x87, #0x7

000068e4 <.bb>:
    68e4:	de 82 a8    	bset.b    0x2de, #0x4

000068e6 <.eb>:
    68e6:	e1 0f 52    	sub.w     w4, #0x1, [w15]
    68e8:	1e 00 32    	bra       Z, 0x6926 <.L158>

000068ea <.bb>:
    68ea:	de a2 a9    	bclr.b    0x2de, #0x5
    68ec:	df a2 a9    	bclr.b    0x2df, #0x5

000068ee <.eb>:
    68ee:	e1 0f 54    	sub.w     w8, #0x1, [w15]
    68f0:	1f 00 32    	bra       Z, 0x6930 <.L159>

000068f2 <.L143>:
    68f2:	02 00 be    	mov.d     w2, w0
    68f4:	e8 fe 07    	rcall     0x66c6 <_EE_compute_ticks_for_baud>
    68f6:	00 00 e0    	cp0.w     w0
    68f8:	06 00 34    	bra       LE, 0x6906 <.L145>
    68fa:	f0 0f 50    	sub.w     w0, #0x10, [w15]
    68fc:	1b 00 34    	bra       LE, 0x6934 <.L147>
    68fe:	30 62 a9    	bclr.b    0x230, #0x3
    6900:	44 80 de    	asr.w     w0, #0x4, w0
    6902:	00 00 e9    	dec.w     w0, w0
    6904:	c0 11 88    	mov.w     w0, 0x238

00006906 <.L145>:
    6906:	31 e2 a8    	bset.b    0x231, #0x7
    6908:	e1 0f 54    	sub.w     w8, #0x1, [w15]
    690a:	19 00 32    	bra       Z, 0x693e <.L160>
    690c:	31 62 a9    	bclr.b    0x231, #0x3
    690e:	31 c2 bf    	mov.b     0x231, WREG
    6910:	c1 cf b3    	mov.b     #0xfc, w1
    6912:	01 40 60    	and.b     w0, w1, w0
    6914:	31 e2 b7    	mov.b     WREG, 0x231
    6916:	67 80 64    	and.w     w9, #0x7, w0
    6918:	30 22 b7    	ior.w     0x230
    691a:	32 22 ef    	clr.w     0x232
    691c:	33 42 a8    	bset.b    0x233, #0x2
    691e:	10 00 20    	mov.w     #0x1, w0

00006920 <.L161>:
    6920:	4f 04 be    	mov.d     [--w15], w8
    6922:	00 00 06    	return    
    6924:	bd ff 37    	bra       0x68a0 <.L156>

00006926 <.L158>:
    6926:	df 82 a8    	bset.b    0x2df, #0x4

00006928 <.bb>:
    6928:	de a2 a9    	bclr.b    0x2de, #0x5
    692a:	df a2 a9    	bclr.b    0x2df, #0x5

0000692c <.eb>:
    692c:	e1 0f 54    	sub.w     w8, #0x1, [w15]
    692e:	e1 ff 3a    	bra       NZ, 0x68f2 <.L143>

00006930 <.L159>:
    6930:	df a2 a9    	bclr.b    0x2df, #0x5
    6932:	df ff 37    	bra       0x68f2 <.L143>

00006934 <.L147>:
    6934:	30 62 a8    	bset.b    0x230, #0x3
    6936:	42 80 de    	asr.w     w0, #0x2, w0
    6938:	00 00 e9    	dec.w     w0, w0
    693a:	c0 11 88    	mov.w     w0, 0x238
    693c:	e4 ff 37    	bra       0x6906 <.L145>

0000693e <.L160>:
    693e:	31 62 a8    	bset.b    0x231, #0x3
    6940:	31 c2 bf    	mov.b     0x231, WREG
    6942:	c1 cf b3    	mov.b     #0xfc, w1
    6944:	01 40 60    	and.b     w0, w1, w0
    6946:	00 14 a0    	bset.b    w0, #0x1
    6948:	31 e2 b7    	mov.b     WREG, 0x231
    694a:	67 80 64    	and.w     w9, #0x7, w0
    694c:	30 22 b7    	ior.w     0x230
    694e:	32 22 ef    	clr.w     0x232
    6950:	33 42 a8    	bset.b    0x233, #0x2
    6952:	10 00 20    	mov.w     #0x1, w0
    6954:	e5 ff 37    	bra       0x6920 <.L161>

00006956 <_EE_set_system_clock_pll>:
    6956:	88 1f 78    	mov.w     w8, [w15++]
    6958:	04 44 78    	mov.b     w4, w8
    695a:	42 0a dd    	sl.w      w1, #0x2, w4
    695c:	ce 00 de    	lsr.w     w0, #0xe, w1
    695e:	81 00 72    	ior.w     w4, w1, w1
    6960:	42 00 dd    	sl.w      w0, #0x2, w0
    6962:	83 02 d1    	lsr.w     w3, w5
    6964:	02 82 d3    	rrc.w     w2, w4
    6966:	00 00 42    	add.w     w4, w0, w0
    6968:	81 80 4a    	addc.w    w5, w1, w1
    696a:	74 cd 07    	rcall     0x454
    696c:	00 01 78    	mov.w     w0, w2
    696e:	48 27 ef    	clr.w     0x748
    6970:	e1 4f 54    	sub.b     w8, #0x1, [w15]
    6972:	27 00 32    	bra       Z, 0x69c2 <.L13>
    6974:	45 67 a9    	bclr.b    0x745, #0x3
    6976:	44 c7 bf    	mov.b     0x744, WREG
    6978:	f0 43 b2    	and.b     #0x3f, w0
    697a:	44 e7 b7    	mov.b     WREG, 0x744
    697c:	44 c7 bf    	mov.b     0x744, WREG
    697e:	01 ce b3    	mov.b     #0xe0, w1
    6980:	01 40 60    	and.b     w0, w1, w0
    6982:	44 e7 b7    	mov.b     WREG, 0x744
    6984:	02 81 e9    	dec2.w    w2, w2
    6986:	f2 1f b2    	and.w     #0x1ff, w2
    6988:	30 3a 80    	mov.w     0x746, w0
    698a:	01 e0 2f    	mov.w     #0xfe00, w1
    698c:	01 00 60    	and.w     w0, w1, w0
    698e:	02 00 70    	ior.w     w0, w2, w0
    6990:	30 3a 88    	mov.w     w0, 0x746
    6992:	08 82 fb    	ze        w8, w4
    6994:	a1 09 20    	mov.w     #0x9a, w1
    6996:	80 07 20    	mov.w     #0x78, w0
    6998:	32 74 20    	mov.w     #0x743, w2
    699a:	00 49 78    	mov.b     w0, [w2]
    699c:	01 49 78    	mov.b     w1, [w2]
    699e:	04 49 78    	mov.b     w4, [w2]
    69a0:	12 00 20    	mov.w     #0x1, w2
    69a2:	71 05 20    	mov.w     #0x57, w1
    69a4:	60 04 20    	mov.w     #0x46, w0
    69a6:	23 74 20    	mov.w     #0x742, w3
    69a8:	80 49 78    	mov.b     w0, [w3]
    69aa:	81 49 78    	mov.b     w1, [w3]
    69ac:	82 49 78    	mov.b     w2, [w3]

000069ae <.L4>:
    69ae:	43 c7 bf    	mov.b     0x743, WREG
    69b0:	44 00 de    	lsr.w     w0, #0x4, w0
    69b2:	67 00 60    	and.w     w0, #0x7, w0
    69b4:	84 0f 50    	sub.w     w0, w4, [w15]
    69b6:	fb ff 3a    	bra       NZ, 0x69ae <.L4>

000069b8 <.L8>:
    69b8:	42 c7 bf    	mov.b     0x742, WREG
    69ba:	00 58 a3    	btst.z    w0, #0x5
    69bc:	fd ff 32    	bra       Z, 0x69b8 <.L8>
    69be:	4f 04 78    	mov.w     [--w15], w8
    69c0:	00 00 06    	return    

000069c2 <.L13>:
    69c2:	45 c7 bf    	mov.b     0x745, WREG
    69c4:	81 cf b3    	mov.b     #0xf8, w1
    69c6:	01 40 60    	and.b     w0, w1, w0
    69c8:	45 e7 b7    	mov.b     WREG, 0x745
    69ca:	45 67 a9    	bclr.b    0x745, #0x3
    69cc:	44 c7 bf    	mov.b     0x744, WREG
    69ce:	f0 43 b2    	and.b     #0x3f, w0
    69d0:	44 e7 b7    	mov.b     WREG, 0x744
    69d2:	44 c7 bf    	mov.b     0x744, WREG
    69d4:	01 ce b3    	mov.b     #0xe0, w1
    69d6:	01 40 60    	and.b     w0, w1, w0
    69d8:	44 e7 b7    	mov.b     WREG, 0x744
    69da:	02 81 e9    	dec2.w    w2, w2
    69dc:	f2 1f b2    	and.w     #0x1ff, w2
    69de:	30 3a 80    	mov.w     0x746, w0
    69e0:	01 e0 2f    	mov.w     #0xfe00, w1
    69e2:	01 00 60    	and.w     w0, w1, w0
    69e4:	02 00 70    	ior.w     w0, w2, w0
    69e6:	30 3a 88    	mov.w     w0, 0x746
    69e8:	08 82 fb    	ze        w8, w4
    69ea:	a1 09 20    	mov.w     #0x9a, w1
    69ec:	80 07 20    	mov.w     #0x78, w0
    69ee:	32 74 20    	mov.w     #0x743, w2
    69f0:	00 49 78    	mov.b     w0, [w2]
    69f2:	01 49 78    	mov.b     w1, [w2]
    69f4:	04 49 78    	mov.b     w4, [w2]
    69f6:	12 00 20    	mov.w     #0x1, w2
    69f8:	71 05 20    	mov.w     #0x57, w1
    69fa:	60 04 20    	mov.w     #0x46, w0
    69fc:	23 74 20    	mov.w     #0x742, w3
    69fe:	80 49 78    	mov.b     w0, [w3]
    6a00:	81 49 78    	mov.b     w1, [w3]
    6a02:	82 49 78    	mov.b     w2, [w3]
    6a04:	d4 ff 37    	bra       0x69ae <.L4>

00006a06 <_EE_set_system_clock>:
    6a06:	88 1f 78    	mov.w     w8, [w15++]
    6a08:	00 03 be    	mov.d     w0, w6
    6a0a:	43 c7 bf    	mov.b     0x743, WREG
    6a0c:	44 00 de    	lsr.w     w0, #0x4, w0
    6a0e:	67 01 60    	and.w     w0, #0x7, w2
    6a10:	e1 4f 51    	sub.b     w2, #0x1, [w15]
    6a12:	11 00 32    	bra       Z, 0x6a36 <.L20>
    6a14:	e3 4f 51    	sub.b     w2, #0x3, [w15]
    6a16:	0f 00 32    	bra       Z, 0x6a36 <.L20>

00006a18 <.bb>:
    6a18:	21 03 20    	mov.w     #0x32, w1
    6a1a:	91 40 78    	mov.b     [w1], w1
    6a1c:	80 0f 20    	mov.w     #0xf8, w0
    6a1e:	32 e0 b7    	mov.b     WREG, 0x32
    6a20:	80 00 20    	mov.w     #0x8, w0
    6a22:	10 00 ba    	tblrdl.w  [w0], w0
    6a24:	80 00 fd    	exch      w0, w1
    6a26:	32 e0 b7    	mov.b     WREG, 0x32
    6a28:	80 00 fd    	exch      w0, w1

00006a2a <.eb>:
    6a2a:	00 78 a3    	btst.z    w0, #0x7
    6a2c:	2d 00 32    	bra       Z, 0x6a88 <.L43>

00006a2e <.L22>:
    6a2e:	80 40 eb    	clr.b     w1

00006a30 <.eb>:
    6a30:	00 80 eb    	setm.w    w0
    6a32:	01 04 e0    	cp0.b     w1
    6a34:	1e 00 32    	bra       Z, 0x6a72 <.L28>

00006a36 <.L20>:
    6a36:	f0 50 27    	mov.w     #0x750f, w0
    6a38:	01 07 20    	mov.w     #0x70, w1
    6a3a:	80 0f 53    	sub.w     w6, w0, [w15]
    6a3c:	81 8f 5b    	subb.w    w7, w1, [w15]
    6a3e:	1b 00 36    	bra       LEU, 0x6a76 <.L44>
    6a40:	00 40 2b    	mov.w     #0xb400, w0
    6a42:	41 4c 20    	mov.w     #0x4c4, w1
    6a44:	80 0f 53    	sub.w     w6, w0, [w15]
    6a46:	81 8f 5b    	subb.w    w7, w1, [w15]
    6a48:	28 00 3e    	bra       GTU, 0x6a9a <.L45>

00006a4a <.L31>:
    6a4a:	67 40 61    	and.b     w2, #0x7, w0
    6a4c:	e7 4f 50    	sub.b     w0, #0x7, [w15]
    6a4e:	18 00 3e    	bra       GTU, 0x6a80 <.L40>

00006a50 <.L46>:
    6a50:	00 00 fb    	se        w0, w0
    6a52:	12 00 20    	mov.w     #0x1, w2
    6a54:	80 10 dd    	sl.w      w2, w0, w1
    6a56:	6c 80 60    	and.w     w1, #0xc, w0
    6a58:	22 00 3a    	bra       NZ, 0x6a9e <.L35>
    6a5a:	01 04 78    	mov.w     w1, w8
    6a5c:	08 0f b2    	and.w     #0xf0, w8
    6a5e:	e0 ff 2f    	mov.w     #0xfffe, w0
    6a60:	08 00 3a    	bra       NZ, 0x6a72 <.L28>
    6a62:	63 80 60    	and.w     w1, #0x3, w0
    6a64:	0d 00 32    	bra       Z, 0x6a80 <.L40>
    6a66:	02 42 78    	mov.b     w2, w4
    6a68:	02 51 27    	mov.w     #0x7510, w2
    6a6a:	03 07 20    	mov.w     #0x70, w3
    6a6c:	06 00 be    	mov.d     w6, w0
    6a6e:	73 ff 07    	rcall     0x6956 <_EE_set_system_clock_pll>
    6a70:	08 00 78    	mov.w     w8, w0

00006a72 <.L28>:
    6a72:	4f 04 78    	mov.w     [--w15], w8
    6a74:	00 00 06    	return    

00006a76 <.L44>:
    6a76:	06 51 27    	mov.w     #0x7510, w6
    6a78:	07 07 20    	mov.w     #0x70, w7
    6a7a:	67 40 61    	and.b     w2, #0x7, w0
    6a7c:	e7 4f 50    	sub.b     w0, #0x7, [w15]
    6a7e:	e8 ff 36    	bra       LEU, 0x6a50 <.L46>

00006a80 <.L40>:
    6a80:	00 00 eb    	clr.w     w0

00006a82 <.L47>:
    6a82:	4f 04 78    	mov.w     [--w15], w8
    6a84:	00 00 06    	return    
    6a86:	f7 ff 37    	bra       0x6a76 <.L44>

00006a88 <.L43>:
    6a88:	00 68 a3    	btst.z    w0, #0x6
    6a8a:	d1 ff 32    	bra       Z, 0x6a2e <.L22>
    6a8c:	11 c0 b3    	mov.b     #0x1, w1
    6a8e:	42 47 e2    	cp0.b     0x742
    6a90:	ce ff 35    	bra       LT, 0x6a2e <.L22>

00006a92 <.eb>:
    6a92:	00 80 eb    	setm.w    w0
    6a94:	01 04 e0    	cp0.b     w1
    6a96:	cf ff 3a    	bra       NZ, 0x6a36 <.L20>
    6a98:	ec ff 37    	bra       0x6a72 <.L28>

00006a9a <.L45>:
    6a9a:	00 03 be    	mov.d     w0, w6
    6a9c:	d6 ff 37    	bra       0x6a4a <.L31>

00006a9e <.L35>:
    6a9e:	34 c0 b3    	mov.b     #0x3, w4
    6aa0:	02 90 20    	mov.w     #0x900, w2
    6aa2:	d3 03 20    	mov.w     #0x3d, w3
    6aa4:	06 00 be    	mov.d     w6, w0
    6aa6:	57 ff 07    	rcall     0x6956 <_EE_set_system_clock_pll>
    6aa8:	00 00 eb    	clr.w     w0
    6aaa:	eb ff 37    	bra       0x6a82 <.L47>

00006aac <_EE_get_system_clock_pll>:
    6aac:	00 03 be    	mov.d     w0, w6
    6aae:	30 3a 80    	mov.w     0x746, w0
    6ab0:	f0 1f b2    	and.w     #0x1ff, w0
    6ab2:	00 82 e8    	inc2.w    w0, w4
    6ab4:	43 74 20    	mov.w     #0x744, w3
    6ab6:	93 41 78    	mov.b     [w3], w3
    6ab8:	44 c7 bf    	mov.b     0x744, WREG
    6aba:	7f 00 60    	and.w     w0, #0x1f, w0
    6abc:	00 80 e8    	inc2.w    w0, w0
    6abe:	c5 19 de    	lsr.w     w3, #0x5, w3
    6ac0:	e6 81 61    	and.w     w3, #0x6, w3
    6ac2:	a2 18 2a    	mov.w     #0xa18a, w2
    6ac4:	63 01 79    	mov.w     [w3+w2], w2
    6ac6:	02 80 b9    	mul.ss    w0, w2, w0
    6ac8:	80 02 78    	mov.w     w0, w5
    6aca:	60 11 b8    	mul.uu    w2, #0x0, w2
    6acc:	00 00 e0    	cp0.w     w0
    6ace:	0a 00 32    	bra       Z, 0x6ae4 <.L53>
    6ad0:	61 20 b8    	mul.uu    w4, #0x1, w0
    6ad2:	06 01 b8    	mul.uu    w0, w6, w2
    6ad4:	07 80 b9    	mul.ss    w0, w7, w0
    6ad6:	80 81 41    	add.w     w3, w0, w3
    6ad8:	05 00 d1    	lsr.w     w5, w0
    6ada:	00 00 41    	add.w     w2, w0, w0
    6adc:	e0 80 49    	addc.w    w3, #0x0, w1
    6ade:	61 29 b8    	mul.uu    w5, #0x1, w2
    6ae0:	b9 cc 07    	rcall     0x454
    6ae2:	00 01 be    	mov.d     w0, w2

00006ae4 <.L53>:
    6ae4:	02 00 be    	mov.d     w2, w0
    6ae6:	00 00 06    	return    

00006ae8 <_EE_get_system_clock>:
    6ae8:	45 c7 bf    	mov.b     0x745, WREG
    6aea:	67 00 60    	and.w     w0, #0x7, w0
    6aec:	12 00 20    	mov.w     #0x1, w2
    6aee:	00 11 dd    	sl.w      w2, w0, w2
    6af0:	03 00 20    	mov.w     #0x0, w3
    6af2:	00 51 27    	mov.w     #0x7510, w0
    6af4:	01 07 20    	mov.w     #0x70, w1
    6af6:	ae cc 07    	rcall     0x454
    6af8:	00 02 be    	mov.d     w0, w4
    6afa:	43 c7 bf    	mov.b     0x743, WREG
    6afc:	44 00 de    	lsr.w     w0, #0x4, w0
    6afe:	67 01 60    	and.w     w0, #0x7, w2
    6b00:	e3 0f 51    	sub.w     w2, #0x3, [w15]
    6b02:	0e 00 32    	bra       Z, 0x6b20 <.L62>
    6b04:	06 00 34    	bra       LE, 0x6b12 <.L70>
    6b06:	e6 0f 51    	sub.w     w2, #0x6, [w15]
    6b08:	19 00 32    	bra       Z, 0x6b3c <.L64>
    6b0a:	0d 00 3d    	bra       GE, 0x6b26 <.L71>

00006b0c <.L63>:
    6b0c:	e0 ff 2f    	mov.w     #0xfffe, w0
    6b0e:	f1 ff 2f    	mov.w     #0xffff, w1
    6b10:	00 00 06    	return    

00006b12 <.L70>:
    6b12:	e1 0f 51    	sub.w     w2, #0x1, [w15]
    6b14:	11 00 32    	bra       Z, 0x6b38 <.L60>
    6b16:	00 90 20    	mov.w     #0x900, w0
    6b18:	d1 03 20    	mov.w     #0x3d, w1
    6b1a:	e1 0f 51    	sub.w     w2, #0x1, [w15]
    6b1c:	08 00 34    	bra       LE, 0x6b2e <.L72>
    6b1e:	00 00 06    	return    

00006b20 <.L62>:
    6b20:	00 90 20    	mov.w     #0x900, w0
    6b22:	d1 03 20    	mov.w     #0x3d, w1
    6b24:	c3 ff 37    	bra       0x6aac <_EE_get_system_clock_pll>

00006b26 <.L71>:
    6b26:	e7 0f 51    	sub.w     w2, #0x7, [w15]
    6b28:	f1 ff 32    	bra       Z, 0x6b0c <.L63>

00006b2a <.L58>:
    6b2a:	01 00 20    	mov.w     #0x0, w1
    6b2c:	00 00 05    	retlw.w   #0x0, w0

00006b2e <.L72>:
    6b2e:	00 51 27    	mov.w     #0x7510, w0
    6b30:	01 07 20    	mov.w     #0x70, w1
    6b32:	02 00 e0    	cp0.w     w2
    6b34:	fa ff 3a    	bra       NZ, 0x6b2a <.L58>
    6b36:	00 00 06    	return    

00006b38 <.L60>:
    6b38:	04 00 be    	mov.d     w4, w0
    6b3a:	b8 ff 37    	bra       0x6aac <_EE_get_system_clock_pll>

00006b3c <.L64>:
    6b3c:	04 00 be    	mov.d     w4, w0
    6b3e:	00 00 06    	return    

00006b40 <_EE_get_peripheral_clock>:
    6b40:	d3 ff 07    	rcall     0x6ae8 <_EE_get_system_clock>
    6b42:	00 01 be    	mov.d     w0, w2
    6b44:	e0 0f 50    	sub.w     w0, #0x0, [w15]
    6b46:	e0 8f 58    	subb.w    w1, #0x0, [w15]
    6b48:	07 00 35    	bra       LT, 0x6b58 <.L75>
    6b4a:	61 18 b9    	mul.su    w3, #0x1, w0
    6b4c:	4f 08 de    	lsr.w     w1, #0xf, w0
    6b4e:	01 00 20    	mov.w     #0x0, w1
    6b50:	00 00 41    	add.w     w2, w0, w0
    6b52:	81 80 49    	addc.w    w3, w1, w1
    6b54:	81 81 d1    	asr.w     w1, w3
    6b56:	00 81 d3    	rrc.w     w0, w2

00006b58 <.L75>:
    6b58:	02 00 be    	mov.d     w2, w0
    6b5a:	00 00 06    	return    

00006b5c <_EE_get_cpu_mips>:
    6b5c:	c5 ff 07    	rcall     0x6ae8 <_EE_get_system_clock>
    6b5e:	00 03 be    	mov.d     w0, w6
    6b60:	e0 0f 50    	sub.w     w0, #0x0, [w15]
    6b62:	e0 8f 58    	subb.w    w1, #0x0, [w15]
    6b64:	0c 00 35    	bra       LT, 0x6b7e <.L81>
    6b66:	45 c7 bf    	mov.b     0x745, WREG
    6b68:	21 00 20    	mov.w     #0x2, w1
    6b6a:	00 38 a3    	btst.z    w0, #0x3
    6b6c:	0a 00 3a    	bra       NZ, 0x6b82 <.L88>
    6b6e:	61 08 b8    	mul.uu    w1, #0x1, w0
    6b70:	04 24 24    	mov.w     #0x4240, w4
    6b72:	04 01 b8    	mul.uu    w0, w4, w2
    6b74:	6f 00 b9    	mul.su    w0, #0xf, w0
    6b76:	80 81 41    	add.w     w3, w0, w3
    6b78:	06 00 be    	mov.d     w6, w0
    6b7a:	6c cc 07    	rcall     0x454
    6b7c:	00 03 be    	mov.d     w0, w6

00006b7e <.L81>:
    6b7e:	06 00 be    	mov.d     w6, w0
    6b80:	00 00 06    	return    

00006b82 <.L88>:
    6b82:	45 c7 bf    	mov.b     0x745, WREG
    6b84:	44 00 de    	lsr.w     w0, #0x4, w0
    6b86:	67 00 60    	and.w     w0, #0x7, w0
    6b88:	80 08 dd    	sl.w      w1, w0, w1
    6b8a:	61 08 b8    	mul.uu    w1, #0x1, w0
    6b8c:	04 24 24    	mov.w     #0x4240, w4
    6b8e:	04 01 b8    	mul.uu    w0, w4, w2
    6b90:	6f 00 b9    	mul.su    w0, #0xf, w0
    6b92:	80 81 41    	add.w     w3, w0, w3
    6b94:	06 00 be    	mov.d     w6, w0
    6b96:	5e cc 07    	rcall     0x454
    6b98:	00 03 be    	mov.d     w0, w6
    6b9a:	f1 ff 37    	bra       0x6b7e <.L81>

00006b9c <_uwl_MLME_ASSOCIATE_request>:
    6b9c:	00 00 fa    	lnk       #0x0
    6b9e:	88 9f be    	mov.d     w8, [w15++]
    6ba0:	80 43 78    	mov.b     w0, w7
    6ba2:	84 00 78    	mov.w     w4, w1
    6ba4:	86 44 78    	mov.b     w6, w9
    6ba6:	05 00 78    	mov.w     w5, w0
    6ba8:	48 ef b7    	mov.b     WREG, 0xf48
    6baa:	00 82 eb    	setm.w    w4
    6bac:	28 0e ab    	btst.b    0xe28, #0x0
    6bae:	0c 00 32    	bra       Z, 0x6bc8 <.L4>
    6bb0:	e2 4f 51    	sub.b     w2, #0x2, [w15]
    6bb2:	0e 00 32    	bra       Z, 0x6bd0 <.L18>
    6bb4:	e3 4f 51    	sub.b     w2, #0x3, [w15]
    6bb6:	2c 00 32    	bra       Z, 0x6c10 <.L16>
    6bb8:	80 42 eb    	clr.b     w5
    6bba:	00 02 eb    	clr.w     w4
    6bbc:	84 41 78    	mov.b     w4, w3
    6bbe:	05 41 78    	mov.b     w5, w2
    6bc0:	81 0e 20    	mov.w     #0xe8, w1
    6bc2:	00 80 eb    	setm.w    w0
    6bc4:	45 f7 07    	rcall     0x5a50 <_uwl_MLME_ASSOCIATE_confirm>
    6bc6:	14 00 20    	mov.w     #0x1, w4

00006bc8 <.L4>:
    6bc8:	04 00 78    	mov.w     w4, w0
    6bca:	4f 04 be    	mov.d     [--w15], w8
    6bcc:	00 80 fa    	ulnk      
    6bce:	00 00 06    	return    

00006bd0 <.L18>:
    6bd0:	11 40 78    	mov.b     [w1], w0
    6bd2:	a2 e8 b7    	mov.b     WREG, 0x8a2
    6bd4:	11 40 90    	mov.b     [w1+1], w0
    6bd6:	a3 e8 b7    	mov.b     WREG, 0x8a3
    6bd8:	83 45 88    	mov.w     w3, 0x8b0
    6bda:	07 40 78    	mov.b     w7, w0
    6bdc:	92 02 07    	rcall     0x7102 <_uwl_radio_phy_set_channel>
    6bde:	44 00 20    	mov.w     #0x4, w4
    6be0:	00 04 e0    	cp0.b     w0
    6be2:	f2 ff 35    	bra       LT, 0x6bc8 <.L4>

00006be4 <.L17>:
    6be4:	64 ff 2f    	mov.w     #0xfff6, w4
    6be6:	09 04 e0    	cp0.b     w9
    6be8:	ef ff 3a    	bra       NZ, 0x6bc8 <.L4>
    6bea:	18 00 20    	mov.w     #0x1, w8
    6bec:	58 7a 88    	mov.w     w8, 0xf4a
    6bee:	28 ae a8    	bset.b    0xe28, #0x5
    6bf0:	c4 dd 07    	rcall     0x277a <_uwl_mac_superframe_stop>
    6bf2:	60 00 b8    	mul.uu    w0, #0x0, w0
    6bf4:	50 e2 07    	rcall     0x3096 <_uwl_mac_superframe_start>
    6bf6:	89 42 78    	mov.b     w9, w5
    6bf8:	00 02 eb    	clr.w     w4
    6bfa:	89 41 78    	mov.b     w9, w3
    6bfc:	09 41 78    	mov.b     w9, w2
    6bfe:	84 00 78    	mov.w     w4, w1
    6c00:	04 00 78    	mov.w     w4, w0
    6c02:	26 f7 07    	rcall     0x5a50 <_uwl_MLME_ASSOCIATE_confirm>
    6c04:	b6 28 ef    	clr.w     0x8b6
    6c06:	08 00 78    	mov.w     w8, w0
    6c08:	4f 04 be    	mov.d     [--w15], w8
    6c0a:	00 80 fa    	ulnk      
    6c0c:	00 00 06    	return    
    6c0e:	e0 ff 37    	bra       0x6bd0 <.L18>

00006c10 <.L16>:
    6c10:	a0 89 20    	mov.w     #0x89a, w0
    6c12:	07 00 09    	repeat    #0x7
    6c14:	31 58 78    	mov.b     [w1++], [w0++]
    6c16:	81 00 b1    	sub.w     #0x8, w1
    6c18:	83 45 88    	mov.w     w3, 0x8b0
    6c1a:	07 40 78    	mov.b     w7, w0
    6c1c:	72 02 07    	rcall     0x7102 <_uwl_radio_phy_set_channel>
    6c1e:	44 00 20    	mov.w     #0x4, w4
    6c20:	00 04 e0    	cp0.b     w0
    6c22:	d2 ff 35    	bra       LT, 0x6bc8 <.L4>
    6c24:	df ff 37    	bra       0x6be4 <.L17>

00006c26 <_uwl_MLME_SET_request>:
    6c26:	00 02 78    	mov.w     w0, w4
    6c28:	80 81 eb    	setm.w    w3
    6c2a:	28 0e ab    	btst.b    0xe28, #0x0
    6c2c:	02 00 3a    	bra       NZ, 0x6c32 <.L28>

00006c2e <.L23>:
    6c2e:	03 00 78    	mov.w     w3, w0
    6c30:	00 00 06    	return    

00006c32 <.L28>:
    6c32:	63 ff 2f    	mov.w     #0xfff6, w3
    6c34:	30 05 20    	mov.w     #0x53, w0
    6c36:	80 0f 52    	sub.w     w4, w0, [w15]
    6c38:	fa ff 3a    	bra       NZ, 0x6c2e <.L23>
    6c3a:	12 01 78    	mov.w     [w2], w2
    6c3c:	b2 45 88    	mov.w     w2, 0x8b6
    6c3e:	01 01 78    	mov.w     w1, w2
    6c40:	84 00 78    	mov.w     w4, w1
    6c42:	00 00 eb    	clr.w     w0
    6c44:	25 f7 07    	rcall     0x5a90 <_uwl_MLME_SET_confirm>
    6c46:	10 00 20    	mov.w     #0x1, w0
    6c48:	00 00 06    	return    
    6c4a:	f3 ff 37    	bra       0x6c32 <.L28>

00006c4c <_uwl_MLME_START_request>:
    6c4c:	00 00 fa    	lnk       #0x0
    6c4e:	88 9f be    	mov.d     w8, [w15++]
    6c50:	8a 9f be    	mov.d     w10, [w15++]
    6c52:	00 05 78    	mov.w     w0, w10
    6c54:	81 45 78    	mov.b     w1, w11
    6c56:	04 04 be    	mov.d     w4, w8
    6c58:	83 40 78    	mov.b     w3, w1
    6c5a:	06 41 78    	mov.b     w6, w2
    6c5c:	8f f1 97    	mov.b     [w15-16], w3
    6c5e:	00 80 eb    	setm.w    w0
    6c60:	28 0e ab    	btst.b    0xe28, #0x0
    6c62:	0b 00 32    	bra       Z, 0x6c7a <.L34>
    6c64:	ef cf 50    	sub.b     w1, #0xf, [w15]
    6c66:	0d 00 3e    	bra       GTU, 0x6c82 <.L35>
    6c68:	02 00 32    	bra       Z, 0x6c6e <.L37>
    6c6a:	86 cf 50    	sub.b     w1, w6, [w15]
    6c6c:	0a 00 39    	bra       NC, 0x6c82 <.L35>

00006c6e <.L37>:
    6c6e:	b0 45 80    	mov.w     0x8b6, w0
    6c70:	e1 0f 40    	add.w     w0, #0x1, [w15]
    6c72:	0f 00 3a    	bra       NZ, 0x6c92 <.L39>
    6c74:	c0 0e 20    	mov.w     #0xec, w0
    6c76:	0e f7 07    	rcall     0x5a94 <_uwl_MLME_START_confirm>
    6c78:	10 00 20    	mov.w     #0x1, w0

00006c7a <.L34>:
    6c7a:	4f 05 be    	mov.d     [--w15], w10
    6c7c:	4f 04 be    	mov.d     [--w15], w8
    6c7e:	00 80 fa    	ulnk      
    6c80:	00 00 06    	return    

00006c82 <.L35>:
    6c82:	80 0e 20    	mov.w     #0xe8, w0
    6c84:	07 f7 07    	rcall     0x5a94 <_uwl_MLME_START_confirm>
    6c86:	10 00 20    	mov.w     #0x1, w0
    6c88:	4f 05 be    	mov.d     [--w15], w10
    6c8a:	4f 04 be    	mov.d     [--w15], w8
    6c8c:	00 80 fa    	ulnk      
    6c8e:	00 00 06    	return    
    6c90:	f8 ff 37    	bra       0x6c82 <.L35>

00006c92 <.L39>:
    6c92:	e1 cf 53    	sub.b     w7, #0x1, [w15]
    6c94:	2f 00 32    	bra       Z, 0x6cf4 <.L58>
    6c96:	6f e8 97    	mov.b     [w15-18], w0
    6c98:	e1 4f 50    	sub.b     w0, #0x1, [w15]
    6c9a:	26 00 32    	bra       Z, 0x6ce8 <.L43>

00006c9c <.L60>:
    6c9c:	ef cf 50    	sub.b     w1, #0xf, [w15]
    6c9e:	36 00 3a    	bra       NZ, 0x6d0c <.L45>
    6ca0:	01 00 78    	mov.w     w1, w0
    6ca2:	b8 e8 b7    	mov.b     WREG, 0x8b8
    6ca4:	28 8e a9    	bclr.b    0xe28, #0x4

00006ca6 <.L56>:
    6ca6:	8a 45 88    	mov.w     w10, 0x8b0
    6ca8:	61 80 61    	and.w     w3, #0x1, w0
    6caa:	4b 00 dd    	sl.w      w0, #0xb, w0
    6cac:	61 44 80    	mov.w     0x88c, w1
    6cae:	01 b0 a1    	bclr.w    w1, #0xb
    6cb0:	80 80 70    	ior.w     w1, w0, w1
    6cb2:	61 44 88    	mov.w     w1, 0x88c
    6cb4:	0b 40 78    	mov.b     w11, w0
    6cb6:	25 02 07    	rcall     0x7102 <_uwl_radio_phy_set_channel>
    6cb8:	00 04 e0    	cp0.b     w0
    6cba:	22 00 35    	bra       LT, 0x6d00 <.L47>
    6cbc:	4f e8 97    	mov.b     [w15-20], w0
    6cbe:	00 04 e0    	cp0.b     w0
    6cc0:	13 00 3a    	bra       NZ, 0x6ce8 <.L43>
    6cc2:	4f e0 97    	mov.b     [w15-28], w0
    6cc4:	00 04 e0    	cp0.b     w0
    6cc6:	10 00 3a    	bra       NZ, 0x6ce8 <.L43>
    6cc8:	28 2e ab    	btst.b    0xe28, #0x1
    6cca:	0b 00 32    	bra       Z, 0x6ce2 <.L59>

00006ccc <.L53>:
    6ccc:	56 dd 07    	rcall     0x277a <_uwl_mac_superframe_stop>
    6cce:	60 00 b8    	mul.uu    w0, #0x0, w0
    6cd0:	e2 e1 07    	rcall     0x3096 <_uwl_mac_superframe_start>
    6cd2:	00 00 eb    	clr.w     w0
    6cd4:	df f6 07    	rcall     0x5a94 <_uwl_MLME_START_confirm>
    6cd6:	10 00 20    	mov.w     #0x1, w0
    6cd8:	4f 05 be    	mov.d     [--w15], w10
    6cda:	4f 04 be    	mov.d     [--w15], w8
    6cdc:	00 80 fa    	ulnk      
    6cde:	00 00 06    	return    
    6ce0:	d0 ff 37    	bra       0x6c82 <.L35>

00006ce2 <.L59>:
    6ce2:	e0 0f 54    	sub.w     w8, #0x0, [w15]
    6ce4:	e0 8f 5c    	subb.w    w9, #0x0, [w15]
    6ce6:	f2 ff 32    	bra       Z, 0x6ccc <.L53>

00006ce8 <.L43>:
    6ce8:	60 ff 2f    	mov.w     #0xfff6, w0
    6cea:	4f 05 be    	mov.d     [--w15], w10
    6cec:	4f 04 be    	mov.d     [--w15], w8
    6cee:	00 80 fa    	ulnk      
    6cf0:	00 00 06    	return    
    6cf2:	c7 ff 37    	bra       0x6c82 <.L35>

00006cf4 <.L58>:
    6cf4:	28 2e a8    	bset.b    0xe28, #0x1
    6cf6:	28 4e a8    	bset.b    0xe28, #0x2
    6cf8:	6f e8 97    	mov.b     [w15-18], w0
    6cfa:	e1 4f 50    	sub.b     w0, #0x1, [w15]
    6cfc:	cf ff 3a    	bra       NZ, 0x6c9c <.L60>
    6cfe:	f4 ff 37    	bra       0x6ce8 <.L43>

00006d00 <.L47>:
    6d00:	40 00 20    	mov.w     #0x4, w0
    6d02:	4f 05 be    	mov.d     [--w15], w10
    6d04:	4f 04 be    	mov.d     [--w15], w8
    6d06:	00 80 fa    	ulnk      
    6d08:	00 00 06    	return    
    6d0a:	bb ff 37    	bra       0x6c82 <.L35>

00006d0c <.L45>:
    6d0c:	e0 ff 2f    	mov.w     #0xfffe, w0
    6d0e:	29 8e ab    	btst.b    0xe29, #0x4
    6d10:	b4 ff 32    	bra       Z, 0x6c7a <.L34>
    6d12:	28 8e a8    	bset.b    0xe28, #0x4
    6d14:	01 00 78    	mov.w     w1, w0
    6d16:	93 e8 b7    	mov.b     WREG, 0x893
    6d18:	02 00 78    	mov.w     w2, w0
    6d1a:	b8 e8 b7    	mov.b     WREG, 0x8b8
    6d1c:	c4 ff 37    	bra       0x6ca6 <.L56>

00006d1e <_uwl_MLME_ASSOCIATE_response>:
    6d1e:	09 e7 07    	rcall     0x3b32 <_uwl_mac_association_response_cmd>
    6d20:	10 00 05    	retlw.w   #0x1, w0

00006d22 <_uwl_MLME_GET_request>:
    6d22:	00 02 78    	mov.w     w0, w4
    6d24:	00 80 eb    	setm.w    w0
    6d26:	28 0e ab    	btst.b    0xe28, #0x0
    6d28:	0d 00 32    	bra       Z, 0x6d44 <.L70>
    6d2a:	00 05 20    	mov.w     #0x50, w0
    6d2c:	80 0f 52    	sub.w     w4, w0, [w15]
    6d2e:	0b 00 32    	bra       Z, 0x6d46 <.L72>
    6d30:	80 01 eb    	clr.w     w3
    6d32:	45 0f 20    	mov.w     #0xf4, w5
    6d34:	63 00 40    	add.w     w0, #0x3, w0
    6d36:	80 0f 52    	sub.w     w4, w0, [w15]
    6d38:	0e 00 32    	bra       Z, 0x6d56 <.L78>
    6d3a:	01 01 78    	mov.w     w1, w2
    6d3c:	84 00 78    	mov.w     w4, w1
    6d3e:	05 00 78    	mov.w     w5, w0
    6d40:	9c f6 07    	rcall     0x5a7a <_uwl_MLME_GET_confirm>
    6d42:	10 00 20    	mov.w     #0x1, w0

00006d44 <.L70>:
    6d44:	00 00 06    	return    

00006d46 <.L72>:
    6d46:	03 8b 20    	mov.w     #0x8b0, w3
    6d48:	80 02 eb    	clr.w     w5
    6d4a:	01 01 78    	mov.w     w1, w2
    6d4c:	84 00 78    	mov.w     w4, w1
    6d4e:	05 00 78    	mov.w     w5, w0
    6d50:	94 f6 07    	rcall     0x5a7a <_uwl_MLME_GET_confirm>
    6d52:	10 00 20    	mov.w     #0x1, w0
    6d54:	f7 ff 37    	bra       0x6d44 <.L70>

00006d56 <.L78>:
    6d56:	63 8b 20    	mov.w     #0x8b6, w3
    6d58:	80 02 eb    	clr.w     w5
    6d5a:	01 01 78    	mov.w     w1, w2
    6d5c:	84 00 78    	mov.w     w4, w1
    6d5e:	05 00 78    	mov.w     w5, w0
    6d60:	8c f6 07    	rcall     0x5a7a <_uwl_MLME_GET_confirm>
    6d62:	10 00 20    	mov.w     #0x1, w0
    6d64:	ef ff 37    	bra       0x6d44 <.L70>

00006d66 <_uwl_timer_init>:
    6d66:	88 9f be    	mov.d     w8, [w15++]
    6d68:	8a 9f be    	mov.d     w10, [w15++]
    6d6a:	00 05 be    	mov.d     w0, w10
    6d6c:	02 04 be    	mov.d     w2, w8
    6d6e:	97 80 a9    	bclr.b    0x97, #0x4
    6d70:	20 21 ef    	clr.w     0x120
    6d72:	70 3e 20    	mov.w     #0x3e7, w0
    6d74:	80 0f 51    	sub.w     w2, w0, [w15]
    6d76:	e0 8f 59    	subb.w    w3, #0x0, [w15]
    6d78:	28 00 36    	bra       LEU, 0x6dca <.L2>
    6d7a:	82 3e 20    	mov.w     #0x3e8, w2
    6d7c:	03 00 20    	mov.w     #0x0, w3
    6d7e:	08 00 be    	mov.d     w8, w0
    6d80:	69 cb 07    	rcall     0x454
    6d82:	00 04 be    	mov.d     w0, w8
    6d84:	08 52 b8    	mul.uu    w10, w8, w4
    6d86:	0b c0 b9    	mul.ss    w8, w11, w0
    6d88:	05 00 40    	add.w     w0, w5, w0
    6d8a:	09 d1 b9    	mul.ss    w10, w9, w2
    6d8c:	82 02 40    	add.w     w0, w2, w5
    6d8e:	e1 0f 42    	add.w     w4, #0x1, [w15]
    6d90:	e0 8f 5a    	subb.w    w5, #0x0, [w15]
    6d92:	3c 00 36    	bra       LEU, 0x6e0c <.L25>

00006d94 <.L13>:
    6d94:	f0 ff 2f    	mov.w     #0xffff, w0
    6d96:	71 00 20    	mov.w     #0x7, w1
    6d98:	80 0f 52    	sub.w     w4, w0, [w15]
    6d9a:	81 8f 5a    	subb.w    w5, w1, [w15]
    6d9c:	4f 00 3e    	bra       GTU, 0x6e3c <.L16>
    6d9e:	4d 29 dd    	sl.w      w5, #0xd, w2
    6da0:	43 20 de    	lsr.w     w4, #0x3, w0
    6da2:	00 00 71    	ior.w     w2, w0, w0
    6da4:	c3 28 de    	lsr.w     w5, #0x3, w1
    6da6:	e0 08 88    	mov.w     w0, 0x11c
    6da8:	20 c1 bf    	mov.b     0x120, WREG
    6daa:	f1 cc b3    	mov.b     #0xcf, w1
    6dac:	01 40 60    	and.b     w0, w1, w0
    6dae:	00 44 a0    	bset.b    w0, #0x4
    6db0:	20 e1 b7    	mov.b     WREG, 0x120
    6db2:	b2 c0 bf    	mov.b     0xb2, WREG
    6db4:	81 cf b3    	mov.b     #0xf8, w1
    6db6:	01 40 60    	and.b     w0, w1, w0
    6db8:	50 40 b3    	ior.b     #0x5, w0
    6dba:	b2 e0 b7    	mov.b     WREG, 0xb2
    6dbc:	87 80 a9    	bclr.b    0x87, #0x4
    6dbe:	18 21 ef    	clr.w     0x118
    6dc0:	12 00 20    	mov.w     #0x1, w2

00006dc2 <.L22>:
    6dc2:	02 00 78    	mov.w     w2, w0
    6dc4:	4f 05 be    	mov.d     [--w15], w10
    6dc6:	4f 04 be    	mov.d     [--w15], w8
    6dc8:	00 00 06    	return    

00006dca <.L2>:
    6dca:	72 3e 20    	mov.w     #0x3e7, w2
    6dcc:	82 0f 55    	sub.w     w10, w2, [w15]
    6dce:	e0 8f 5d    	subb.w    w11, #0x0, [w15]
    6dd0:	27 00 3e    	bra       GTU, 0x6e20 <.L26>
    6dd2:	30 06 20    	mov.w     #0x63, w0
    6dd4:	80 0f 54    	sub.w     w8, w0, [w15]
    6dd6:	e0 8f 5c    	subb.w    w9, #0x0, [w15]
    6dd8:	5b 00 36    	bra       LEU, 0x6e90 <.L7>
    6dda:	e9 0f 55    	sub.w     w10, #0x9, [w15]
    6ddc:	e0 8f 5d    	subb.w    w11, #0x0, [w15]
    6dde:	45 00 3e    	bra       GTU, 0x6e6a <.L27>

00006de0 <.L9>:
    6de0:	32 06 20    	mov.w     #0x63, w2
    6de2:	82 0f 55    	sub.w     w10, w2, [w15]
    6de4:	e0 8f 5d    	subb.w    w11, #0x0, [w15]
    6de6:	57 00 36    	bra       LEU, 0x6e96 <.L11>
    6de8:	a2 00 20    	mov.w     #0xa, w2
    6dea:	03 00 20    	mov.w     #0x0, w3
    6dec:	08 00 be    	mov.d     w8, w0
    6dee:	32 cb 07    	rcall     0x454
    6df0:	00 04 be    	mov.d     w0, w8
    6df2:	42 06 20    	mov.w     #0x64, w2
    6df4:	03 00 20    	mov.w     #0x0, w3
    6df6:	0a 00 be    	mov.d     w10, w0
    6df8:	2d cb 07    	rcall     0x454
    6dfa:	00 05 be    	mov.d     w0, w10
    6dfc:	08 52 b8    	mul.uu    w10, w8, w4
    6dfe:	0b c0 b9    	mul.ss    w8, w11, w0
    6e00:	05 00 40    	add.w     w0, w5, w0
    6e02:	09 d1 b9    	mul.ss    w10, w9, w2
    6e04:	82 02 40    	add.w     w0, w2, w5
    6e06:	e1 0f 42    	add.w     w4, #0x1, [w15]
    6e08:	e0 8f 5a    	subb.w    w5, #0x0, [w15]
    6e0a:	c4 ff 3e    	bra       GTU, 0x6d94 <.L13>

00006e0c <.L25>:
    6e0c:	e4 08 88    	mov.w     w4, 0x11c
    6e0e:	b2 c0 bf    	mov.b     0xb2, WREG
    6e10:	81 cf b3    	mov.b     #0xf8, w1
    6e12:	01 40 60    	and.b     w0, w1, w0
    6e14:	50 40 b3    	ior.b     #0x5, w0
    6e16:	b2 e0 b7    	mov.b     WREG, 0xb2
    6e18:	87 80 a9    	bclr.b    0x87, #0x4
    6e1a:	18 21 ef    	clr.w     0x118
    6e1c:	12 00 20    	mov.w     #0x1, w2
    6e1e:	d1 ff 37    	bra       0x6dc2 <.L22>

00006e20 <.L26>:
    6e20:	82 3e 20    	mov.w     #0x3e8, w2
    6e22:	03 00 20    	mov.w     #0x0, w3
    6e24:	0a 00 be    	mov.d     w10, w0
    6e26:	16 cb 07    	rcall     0x454
    6e28:	00 05 be    	mov.d     w0, w10
    6e2a:	08 52 b8    	mul.uu    w10, w8, w4
    6e2c:	0b c0 b9    	mul.ss    w8, w11, w0
    6e2e:	05 00 40    	add.w     w0, w5, w0
    6e30:	09 d1 b9    	mul.ss    w10, w9, w2
    6e32:	82 02 40    	add.w     w0, w2, w5
    6e34:	e1 0f 42    	add.w     w4, #0x1, [w15]
    6e36:	e0 8f 5a    	subb.w    w5, #0x0, [w15]
    6e38:	ad ff 3e    	bra       GTU, 0x6d94 <.L13>
    6e3a:	e8 ff 37    	bra       0x6e0c <.L25>

00006e3c <.L16>:
    6e3c:	f0 ff 2f    	mov.w     #0xffff, w0
    6e3e:	f1 03 20    	mov.w     #0x3f, w1
    6e40:	80 0f 52    	sub.w     w4, w0, [w15]
    6e42:	81 8f 5a    	subb.w    w5, w1, [w15]
    6e44:	2d 00 3e    	bra       GTU, 0x6ea0 <.L18>
    6e46:	4a 29 dd    	sl.w      w5, #0xa, w2
    6e48:	46 20 de    	lsr.w     w4, #0x6, w0
    6e4a:	00 00 71    	ior.w     w2, w0, w0
    6e4c:	c6 28 de    	lsr.w     w5, #0x6, w1
    6e4e:	e0 08 88    	mov.w     w0, 0x11c
    6e50:	20 c1 bf    	mov.b     0x120, WREG
    6e52:	00 44 a1    	bclr.b    w0, #0x4
    6e54:	00 54 a0    	bset.b    w0, #0x5
    6e56:	20 e1 b7    	mov.b     WREG, 0x120
    6e58:	b2 c0 bf    	mov.b     0xb2, WREG
    6e5a:	81 cf b3    	mov.b     #0xf8, w1
    6e5c:	01 40 60    	and.b     w0, w1, w0
    6e5e:	50 40 b3    	ior.b     #0x5, w0
    6e60:	b2 e0 b7    	mov.b     WREG, 0xb2
    6e62:	87 80 a9    	bclr.b    0x87, #0x4
    6e64:	18 21 ef    	clr.w     0x118
    6e66:	12 00 20    	mov.w     #0x1, w2
    6e68:	ac ff 37    	bra       0x6dc2 <.L22>

00006e6a <.L27>:
    6e6a:	42 06 20    	mov.w     #0x64, w2
    6e6c:	03 00 20    	mov.w     #0x0, w3
    6e6e:	08 00 be    	mov.d     w8, w0
    6e70:	f1 ca 07    	rcall     0x454
    6e72:	00 04 be    	mov.d     w0, w8
    6e74:	a2 00 20    	mov.w     #0xa, w2
    6e76:	03 00 20    	mov.w     #0x0, w3
    6e78:	0a 00 be    	mov.d     w10, w0
    6e7a:	ec ca 07    	rcall     0x454
    6e7c:	00 05 be    	mov.d     w0, w10
    6e7e:	08 52 b8    	mul.uu    w10, w8, w4
    6e80:	0b c0 b9    	mul.ss    w8, w11, w0
    6e82:	05 00 40    	add.w     w0, w5, w0
    6e84:	09 d1 b9    	mul.ss    w10, w9, w2
    6e86:	82 02 40    	add.w     w0, w2, w5
    6e88:	e1 0f 42    	add.w     w4, #0x1, [w15]
    6e8a:	e0 8f 5a    	subb.w    w5, #0x0, [w15]
    6e8c:	83 ff 3e    	bra       GTU, 0x6d94 <.L13>
    6e8e:	be ff 37    	bra       0x6e0c <.L25>

00006e90 <.L7>:
    6e90:	e9 0f 54    	sub.w     w8, #0x9, [w15]
    6e92:	e0 8f 5c    	subb.w    w9, #0x0, [w15]
    6e94:	a5 ff 3e    	bra       GTU, 0x6de0 <.L9>

00006e96 <.L11>:
    6e96:	f0 ff 2f    	mov.w     #0xffff, w0
    6e98:	4f 05 be    	mov.d     [--w15], w10
    6e9a:	4f 04 be    	mov.d     [--w15], w8
    6e9c:	00 00 06    	return    
    6e9e:	95 ff 37    	bra       0x6dca <.L2>

00006ea0 <.L18>:
    6ea0:	e2 ff 2f    	mov.w     #0xfffe, w2
    6ea2:	f0 ff 2f    	mov.w     #0xffff, w0
    6ea4:	f1 0f 20    	mov.w     #0xff, w1
    6ea6:	80 0f 52    	sub.w     w4, w0, [w15]
    6ea8:	81 8f 5a    	subb.w    w5, w1, [w15]
    6eaa:	8b ff 3e    	bra       GTU, 0x6dc2 <.L22>
    6eac:	48 29 dd    	sl.w      w5, #0x8, w2
    6eae:	48 20 de    	lsr.w     w4, #0x8, w0
    6eb0:	00 00 71    	ior.w     w2, w0, w0
    6eb2:	c8 28 de    	lsr.w     w5, #0x8, w1
    6eb4:	e0 08 88    	mov.w     w0, 0x11c
    6eb6:	00 c3 b3    	mov.b     #0x30, w0
    6eb8:	20 61 b7    	ior.b     0x120
    6eba:	b2 c0 bf    	mov.b     0xb2, WREG
    6ebc:	81 cf b3    	mov.b     #0xf8, w1
    6ebe:	01 40 60    	and.b     w0, w1, w0
    6ec0:	50 40 b3    	ior.b     #0x5, w0
    6ec2:	b2 e0 b7    	mov.b     WREG, 0xb2
    6ec4:	87 80 a9    	bclr.b    0x87, #0x4
    6ec6:	18 21 ef    	clr.w     0x118
    6ec8:	12 00 20    	mov.w     #0x1, w2
    6eca:	7b ff 37    	bra       0x6dc2 <.L22>

00006ecc <_uwl_timer_set_isr_callback>:
    6ecc:	a0 7a 88    	mov.w     w0, 0xf54
    6ece:	00 00 06    	return    

00006ed0 <_ISR2__T5Interrupt>:
    6ed0:	87 80 a9    	bclr.b    0x87, #0x4
    6ed2:	54 0f e2    	cp0.w     0xf54
    6ed4:	02 00 32    	bra       Z, 0x6eda <.L37>
    6ed6:	a0 7a 80    	mov.w     0xf54, w0
    6ed8:	00 00 01    	call      w0

00006eda <.L37>:
    6eda:	00 00 06    	return    

00006edc <__T5Interrupt>:
    6edc:	36 00 f8    	push      0x36
    6ede:	80 9f be    	mov.d     w0, [w15++]
    6ee0:	82 9f be    	mov.d     w2, [w15++]
    6ee2:	84 9f be    	mov.d     w4, [w15++]
    6ee4:	86 9f be    	mov.d     w6, [w15++]
    6ee6:	34 00 f8    	push      0x34
    6ee8:	00 00 20    	mov.w     #0x0, w0
    6eea:	a0 01 88    	mov.w     w0, 0x34

00006eec <.bb>:
    6eec:	10 02 80    	mov.w     0x42, w0
    6eee:	42 c0 bf    	mov.b     0x42, WREG
    6ef0:	7f 40 60    	and.b     w0, #0x1f, w0
    6ef2:	01 cc b3    	mov.b     #0xc0, w1
    6ef4:	01 40 70    	ior.b     w0, w1, w0
    6ef6:	42 e0 b7    	mov.b     WREG, 0x42

00006ef8 <.eb>:
    6ef8:	10 00 20    	mov.w     #0x1, w0
    6efa:	d0 79 88    	mov.w     w0, 0xf3a

00006efc <.eb>:
    6efc:	e9 ff 07    	rcall     0x6ed0 <_ISR2__T5Interrupt>
    6efe:	3a 2f ef    	clr.w     0xf3a

00006f00 <.bb>:
    6f00:	c7 03 07    	rcall     0x7690 <_EE_IRQ_end_instance>
    6f02:	c0 79 80    	mov.w     0xf38, w0
    6f04:	00 00 e0    	cp0.w     w0
    6f06:	03 00 35    	bra       LT, 0x6f0e <.L43>

00006f08 <.L44>:
    6f08:	d5 03 07    	rcall     0x76b4 <_EE_std_run_task_code>
    6f0a:	00 00 e0    	cp0.w     w0
    6f0c:	fd ff 3d    	bra       GE, 0x6f08 <.L44>

00006f0e <.L43>:
    6f0e:	34 00 f9    	pop       0x34
    6f10:	4f 03 be    	mov.d     [--w15], w6
    6f12:	4f 02 be    	mov.d     [--w15], w4
    6f14:	4f 01 be    	mov.d     [--w15], w2
    6f16:	4f 00 be    	mov.d     [--w15], w0
    6f18:	36 00 f9    	pop       0x36
    6f1a:	00 40 06    	retfie    

00006f1c <_EE_alarm_insert>:
    6f1c:	88 9f be    	mov.d     w8, [w15++]
    6f1e:	8a 9f be    	mov.d     w10, [w15++]
    6f20:	80 05 78    	mov.w     w0, w11
    6f22:	02 04 be    	mov.d     w2, w8
    6f24:	c3 00 dd    	sl.w      w0, #0x3, w1
    6f26:	a0 0d 2a    	mov.w     #0xa0da, w0
    6f28:	61 00 78    	mov.w     [w1+w0], w0
    6f2a:	66 00 b9    	mul.su    w0, #0x6, w0
    6f2c:	e4 00 40    	add.w     w0, #0x4, w1
    6f2e:	a7 e7 20    	mov.w     #0xe7a, w7
    6f30:	61 83 7b    	mov.w     [w1+w7], w6
    6f32:	e1 0f 43    	add.w     w6, #0x1, [w15]
    6f34:	3b 00 32    	bra       Z, 0x6fac <.L14>
    6f36:	6a 32 b9    	mul.su    w6, #0xa, w4
    6f38:	64 00 42    	add.w     w4, #0x4, w0
    6f3a:	ea d9 20    	mov.w     #0xd9e, w10
    6f3c:	0a 00 40    	add.w     w0, w10, w0
    6f3e:	10 01 be    	mov.d     [w0], w2
    6f40:	88 0f 51    	sub.w     w2, w8, [w15]
    6f42:	89 8f 59    	subb.w    w3, w9, [w15]
    6f44:	26 00 3c    	bra       GT, 0x6f92 <.L15>
    6f46:	64 00 42    	add.w     w4, #0x4, w0
    6f48:	0a 00 40    	add.w     w0, w10, w0
    6f4a:	30 01 54    	sub.w     w8, [w0++], w2
    6f4c:	a0 81 5c    	subb.w    w9, [w0--], w3
    6f4e:	02 04 be    	mov.d     w2, w8
    6f50:	e8 00 42    	add.w     w4, #0x8, w1
    6f52:	61 01 7d    	mov.w     [w1+w10], w2
    6f54:	e1 0f 41    	add.w     w2, #0x1, [w15]
    6f56:	11 00 32    	bra       Z, 0x6f7a <.L8>

00006f58 <.L17>:
    6f58:	6a 13 b9    	mul.su    w2, #0xa, w6
    6f5a:	64 00 43    	add.w     w6, #0x4, w0
    6f5c:	0a 00 40    	add.w     w0, w10, w0
    6f5e:	10 02 be    	mov.d     [w0], w4
    6f60:	84 0f 54    	sub.w     w8, w4, [w15]
    6f62:	85 8f 5c    	subb.w    w9, w5, [w15]
    6f64:	2f 00 35    	bra       LT, 0x6fc4 <.L16>
    6f66:	06 02 be    	mov.d     w6, w4
    6f68:	64 00 42    	add.w     w4, #0x4, w0
    6f6a:	0a 00 40    	add.w     w0, w10, w0
    6f6c:	30 01 54    	sub.w     w8, [w0++], w2
    6f6e:	a0 81 5c    	subb.w    w9, [w0--], w3
    6f70:	02 04 be    	mov.d     w2, w8
    6f72:	e8 00 42    	add.w     w4, #0x8, w1
    6f74:	61 01 7d    	mov.w     [w1+w10], w2
    6f76:	e1 0f 41    	add.w     w2, #0x1, [w15]
    6f78:	ef ff 3a    	bra       NZ, 0x6f58 <.L17>

00006f7a <.L8>:
    6f7a:	e0 d9 20    	mov.w     #0xd9e, w0
    6f7c:	8b 30 78    	mov.w     w11, [w1+w0]
    6f7e:	02 03 78    	mov.w     w2, w6

00006f80 <.L4>:
    6f80:	6a 58 b9    	mul.su    w11, #0xa, w0
    6f82:	0a 01 40    	add.w     w0, w10, w2
    6f84:	28 01 98    	mov.w     w8, [w2+4]
    6f86:	39 01 98    	mov.w     w9, [w2+6]
    6f88:	68 00 40    	add.w     w0, #0x8, w0
    6f8a:	06 30 7d    	mov.w     w6, [w0+w10]
    6f8c:	4f 05 be    	mov.d     [--w15], w10
    6f8e:	4f 04 be    	mov.d     [--w15], w8
    6f90:	00 00 06    	return    

00006f92 <.L15>:
    6f92:	8b b0 7b    	mov.w     w11, [w1+w7]
    6f94:	08 18 51    	sub.w     w2, w8, [w0++]
    6f96:	09 90 59    	subb.w    w3, w9, [w0--]
    6f98:	6a 58 b9    	mul.su    w11, #0xa, w0
    6f9a:	0a 01 40    	add.w     w0, w10, w2
    6f9c:	28 01 98    	mov.w     w8, [w2+4]
    6f9e:	39 01 98    	mov.w     w9, [w2+6]
    6fa0:	68 00 40    	add.w     w0, #0x8, w0
    6fa2:	06 30 7d    	mov.w     w6, [w0+w10]
    6fa4:	4f 05 be    	mov.d     [--w15], w10
    6fa6:	4f 04 be    	mov.d     [--w15], w8
    6fa8:	00 00 06    	return    
    6faa:	f3 ff 37    	bra       0x6f92 <.L15>

00006fac <.L14>:
    6fac:	8b b0 7b    	mov.w     w11, [w1+w7]
    6fae:	ea d9 20    	mov.w     #0xd9e, w10
    6fb0:	6a 58 b9    	mul.su    w11, #0xa, w0
    6fb2:	0a 01 40    	add.w     w0, w10, w2
    6fb4:	28 01 98    	mov.w     w8, [w2+4]
    6fb6:	39 01 98    	mov.w     w9, [w2+6]
    6fb8:	68 00 40    	add.w     w0, #0x8, w0
    6fba:	06 30 7d    	mov.w     w6, [w0+w10]
    6fbc:	4f 05 be    	mov.d     [--w15], w10
    6fbe:	4f 04 be    	mov.d     [--w15], w8
    6fc0:	00 00 06    	return    
    6fc2:	e7 ff 37    	bra       0x6f92 <.L15>

00006fc4 <.L16>:
    6fc4:	08 18 52    	sub.w     w4, w8, [w0++]
    6fc6:	09 90 5a    	subb.w    w5, w9, [w0--]
    6fc8:	e0 d9 20    	mov.w     #0xd9e, w0
    6fca:	8b 30 78    	mov.w     w11, [w1+w0]
    6fcc:	02 03 78    	mov.w     w2, w6
    6fce:	d8 ff 37    	bra       0x6f80 <.L4>

00006fd0 <_EE_alarm_CounterTick>:
    6fd0:	e4 87 47    	add.w     w15, #0x4, w15
    6fd2:	88 9f be    	mov.d     w8, [w15++]
    6fd4:	8a 9f be    	mov.d     w10, [w15++]
    6fd6:	8c 9f be    	mov.d     w12, [w15++]
    6fd8:	8e 1f 78    	mov.w     w14, [w15++]

00006fda <.bb>:
    6fda:	11 02 80    	mov.w     0x42, w1
    6fdc:	81 bf 9f    	mov.w     w1, [w15-16]
    6fde:	21 04 20    	mov.w     #0x42, w1
    6fe0:	91 40 78    	mov.b     [w1], w1
    6fe2:	ff c0 60    	and.b     w1, #0x1f, w1
    6fe4:	02 cc b3    	mov.b     #0xc0, w2
    6fe6:	82 c0 70    	ior.b     w1, w2, w1
    6fe8:	80 00 fd    	exch      w0, w1
    6fea:	42 e0 b7    	mov.b     WREG, 0x42
    6fec:	80 00 fd    	exch      w0, w1

00006fee <.eb>:
    6fee:	66 01 b9    	mul.su    w0, #0x6, w2
    6ff0:	a4 e7 20    	mov.w     #0xe7a, w4
    6ff2:	04 00 41    	add.w     w2, w4, w0
    6ff4:	14 00 20    	mov.w     #0x1, w4
    6ff6:	05 00 20    	mov.w     #0x0, w5
    6ff8:	10 08 42    	add.w     w4, [w0], [w0]
    6ffa:	50 90 4a    	addc.w    w5, [++w0], [w0--]
    6ffc:	e4 00 41    	add.w     w2, #0x4, w1
    6ffe:	a5 e7 20    	mov.w     #0xe7a, w5
    7000:	e1 85 7a    	mov.w     [w1+w5], w11
    7002:	e1 8f 45    	add.w     w11, #0x1, [w15]
    7004:	2b 00 32    	bra       Z, 0x705c <.L21>
    7006:	6a 5c b9    	mul.su    w11, #0xa, w8
    7008:	64 00 44    	add.w     w8, #0x4, w0
    700a:	ed d9 20    	mov.w     #0xd9e, w13
    700c:	0d 00 40    	add.w     w0, w13, w0
    700e:	00 82 eb    	setm.w    w4
    7010:	80 82 eb    	setm.w    w5
    7012:	10 08 42    	add.w     w4, [w0], [w0]
    7014:	50 90 4a    	addc.w    w5, [++w0], [w0--]
    7016:	01 07 78    	mov.w     w1, w14
    7018:	08 80 46    	add.w     w13, w8, w0
    701a:	b0 00 90    	mov.w     [w0+6], w1
    701c:	20 00 90    	mov.w     [w0+4], w0
    701e:	e0 0f 50    	sub.w     w0, #0x0, [w15]
    7020:	e0 8f 58    	subb.w    w1, #0x0, [w15]
    7022:	1c 00 3a    	bra       NZ, 0x705c <.L21>

00007024 <.L24>:
    7024:	c3 58 dd    	sl.w      w11, #0x3, w1
    7026:	01 80 e8    	inc2.w    w1, w0
    7028:	a2 0d 2a    	mov.w     #0xa0da, w2
    702a:	60 40 79    	mov.b     [w0+w2], w0
    702c:	00 04 e0    	cp0.b     w0
    702e:	2e 00 32    	bra       Z, 0x708c <.L26>
    7030:	e1 4f 50    	sub.b     w0, #0x1, [w15]
    7032:	1f 00 32    	bra       Z, 0x7072 <.L34>
    7034:	e8 00 44    	add.w     w8, #0x8, w1
    7036:	e1 80 7e    	mov.w     [w1+w13], w1
    7038:	a5 e7 20    	mov.w     #0xe7a, w5
    703a:	01 b7 7a    	mov.w     w1, [w14+w5]
    703c:	0d 00 44    	add.w     w8, w13, w0
    703e:	10 01 be    	mov.d     [w0], w2
    7040:	e0 0f 51    	sub.w     w2, #0x0, [w15]
    7042:	e0 8f 59    	subb.w    w3, #0x0, [w15]
    7044:	13 00 3a    	bra       NZ, 0x706c <.L35>

00007046 <.L30>:
    7046:	a0 e7 20    	mov.w     #0xe7a, w0
    7048:	ee 05 78    	mov.w     [w14+w0], w11
    704a:	e1 8f 45    	add.w     w11, #0x1, [w15]
    704c:	07 00 32    	bra       Z, 0x705c <.L21>
    704e:	6a 5c b9    	mul.su    w11, #0xa, w8
    7050:	08 80 46    	add.w     w13, w8, w0
    7052:	b0 00 90    	mov.w     [w0+6], w1
    7054:	20 00 90    	mov.w     [w0+4], w0
    7056:	e0 0f 50    	sub.w     w0, #0x0, [w15]
    7058:	e0 8f 58    	subb.w    w1, #0x0, [w15]
    705a:	e4 ff 32    	bra       Z, 0x7024 <.L24>

0000705c <.L21>:
    705c:	0f b8 97    	mov.w     [w15-16], w0
    705e:	10 02 88    	mov.w     w0, 0x42

00007060 <.eb>:
    7060:	4f 07 78    	mov.w     [--w15], w14
    7062:	4f 06 be    	mov.d     [--w15], w12
    7064:	4f 05 be    	mov.d     [--w15], w10
    7066:	4f 04 be    	mov.d     [--w15], w8
    7068:	4f 00 b1    	sub.w     #0x4, w15
    706a:	00 00 06    	return    

0000706c <.L35>:
    706c:	0b 00 78    	mov.w     w11, w0
    706e:	56 ff 07    	rcall     0x6f1c <_EE_alarm_insert>
    7070:	ea ff 37    	bra       0x7046 <.L30>

00007072 <.L34>:
    7072:	66 80 40    	add.w     w1, #0x6, w0
    7074:	60 00 79    	mov.w     [w0+w2], w0
    7076:	00 00 01    	call      w0
    7078:	e8 00 44    	add.w     w8, #0x8, w1
    707a:	e1 80 7e    	mov.w     [w1+w13], w1
    707c:	a5 e7 20    	mov.w     #0xe7a, w5
    707e:	01 b7 7a    	mov.w     w1, [w14+w5]
    7080:	0d 00 44    	add.w     w8, w13, w0
    7082:	10 01 be    	mov.d     [w0], w2
    7084:	e0 0f 51    	sub.w     w2, #0x0, [w15]
    7086:	e0 8f 59    	subb.w    w3, #0x0, [w15]
    7088:	de ff 32    	bra       Z, 0x7046 <.L30>
    708a:	f0 ff 37    	bra       0x706c <.L35>

0000708c <.L26>:
    708c:	64 80 40    	add.w     w1, #0x4, w0
    708e:	e0 00 79    	mov.w     [w0+w2], w1
    7090:	01 85 40    	add.w     w1, w1, w10
    7092:	ac de 20    	mov.w     #0xdea, w12
    7094:	6a 00 7e    	mov.w     [w10+w12], w0
    7096:	00 00 e0    	cp0.w     w0
    7098:	0c 00 32    	bra       Z, 0x70b2 <.L36>
    709a:	00 00 e8    	inc.w     w0, w0
    709c:	00 35 7e    	mov.w     w0, [w10+w12]

0000709e <.L37>:
    709e:	e8 00 44    	add.w     w8, #0x8, w1
    70a0:	e1 80 7e    	mov.w     [w1+w13], w1
    70a2:	a5 e7 20    	mov.w     #0xe7a, w5
    70a4:	01 b7 7a    	mov.w     w1, [w14+w5]
    70a6:	0d 00 44    	add.w     w8, w13, w0
    70a8:	10 01 be    	mov.d     [w0], w2
    70aa:	e0 0f 51    	sub.w     w2, #0x0, [w15]
    70ac:	e0 8f 59    	subb.w    w3, #0x0, [w15]
    70ae:	cb ff 32    	bra       Z, 0x7046 <.L30>
    70b0:	dd ff 37    	bra       0x706c <.L35>

000070b2 <.L36>:
    70b2:	01 00 78    	mov.w     w1, w0
    70b4:	b5 02 07    	rcall     0x7620 <_EE_rq_insert>
    70b6:	6a 00 7e    	mov.w     [w10+w12], w0
    70b8:	00 00 e8    	inc.w     w0, w0
    70ba:	00 35 7e    	mov.w     w0, [w10+w12]
    70bc:	f0 ff 37    	bra       0x709e <.L37>

000070be <_uwl_radio_mac_create_beacon>:
    70be:	70 ba 20    	mov.w     #0xba7, w0
    70c0:	be e7 07    	rcall     0x403e <_uwl_mac_create_beacon>
    70c2:	a6 eb b7    	mov.b     WREG, 0xba6
    70c4:	00 81 eb    	setm.w    w2
    70c6:	e1 c7 b3    	mov.b     #0x7e, w1
    70c8:	81 4f 50    	sub.b     w0, w1, [w15]
    70ca:	01 00 3e    	bra       GTU, 0x70ce <.L4>
    70cc:	12 00 20    	mov.w     #0x1, w2

000070ce <.L4>:
    70ce:	02 00 78    	mov.w     w2, w0
    70d0:	00 00 06    	return    

000070d2 <_uwl_radio_store_ack>:
    70d2:	00 81 eb    	setm.w    w2
    70d4:	e3 cf 50    	sub.b     w1, #0x3, [w15]
    70d6:	02 00 32    	bra       Z, 0x70dc <.L14>
    70d8:	02 00 78    	mov.w     w2, w0
    70da:	00 00 06    	return    

000070dc <.L14>:
    70dc:	80 1f 78    	mov.w     w0, [w15++]
    70de:	10 40 78    	mov.b     [w0], w0
    70e0:	24 eb b7    	mov.b     WREG, 0xb24
    70e2:	4f 00 78    	mov.w     [--w15], w0
    70e4:	00 00 e8    	inc.w     w0, w0
    70e6:	80 1f 78    	mov.w     w0, [w15++]
    70e8:	10 40 78    	mov.b     [w0], w0
    70ea:	25 eb b7    	mov.b     WREG, 0xb25
    70ec:	4f 00 78    	mov.w     [--w15], w0
    70ee:	00 00 e8    	inc.w     w0, w0
    70f0:	80 1f 78    	mov.w     w0, [w15++]
    70f2:	10 40 78    	mov.b     [w0], w0
    70f4:	26 eb b7    	mov.b     WREG, 0xb26
    70f6:	4f 00 78    	mov.w     [--w15], w0
    70f8:	10 00 20    	mov.w     #0x1, w0
    70fa:	00 00 06    	return    
    70fc:	ef ff 37    	bra       0x70dc <.L14>

000070fe <_uwl_radio_phy_get_status>:
    70fe:	20 5d 80    	mov.w     0xba4, w0
    7100:	00 00 06    	return    

00007102 <_uwl_radio_phy_set_channel>:
    7102:	02 00 fa    	lnk       #0x2
    7104:	e0 ff 9f    	mov.b     w0, [w15-2]
    7106:	8f 80 e9    	dec2.w    w15, w1
    7108:	00 00 eb    	clr.w     w0
    710a:	48 f7 07    	rcall     0x5f9c <_uwl_PLME_SET_request>
    710c:	00 04 e0    	cp0.b     w0
    710e:	08 00 35    	bra       LT, 0x7120 <.L29>
    7110:	21 5d 80    	mov.w     0xba4, w1
    7112:	e7 80 68    	xor.w     w1, #0x7, w1
    7114:	01 00 ea    	neg.w     w1, w0
    7116:	01 00 70    	ior.w     w0, w1, w0
    7118:	4f 00 de    	lsr.w     w0, #0xf, w0
    711a:	60 00 10    	subr.w    w0, #0x0, w0
    711c:	00 80 fa    	ulnk      
    711e:	00 00 06    	return    

00007120 <.L29>:
    7120:	00 00 fb    	se        w0, w0
    7122:	00 80 fa    	ulnk      
    7124:	00 00 06    	return    
    7126:	fc ff 37    	bra       0x7120 <.L29>

00007128 <_uwl_radio_phy_set_rx_on>:
    7128:	60 00 20    	mov.w     #0x6, w0
    712a:	96 f7 07    	rcall     0x6058 <_uwl_PLME_SET_TRX_STATE_request>
    712c:	00 04 e0    	cp0.b     w0
    712e:	07 00 35    	bra       LT, 0x713e <.L40>
    7130:	21 5d 80    	mov.w     0xba4, w1
    7132:	e6 80 68    	xor.w     w1, #0x6, w1
    7134:	01 00 ea    	neg.w     w1, w0
    7136:	01 00 70    	ior.w     w0, w1, w0
    7138:	4f 00 de    	lsr.w     w0, #0xf, w0
    713a:	60 00 10    	subr.w    w0, #0x0, w0
    713c:	00 00 06    	return    

0000713e <.L40>:
    713e:	00 00 fb    	se        w0, w0
    7140:	00 00 06    	return    

00007142 <_uwl_radio_phy_send_now>:
    7142:	88 1f 78    	mov.w     w8, [w15++]

00007144 <.bb>:
    7144:	35 ef 07    	rcall     0x4fb0 <_cc2420_store_msg>
    7146:	ed ef 07    	rcall     0x5122 <_cc2420_set_tx>

00007148 <.L43>:
    7148:	2a ef 07    	rcall     0x4f9e <_cc2420_get_status>
    714a:	68 04 60    	and.w     w0, #0x8, w8
    714c:	fd ff 3a    	bra       NZ, 0x7148 <.L43>
    714e:	27 ef 07    	rcall     0x4f9e <_cc2420_get_status>
    7150:	00 02 b2    	and.w     #0x20, w0
    7152:	06 00 32    	bra       Z, 0x7160 <.L50>
    7154:	e7 22 a9    	bclr.b    0x2e7, #0x1
    7156:	88 00 78    	mov.w     w8, w1
    7158:	90 c0 b3    	mov.b     #0x9, w0
    715a:	e3 00 07    	rcall     0x7322 <_cc2420_spi_put>
    715c:	e7 22 a8    	bset.b    0x2e7, #0x1

0000715e <.eb>:
    715e:	00 80 eb    	setm.w    w0

00007160 <.L50>:
    7160:	4f 04 78    	mov.w     [--w15], w8
    7162:	00 00 06    	return    

00007164 <_uwl_PD_DATA_confirm>:
    7164:	10 00 05    	retlw.w   #0x1, w0

00007166 <_uwl_PD_DATA_indication>:
    7166:	01 01 78    	mov.w     w1, w2
    7168:	80 40 78    	mov.b     w0, w1
    716a:	02 00 78    	mov.w     w2, w0
    716c:	a6 e2 07    	rcall     0x36ba <_uwl_mac_parse_received_mpdu>
    716e:	10 00 05    	retlw.w   #0x1, w0

00007170 <_uwl_PLME_CCA_confirm>:
    7170:	20 5d 88    	mov.w     w0, 0xba4
    7172:	10 00 05    	retlw.w   #0x1, w0

00007174 <_uwl_PLME_ED_confirm>:
    7174:	20 5d 88    	mov.w     w0, 0xba4
    7176:	10 00 05    	retlw.w   #0x1, w0

00007178 <_uwl_PLME_GET_confirm>:
    7178:	20 5d 88    	mov.w     w0, 0xba4
    717a:	10 00 05    	retlw.w   #0x1, w0

0000717c <_uwl_PLME_SET_TRX_STATE_confirm>:
    717c:	20 5d 88    	mov.w     w0, 0xba4
    717e:	10 00 05    	retlw.w   #0x1, w0

00007180 <_uwl_PLME_SET_confirm>:
    7180:	20 5d 88    	mov.w     w0, 0xba4
    7182:	10 00 05    	retlw.w   #0x1, w0

00007184 <_uwl_radio_mac_send_beacon>:
    7184:	88 1f 78    	mov.w     w8, [w15++]

00007186 <.bb>:
    7186:	61 ba 20    	mov.w     #0xba6, w1
    7188:	91 40 78    	mov.b     [w1], w1
    718a:	70 ba 20    	mov.w     #0xba7, w0
    718c:	11 ef 07    	rcall     0x4fb0 <_cc2420_store_msg>
    718e:	c9 ef 07    	rcall     0x5122 <_cc2420_set_tx>

00007190 <.L87>:
    7190:	06 ef 07    	rcall     0x4f9e <_cc2420_get_status>
    7192:	68 04 60    	and.w     w0, #0x8, w8
    7194:	fd ff 3a    	bra       NZ, 0x7190 <.L87>
    7196:	03 ef 07    	rcall     0x4f9e <_cc2420_get_status>
    7198:	00 02 b2    	and.w     #0x20, w0
    719a:	06 00 32    	bra       Z, 0x71a8 <.L94>
    719c:	e7 22 a9    	bclr.b    0x2e7, #0x1
    719e:	88 00 78    	mov.w     w8, w1
    71a0:	90 c0 b3    	mov.b     #0x9, w0
    71a2:	bf 00 07    	rcall     0x7322 <_cc2420_spi_put>
    71a4:	e7 22 a8    	bset.b    0x2e7, #0x1

000071a6 <.eb>:
    71a6:	00 80 eb    	setm.w    w0

000071a8 <.L94>:
    71a8:	4f 04 78    	mov.w     [--w15], w8
    71aa:	00 00 06    	return    

000071ac <_uwl_radio_send_ack>:
    71ac:	88 1f 78    	mov.w     w8, [w15++]

000071ae <.bb>:
    71ae:	31 c0 b3    	mov.b     #0x3, w1
    71b0:	40 b2 20    	mov.w     #0xb24, w0
    71b2:	fe ee 07    	rcall     0x4fb0 <_cc2420_store_msg>
    71b4:	b6 ef 07    	rcall     0x5122 <_cc2420_set_tx>

000071b6 <.L103>:
    71b6:	f3 ee 07    	rcall     0x4f9e <_cc2420_get_status>
    71b8:	68 04 60    	and.w     w0, #0x8, w8
    71ba:	fd ff 3a    	bra       NZ, 0x71b6 <.L103>
    71bc:	f0 ee 07    	rcall     0x4f9e <_cc2420_get_status>
    71be:	00 02 b2    	and.w     #0x20, w0
    71c0:	06 00 32    	bra       Z, 0x71ce <.L110>
    71c2:	e7 22 a9    	bclr.b    0x2e7, #0x1
    71c4:	88 00 78    	mov.w     w8, w1
    71c6:	90 c0 b3    	mov.b     #0x9, w0
    71c8:	ac 00 07    	rcall     0x7322 <_cc2420_spi_put>
    71ca:	e7 22 a8    	bset.b    0x2e7, #0x1

000071cc <.eb>:
    71cc:	00 80 eb    	setm.w    w0

000071ce <.L110>:
    71ce:	4f 04 78    	mov.w     [--w15], w8
    71d0:	00 00 06    	return    

000071d2 <_EE_spi_init>:
    71d2:	00 04 e0    	cp0.b     w0
    71d4:	08 00 3a    	bra       NZ, 0x71e6 <.L2>
    71d6:	41 e2 a9    	bclr.b    0x241, #0x7
    71d8:	e0 13 20    	mov.w     #0x13e, w0
    71da:	10 12 88    	mov.w     w0, 0x242
    71dc:	44 22 ef    	clr.w     0x244
    71de:	41 e2 a8    	bset.b    0x241, #0x7
    71e0:	11 00 20    	mov.w     #0x1, w1

000071e2 <.L4>:
    71e2:	01 00 78    	mov.w     w1, w0
    71e4:	00 00 06    	return    

000071e6 <.L2>:
    71e6:	80 80 eb    	setm.w    w1
    71e8:	e1 4f 50    	sub.b     w0, #0x1, [w15]
    71ea:	fb ff 3a    	bra       NZ, 0x71e2 <.L4>
    71ec:	61 e2 a9    	bclr.b    0x261, #0x7
    71ee:	e0 13 20    	mov.w     #0x13e, w0
    71f0:	10 13 88    	mov.w     w0, 0x262
    71f2:	64 22 ef    	clr.w     0x264
    71f4:	61 e2 a8    	bset.b    0x261, #0x7
    71f6:	10 00 20    	mov.w     #0x1, w0
    71f8:	00 00 06    	return    
    71fa:	f5 ff 37    	bra       0x71e6 <.L2>

000071fc <_EE_spi_close>:
    71fc:	00 04 e0    	cp0.b     w0
    71fe:	02 00 3a    	bra       NZ, 0x7204 <.L19>

00007200 <.L12>:
    7200:	10 00 20    	mov.w     #0x1, w0
    7202:	00 00 06    	return    

00007204 <.L19>:
    7204:	80 80 eb    	setm.w    w1
    7206:	e1 4f 50    	sub.b     w0, #0x1, [w15]
    7208:	fb ff 32    	bra       Z, 0x7200 <.L12>
    720a:	01 00 78    	mov.w     w1, w0
    720c:	00 00 06    	return    
    720e:	fa ff 37    	bra       0x7204 <.L19>

00007210 <_EE_spi_rw_byte>:
    7210:	00 04 e0    	cp0.b     w0
    7212:	10 00 3a    	bra       NZ, 0x7234 <.L23>
    7214:	85 40 a9    	bclr.b    0x85, #0x2
    7216:	40 c2 a9    	bclr.b    0x240, #0x6

00007218 <.L25>:
    7218:	40 c2 bf    	mov.b     0x240, WREG
    721a:	00 18 a3    	btst.z    w0, #0x1
    721c:	fd ff 3a    	bra       NZ, 0x7218
    721e:	01 80 fb    	ze        w1, w0
    7220:	40 12 88    	mov.w     w0, 0x248

00007222 <.L27>:
    7222:	40 c2 bf    	mov.b     0x240, WREG
    7224:	00 08 a3    	btst.z    w0, #0x0
    7226:	fd ff 32    	bra       Z, 0x7222 <.L27>
    7228:	40 c2 a9    	bclr.b    0x240, #0x6
    722a:	40 12 80    	mov.w     0x248, w0
    722c:	00 49 78    	mov.b     w0, [w2]
    722e:	13 00 20    	mov.w     #0x1, w3

00007230 <.L29>:
    7230:	03 00 78    	mov.w     w3, w0
    7232:	00 00 06    	return    

00007234 <.L23>:
    7234:	80 81 eb    	setm.w    w3
    7236:	e1 4f 50    	sub.b     w0, #0x1, [w15]
    7238:	fb ff 3a    	bra       NZ, 0x7230 <.L29>
    723a:	88 20 a9    	bclr.b    0x88, #0x1
    723c:	60 c2 a9    	bclr.b    0x260, #0x6

0000723e <.L32>:
    723e:	60 c2 bf    	mov.b     0x260, WREG
    7240:	00 18 a3    	btst.z    w0, #0x1
    7242:	fd ff 3a    	bra       NZ, 0x723e <.L32>
    7244:	01 80 fb    	ze        w1, w0
    7246:	40 13 88    	mov.w     w0, 0x268

00007248 <.L34>:
    7248:	60 c2 bf    	mov.b     0x260, WREG
    724a:	00 08 a3    	btst.z    w0, #0x0
    724c:	fd ff 32    	bra       Z, 0x7248 <.L34>
    724e:	60 c2 a9    	bclr.b    0x260, #0x6
    7250:	40 13 80    	mov.w     0x268, w0
    7252:	00 49 78    	mov.b     w0, [w2]
    7254:	10 00 20    	mov.w     #0x1, w0
    7256:	00 00 06    	return    
    7258:	ed ff 37    	bra       0x7234 <.L23>

0000725a <_EE_spi_write_byte>:
    725a:	00 04 e0    	cp0.b     w0
    725c:	0f 00 3a    	bra       NZ, 0x727c <.L49>
    725e:	85 40 a9    	bclr.b    0x85, #0x2
    7260:	40 c2 a9    	bclr.b    0x240, #0x6

00007262 <.L51>:
    7262:	40 c2 bf    	mov.b     0x240, WREG
    7264:	00 18 a3    	btst.z    w0, #0x1
    7266:	fd ff 3a    	bra       NZ, 0x7262 <.L51>
    7268:	01 80 fb    	ze        w1, w0
    726a:	40 12 88    	mov.w     w0, 0x248

0000726c <.L53>:
    726c:	40 c2 bf    	mov.b     0x240, WREG
    726e:	00 08 a3    	btst.z    w0, #0x0
    7270:	fd ff 32    	bra       Z, 0x726c <.L53>
    7272:	40 c2 a9    	bclr.b    0x240, #0x6
    7274:	40 12 80    	mov.w     0x248, w0
    7276:	12 00 20    	mov.w     #0x1, w2

00007278 <.L55>:
    7278:	02 00 78    	mov.w     w2, w0
    727a:	00 00 06    	return    

0000727c <.L49>:
    727c:	00 81 eb    	setm.w    w2
    727e:	e1 4f 50    	sub.b     w0, #0x1, [w15]
    7280:	fb ff 3a    	bra       NZ, 0x7278 <.L55>
    7282:	88 20 a9    	bclr.b    0x88, #0x1
    7284:	60 c2 a9    	bclr.b    0x260, #0x6

00007286 <.L58>:
    7286:	60 c2 bf    	mov.b     0x260, WREG
    7288:	00 18 a3    	btst.z    w0, #0x1
    728a:	fd ff 3a    	bra       NZ, 0x7286 <.L58>
    728c:	01 80 fb    	ze        w1, w0
    728e:	40 13 88    	mov.w     w0, 0x268

00007290 <.L60>:
    7290:	60 c2 bf    	mov.b     0x260, WREG
    7292:	00 08 a3    	btst.z    w0, #0x0
    7294:	fd ff 32    	bra       Z, 0x7290 <.L60>
    7296:	60 c2 a9    	bclr.b    0x260, #0x6
    7298:	40 13 80    	mov.w     0x268, w0
    729a:	10 00 20    	mov.w     #0x1, w0
    729c:	00 00 06    	return    
    729e:	ee ff 37    	bra       0x727c <.L49>

000072a0 <_EE_spi_read_byte>:
    72a0:	00 04 e0    	cp0.b     w0
    72a2:	0d 00 3a    	bra       NZ, 0x72be <.L75>

000072a4 <.L87>:
    72a4:	40 c2 bf    	mov.b     0x240, WREG
    72a6:	00 18 a3    	btst.z    w0, #0x1
    72a8:	fd ff 3a    	bra       NZ, 0x72a4 <.L87>
    72aa:	48 22 ef    	clr.w     0x248

000072ac <.L78>:
    72ac:	40 c2 bf    	mov.b     0x240, WREG
    72ae:	00 08 a3    	btst.z    w0, #0x0
    72b0:	fd ff 32    	bra       Z, 0x72ac <.L78>
    72b2:	40 c2 a9    	bclr.b    0x240, #0x6
    72b4:	40 12 80    	mov.w     0x248, w0
    72b6:	80 48 78    	mov.b     w0, [w1]
    72b8:	12 00 20    	mov.w     #0x1, w2

000072ba <.L80>:
    72ba:	02 00 78    	mov.w     w2, w0
    72bc:	00 00 06    	return    

000072be <.L75>:
    72be:	00 81 eb    	setm.w    w2
    72c0:	e1 4f 50    	sub.b     w0, #0x1, [w15]
    72c2:	fb ff 3a    	bra       NZ, 0x72ba <.L80>

000072c4 <.L88>:
    72c4:	60 c2 bf    	mov.b     0x260, WREG
    72c6:	00 18 a3    	btst.z    w0, #0x1
    72c8:	fd ff 3a    	bra       NZ, 0x72c4 <.L88>
    72ca:	68 22 ef    	clr.w     0x268

000072cc <.L84>:
    72cc:	60 c2 bf    	mov.b     0x260, WREG
    72ce:	00 08 a3    	btst.z    w0, #0x0
    72d0:	fd ff 32    	bra       Z, 0x72cc <.L84>
    72d2:	60 c2 a9    	bclr.b    0x260, #0x6
    72d4:	40 13 80    	mov.w     0x268, w0
    72d6:	80 48 78    	mov.b     w0, [w1]
    72d8:	10 00 20    	mov.w     #0x1, w0
    72da:	00 00 06    	return    
    72dc:	f0 ff 37    	bra       0x72be <.L75>

000072de <_cc2420_delay_us>:
    72de:	00 00 e8    	inc.w     w0, w0
    72e0:	20 7a 88    	mov.w     w0, 0xf44

000072e2 <outer>:
    72e2:	44 2f ed    	dec.w     0xf44
    72e4:	44 0f e2    	cp0.w     0xf44
    72e6:	05 00 32    	bra       Z, 0x72f2 <done>
    72e8:	dc 05 08    	do        #0x5dc, 0x72ee <inner>
    72ea:	01 00 00 
    72ec:	00 00 00    	nop       

000072ee <inner>:
    72ee:	00 00 00    	nop       
    72f0:	f8 ff 37    	bra       0x72e2 <outer>

000072f2 <done>:
    72f2:	00 00 06    	return    

000072f4 <_cc2420_hal_init>:
    72f4:	e4 02 a9    	bclr.b    0x2e4, #0x0
    72f6:	e5 82 a9    	bclr.b    0x2e5, #0x4
    72f8:	d3 c2 a8    	bset.b    0x2d3, #0x6
    72fa:	c1 e2 a8    	bset.b    0x2c1, #0x7
    72fc:	e4 22 a8    	bset.b    0x2e4, #0x1
    72fe:	e5 22 a9    	bclr.b    0x2e5, #0x1
    7300:	8a c0 a9    	bclr.b    0x8a, #0x6
    7302:	bf c0 bf    	mov.b     0xbf, WREG
    7304:	81 cf b3    	mov.b     #0xf8, w1
    7306:	01 40 60    	and.b     w0, w1, w0
    7308:	00 04 a0    	bset.b    w0, #0x0
    730a:	bf e0 b7    	mov.b     WREG, 0xbf
    730c:	82 80 a9    	bclr.b    0x82, #0x4
    730e:	9a c0 a8    	bset.b    0x9a, #0x6
    7310:	10 00 05    	retlw.w   #0x1, w0

00007312 <_cc2420_spi_init>:
    7312:	46 ef b7    	mov.b     WREG, 0xf46
    7314:	5e ff 07    	rcall     0x71d2 <_EE_spi_init>
    7316:	00 00 fb    	se        w0, w0
    7318:	00 00 06    	return    

0000731a <_cc2420_spi_close>:
    731a:	46 cf bf    	mov.b     0xf46, WREG
    731c:	6f ff 07    	rcall     0x71fc <_EE_spi_close>
    731e:	00 00 fb    	se        w0, w0
    7320:	00 00 06    	return    

00007322 <_cc2420_spi_put>:
    7322:	80 41 78    	mov.b     w0, w3
    7324:	01 00 e0    	cp0.w     w1
    7326:	06 00 32    	bra       Z, 0x7334 <.L18>
    7328:	46 cf bf    	mov.b     0xf46, WREG
    732a:	01 01 78    	mov.w     w1, w2
    732c:	83 40 78    	mov.b     w3, w1
    732e:	70 ff 07    	rcall     0x7210 <_EE_spi_rw_byte>
    7330:	00 00 fb    	se        w0, w0
    7332:	00 00 06    	return    

00007334 <.L18>:
    7334:	46 cf bf    	mov.b     0xf46, WREG
    7336:	83 40 78    	mov.b     w3, w1
    7338:	90 ff 07    	rcall     0x725a <_EE_spi_write_byte>
    733a:	00 00 fb    	se        w0, w0
    733c:	00 00 06    	return    

0000733e <_cc2420_spi_get>:
    733e:	02 00 fa    	lnk       #0x2
    7340:	80 00 78    	mov.w     w0, w1
    7342:	00 00 e0    	cp0.w     w0
    7344:	05 00 32    	bra       Z, 0x7350 <.L25>
    7346:	46 cf bf    	mov.b     0xf46, WREG
    7348:	ab ff 07    	rcall     0x72a0 <_EE_spi_read_byte>
    734a:	00 00 fb    	se        w0, w0
    734c:	00 80 fa    	ulnk      
    734e:	00 00 06    	return    

00007350 <.L25>:
    7350:	46 cf bf    	mov.b     0xf46, WREG
    7352:	8f 80 e9    	dec2.w    w15, w1
    7354:	a5 ff 07    	rcall     0x72a0 <_EE_spi_read_byte>
    7356:	00 00 fb    	se        w0, w0
    7358:	00 80 fa    	ulnk      
    735a:	00 00 06    	return    
    735c:	f9 ff 37    	bra       0x7350 <.L25>

0000735e <_console_serial_hal_open>:
    735e:	00 02 eb    	clr.w     w4
    7360:	75 fa 07    	rcall     0x684c <_EE_uart_init>
    7362:	00 00 fb    	se        w0, w0
    7364:	00 00 06    	return    

00007366 <_console_serial_hal_close>:
    7366:	10 00 05    	retlw.w   #0x1, w0

00007368 <_console_serial_hal_write>:
    7368:	88 9f be    	mov.d     w8, [w15++]
    736a:	8a 9f be    	mov.d     w10, [w15++]
    736c:	80 45 78    	mov.b     w0, w11
    736e:	01 05 78    	mov.w     w1, w10
    7370:	82 04 78    	mov.w     w2, w9
    7372:	02 00 e0    	cp0.w     w2
    7374:	04 00 3a    	bra       NZ, 0x737e <.L19>
    7376:	10 00 20    	mov.w     #0x1, w0

00007378 <.L15>:
    7378:	4f 05 be    	mov.d     [--w15], w10
    737a:	4f 04 be    	mov.d     [--w15], w8
    737c:	00 00 06    	return    

0000737e <.L19>:
    737e:	00 04 eb    	clr.w     w8

00007380 <.L12>:
    7380:	ea 40 7c    	mov.b     [w10+w8], w1
    7382:	0b 40 78    	mov.b     w11, w0
    7384:	cf f9 07    	rcall     0x6724 <_EE_uart_write_byte>
    7386:	00 04 e0    	cp0.b     w0
    7388:	05 00 35    	bra       LT, 0x7394 <.L20>
    738a:	08 04 e8    	inc.w     w8, w8
    738c:	88 8f 54    	sub.w     w9, w8, [w15]
    738e:	f8 ff 3a    	bra       NZ, 0x7380 <.L12>
    7390:	10 00 20    	mov.w     #0x1, w0
    7392:	f2 ff 37    	bra       0x7378 <.L15>

00007394 <.L20>:
    7394:	00 00 fb    	se        w0, w0
    7396:	4f 05 be    	mov.d     [--w15], w10
    7398:	4f 04 be    	mov.d     [--w15], w8
    739a:	00 00 06    	return    
    739c:	f0 ff 37    	bra       0x737e <.L19>

0000739e <_console_serial_hal_read>:
    739e:	88 9f be    	mov.d     w8, [w15++]
    73a0:	8a 9f be    	mov.d     w10, [w15++]
    73a2:	80 45 78    	mov.b     w0, w11
    73a4:	01 05 78    	mov.w     w1, w10
    73a6:	82 04 78    	mov.w     w2, w9
    73a8:	02 00 e0    	cp0.w     w2
    73aa:	04 00 3a    	bra       NZ, 0x73b4 <.L33>
    73ac:	10 00 20    	mov.w     #0x1, w0

000073ae <.L29>:
    73ae:	4f 05 be    	mov.d     [--w15], w10
    73b0:	4f 04 be    	mov.d     [--w15], w8
    73b2:	00 00 06    	return    

000073b4 <.L33>:
    73b4:	00 04 eb    	clr.w     w8

000073b6 <.L26>:
    73b6:	8a 00 44    	add.w     w8, w10, w1
    73b8:	0b 40 78    	mov.b     w11, w0
    73ba:	ed f9 07    	rcall     0x6796 <_EE_uart_read_byte>
    73bc:	00 04 e0    	cp0.b     w0
    73be:	05 00 35    	bra       LT, 0x73ca <.L34>
    73c0:	08 04 e8    	inc.w     w8, w8
    73c2:	88 8f 54    	sub.w     w9, w8, [w15]
    73c4:	f8 ff 3a    	bra       NZ, 0x73b6 <.L26>
    73c6:	10 00 20    	mov.w     #0x1, w0
    73c8:	f2 ff 37    	bra       0x73ae <.L29>

000073ca <.L34>:
    73ca:	00 00 fb    	se        w0, w0
    73cc:	4f 05 be    	mov.d     [--w15], w10
    73ce:	4f 04 be    	mov.d     [--w15], w8
    73d0:	00 00 06    	return    
    73d2:	f0 ff 37    	bra       0x73b4 <.L33>

000073d4 <_EE_fp_ReleaseResource>:
    73d4:	88 1f 78    	mov.w     w8, [w15++]

000073d6 <.bb>:
    73d6:	18 02 80    	mov.w     0x42, w8
    73d8:	21 04 20    	mov.w     #0x42, w1
    73da:	91 40 78    	mov.b     [w1], w1
    73dc:	ff c0 60    	and.b     w1, #0x1f, w1
    73de:	02 cc b3    	mov.b     #0xc0, w2
    73e0:	82 c0 70    	ior.b     w1, w2, w1
    73e2:	80 00 fd    	exch      w0, w1
    73e4:	42 e0 b7    	mov.b     WREG, 0x42
    73e6:	80 00 fd    	exch      w0, w1

000073e8 <.eb>:
    73e8:	00 00 40    	add.w     w0, w0, w0
    73ea:	a1 dd 20    	mov.w     #0xdda, w1
    73ec:	e0 80 78    	mov.w     [w0+w1], w1
    73ee:	31 74 88    	mov.w     w1, 0xe86

000073f0 <.bb>:
    73f0:	40 74 80    	mov.w     0xe88, w0

000073f2 <.eb>:
    73f2:	e1 0f 40    	add.w     w0, #0x1, [w15]
    73f4:	05 00 32    	bra       Z, 0x7400 <.L2>
    73f6:	00 01 40    	add.w     w0, w0, w2
    73f8:	00 13 2a    	mov.w     #0xa130, w0
    73fa:	62 00 78    	mov.w     [w2+w0], w0
    73fc:	80 8f 50    	sub.w     w1, w0, [w15]
    73fe:	03 00 39    	bra       NC, 0x7406 <.L10>

00007400 <.L2>:
    7400:	18 02 88    	mov.w     w8, 0x42

00007402 <.eb>:
    7402:	4f 04 78    	mov.w     [--w15], w8
    7404:	00 00 06    	return    

00007406 <.L10>:
    7406:	a0 11 2a    	mov.w     #0xa11a, w0
    7408:	62 00 78    	mov.w     [w2+w0], w0
    740a:	00 80 70    	ior.w     w1, w0, w0
    740c:	30 74 88    	mov.w     w0, 0xe86
    740e:	76 01 07    	rcall     0x76fc <_EE_rq2stk_exchange>

00007410 <.L5>:
    7410:	51 01 07    	rcall     0x76b4 <_EE_std_run_task_code>
    7412:	00 00 e0    	cp0.w     w0
    7414:	f5 ff 35    	bra       LT, 0x7400 <.L2>
    7416:	4e 01 07    	rcall     0x76b4 <_EE_std_run_task_code>
    7418:	00 00 e0    	cp0.w     w0
    741a:	fa ff 3d    	bra       GE, 0x7410 <.L5>
    741c:	f1 ff 37    	bra       0x7400 <.L2>

0000741e <_EE_fp_GetResource>:
    741e:	13 02 80    	mov.w     0x42, w3
    7420:	21 04 20    	mov.w     #0x42, w1
    7422:	91 40 78    	mov.b     [w1], w1
    7424:	ff c0 60    	and.b     w1, #0x1f, w1
    7426:	02 cc b3    	mov.b     #0xc0, w2
    7428:	82 c0 70    	ior.b     w1, w2, w1
    742a:	80 00 fd    	exch      w0, w1
    742c:	42 e0 b7    	mov.b     WREG, 0x42
    742e:	80 00 fd    	exch      w0, w1

00007430 <.eb>:
    7430:	32 74 80    	mov.w     0xe86, w2
    7432:	00 00 40    	add.w     w0, w0, w0
    7434:	a1 dd 20    	mov.w     #0xdda, w1
    7436:	02 b0 78    	mov.w     w2, [w0+w1]
    7438:	a1 10 2a    	mov.w     #0xa10a, w1
    743a:	60 80 78    	mov.w     [w0+w1], w0
    743c:	00 01 71    	ior.w     w2, w0, w2
    743e:	32 74 88    	mov.w     w2, 0xe86

00007440 <.bb>:
    7440:	13 02 88    	mov.w     w3, 0x42

00007442 <.eb>:
    7442:	00 00 06    	return    

00007444 <_console_serial_open>:
    7444:	b0 00 90    	mov.w     [w0+6], w1
    7446:	10 01 90    	mov.w     [w0+2], w2
    7448:	a0 01 90    	mov.w     [w0+4], w3
    744a:	10 40 78    	mov.b     [w0], w0
    744c:	88 ff 07    	rcall     0x735e <_console_serial_hal_open>
    744e:	00 00 fb    	se        w0, w0
    7450:	00 00 06    	return    

00007452 <_console_serial_close>:
    7452:	10 40 78    	mov.b     [w0], w0
    7454:	88 ff 07    	rcall     0x7366
    7456:	00 00 fb    	se        w0, w0
    7458:	00 00 06    	return    

0000745a <_console_serial_write>:
    745a:	10 40 78    	mov.b     [w0], w0
    745c:	85 ff 07    	rcall     0x7368 <_console_serial_hal_write>
    745e:	00 00 fb    	se        w0, w0
    7460:	00 00 06    	return    

00007462 <_console_serial_read>:
    7462:	10 40 78    	mov.b     [w0], w0
    7464:	9c ff 07    	rcall     0x739e <_console_serial_hal_read>
    7466:	00 00 fb    	se        w0, w0
    7468:	00 00 06    	return    

0000746a <_console_serial_config>:
    746a:	88 9f be    	mov.d     w8, [w15++]
    746c:	00 43 78    	mov.b     w0, w6
    746e:	02 04 be    	mov.d     w2, w8
    7470:	00 00 eb    	clr.w     w0
    7472:	e1 4f 53    	sub.b     w6, #0x1, [w15]
    7474:	02 00 36    	bra       LEU, 0x747a <.L23>
    7476:	4f 04 be    	mov.d     [--w15], w8
    7478:	00 00 06    	return    

0000747a <.L23>:
    747a:	06 80 fb    	ze        w6, w0
    747c:	c3 01 dd    	sl.w      w0, #0x3, w3
    747e:	24 ea 20    	mov.w     #0xea2, w4
    7480:	84 82 41    	add.w     w3, w4, w5
    7482:	86 4a 78    	mov.b     w6, [w5]
    7484:	98 02 98    	mov.w     w8, [w5+2]
    7486:	a9 02 98    	mov.w     w9, [w5+4]
    7488:	e6 81 41    	add.w     w3, #0x6, w3
    748a:	81 31 7a    	mov.w     w1, [w3+w4]
    748c:	6a 00 b9    	mul.su    w0, #0xa, w0
    748e:	68 01 40    	add.w     w0, #0x8, w2
    7490:	23 eb 20    	mov.w     #0xeb2, w3
    7492:	05 b1 79    	mov.w     w5, [w2+w3]
    7494:	00 82 e8    	inc2.w    w0, w4
    7496:	42 44 27    	mov.w     #0x7444, w2
    7498:	02 b2 79    	mov.w     w2, [w4+w3]
    749a:	22 45 27    	mov.w     #0x7452, w2
    749c:	02 b0 79    	mov.w     w2, [w0+w3]
    749e:	64 02 40    	add.w     w0, #0x4, w4
    74a0:	a2 45 27    	mov.w     #0x745a, w2
    74a2:	02 b2 79    	mov.w     w2, [w4+w3]
    74a4:	66 02 40    	add.w     w0, #0x6, w4
    74a6:	22 46 27    	mov.w     #0x7462, w2
    74a8:	02 b2 79    	mov.w     w2, [w4+w3]
    74aa:	03 00 40    	add.w     w0, w3, w0
    74ac:	4f 04 be    	mov.d     [--w15], w8
    74ae:	00 00 06    	return    
    74b0:	e4 ff 37    	bra       0x747a <.L23>

000074b2 <_EE_fp_ActivateTask>:
    74b2:	88 9f be    	mov.d     w8, [w15++]
    74b4:	8a 1f 78    	mov.w     w10, [w15++]
    74b6:	00 01 78    	mov.w     w0, w2

000074b8 <.bb>:
    74b8:	1a 02 80    	mov.w     0x42, w10
    74ba:	42 c0 bf    	mov.b     0x42, WREG
    74bc:	7f 40 60    	and.b     w0, #0x1f, w0
    74be:	01 cc b3    	mov.b     #0xc0, w1
    74c0:	01 40 70    	ior.b     w0, w1, w0
    74c2:	42 e0 b7    	mov.b     WREG, 0x42

000074c4 <.eb>:
    74c4:	02 04 41    	add.w     w2, w2, w8
    74c6:	a9 de 20    	mov.w     #0xdea, w9
    74c8:	68 80 7c    	mov.w     [w8+w9], w0
    74ca:	00 00 e0    	cp0.w     w0
    74cc:	13 00 32    	bra       Z, 0x74f4 <.L15>

000074ce <.L2>:
    74ce:	e1 0f 40    	add.w     w0, #0x1, [w15]
    74d0:	02 00 32    	bra       Z, 0x74d6 <.L4>
    74d2:	00 00 e8    	inc.w     w0, w0
    74d4:	00 b4 7c    	mov.w     w0, [w8+w9]

000074d6 <.L4>:
    74d6:	3a 0f e2    	cp0.w     0xf3a
    74d8:	09 00 3a    	bra       NZ, 0x74ec <.L6>

000074da <.bb>:
    74da:	40 74 80    	mov.w     0xe88, w0

000074dc <.eb>:
    74dc:	e1 0f 40    	add.w     w0, #0x1, [w15]
    74de:	06 00 32    	bra       Z, 0x74ec <.L6>
    74e0:	32 74 80    	mov.w     0xe86, w2
    74e2:	80 00 40    	add.w     w0, w0, w1
    74e4:	00 13 2a    	mov.w     #0xa130, w0
    74e6:	61 00 78    	mov.w     [w1+w0], w0
    74e8:	82 0f 50    	sub.w     w0, w2, [w15]
    74ea:	08 00 3e    	bra       GTU, 0x74fc <.L16>

000074ec <.L6>:
    74ec:	1a 02 88    	mov.w     w10, 0x42

000074ee <.eb>:
    74ee:	4f 05 78    	mov.w     [--w15], w10
    74f0:	4f 04 be    	mov.d     [--w15], w8
    74f2:	00 00 06    	return    

000074f4 <.L15>:
    74f4:	02 00 78    	mov.w     w2, w0
    74f6:	94 00 07    	rcall     0x7620 <_EE_rq_insert>
    74f8:	68 80 7c    	mov.w     [w8+w9], w0
    74fa:	e9 ff 37    	bra       0x74ce <.L2>

000074fc <.L16>:
    74fc:	a0 11 2a    	mov.w     #0xa11a, w0
    74fe:	61 00 78    	mov.w     [w1+w0], w0
    7500:	00 00 71    	ior.w     w2, w0, w0
    7502:	30 74 88    	mov.w     w0, 0xe86
    7504:	fb 00 07    	rcall     0x76fc <_EE_rq2stk_exchange>

00007506 <.L10>:
    7506:	d6 00 07    	rcall     0x76b4 <_EE_std_run_task_code>
    7508:	00 00 e0    	cp0.w     w0
    750a:	f0 ff 35    	bra       LT, 0x74ec <.L6>
    750c:	d3 00 07    	rcall     0x76b4 <_EE_std_run_task_code>
    750e:	00 00 e0    	cp0.w     w0
    7510:	fa ff 3d    	bra       GE, 0x7506 <.L10>
    7512:	ec ff 37    	bra       0x74ec <.L6>

00007514 <_EE_alarm_CancelAlarm>:
    7514:	00 01 78    	mov.w     w0, w2

00007516 <.bb>:
    7516:	16 02 80    	mov.w     0x42, w6
    7518:	42 c0 bf    	mov.b     0x42, WREG
    751a:	7f 40 60    	and.b     w0, #0x1f, w0
    751c:	01 cc b3    	mov.b     #0xc0, w1
    751e:	01 40 70    	ior.b     w0, w1, w0
    7520:	42 e0 b7    	mov.b     WREG, 0x42

00007522 <.eb>:
    7522:	c3 10 dd    	sl.w      w2, #0x3, w1
    7524:	a0 0d 2a    	mov.w     #0xa0da, w0
    7526:	61 00 78    	mov.w     [w1+w0], w0
    7528:	66 00 b9    	mul.su    w0, #0x6, w0
    752a:	e4 00 40    	add.w     w0, #0x4, w1
    752c:	a4 e7 20    	mov.w     #0xe7a, w4
    752e:	61 00 7a    	mov.w     [w1+w4], w0
    7530:	e1 0f 40    	add.w     w0, #0x1, [w15]
    7532:	1a 00 32    	bra       Z, 0x7568 <.L12>
    7534:	e5 d9 20    	mov.w     #0xd9e, w5
    7536:	80 0f 51    	sub.w     w2, w0, [w15]
    7538:	19 00 32    	bra       Z, 0x756c <.L18>

0000753a <.L5>:
    753a:	6a 00 b9    	mul.su    w0, #0xa, w0
    753c:	e8 00 40    	add.w     w0, #0x8, w1
    753e:	e4 d9 20    	mov.w     #0xd9e, w4
    7540:	61 80 7a    	mov.w     [w1+w5], w0
    7542:	e1 0f 40    	add.w     w0, #0x1, [w15]
    7544:	11 00 32    	bra       Z, 0x7568 <.L12>
    7546:	80 0f 51    	sub.w     w2, w0, [w15]
    7548:	f8 ff 3a    	bra       NZ, 0x753a <.L5>
    754a:	6a 11 b9    	mul.su    w2, #0xa, w2
    754c:	68 00 41    	add.w     w2, #0x8, w0
    754e:	e0 30 7a    	mov.w     [w0+w4], [w1+w4]

00007550 <.L7>:
    7550:	68 00 41    	add.w     w2, #0x8, w0
    7552:	60 80 7a    	mov.w     [w0+w5], w0
    7554:	e1 0f 40    	add.w     w0, #0x1, [w15]
    7556:	08 00 32    	bra       Z, 0x7568 <.L12>
    7558:	6a 00 b9    	mul.su    w0, #0xa, w0
    755a:	64 00 40    	add.w     w0, #0x4, w0
    755c:	05 00 40    	add.w     w0, w5, w0
    755e:	64 01 41    	add.w     w2, #0x4, w2
    7560:	05 01 41    	add.w     w2, w5, w2
    7562:	10 02 be    	mov.d     [w0], w4
    7564:	32 18 42    	add.w     w4, [w2++], [w0++]
    7566:	22 90 4a    	addc.w    w5, [w2--], [w0--]

00007568 <.L12>:
    7568:	16 02 88    	mov.w     w6, 0x42
    756a:	00 00 06    	return    

0000756c <.L18>:
    756c:	6a 11 b9    	mul.su    w2, #0xa, w2
    756e:	68 00 41    	add.w     w2, #0x8, w0
    7570:	60 80 7a    	mov.w     [w0+w5], w0
    7572:	80 30 7a    	mov.w     w0, [w1+w4]
    7574:	ed ff 37    	bra       0x7550 <.L7>

00007576 <_uwl_MCPS_DATA_request>:
    7576:	00 00 fa    	lnk       #0x0
    7578:	88 9f be    	mov.d     w8, [w15++]
    757a:	00 44 78    	mov.b     w0, w8
    757c:	00 04 e0    	cp0.b     w0
    757e:	02 00 3a    	bra       NZ, 0x7584 <.L2>
    7580:	01 04 e0    	cp0.b     w1
    7582:	1e 00 32    	bra       Z, 0x75c0 <.L18>

00007584 <.L2>:
    7584:	08 c0 e9    	dec2.b    w8, w0
    7586:	e1 4f 50    	sub.b     w0, #0x1, [w15]
    7588:	09 00 36    	bra       LEU, 0x759c <.L19>

0000758a <.L16>:
    758a:	60 11 b8    	mul.uu    w2, #0x0, w2
    758c:	81 0e 20    	mov.w     #0xe8, w1
    758e:	06 40 78    	mov.b     w6, w0
    7590:	24 f2 07    	rcall     0x59da <_uwl_MCPS_DATA_confirm>
    7592:	19 00 20    	mov.w     #0x1, w9

00007594 <.L5>:
    7594:	09 00 78    	mov.w     w9, w0
    7596:	4f 04 be    	mov.d     [--w15], w8
    7598:	00 80 fa    	ulnk      
    759a:	00 00 06    	return    

0000759c <.L19>:
    759c:	01 c0 e9    	dec2.b    w1, w0
    759e:	e1 4f 50    	sub.b     w0, #0x1, [w15]
    75a0:	f4 ff 3e    	bra       GTU, 0x758a <.L16>
    75a2:	60 c7 b3    	mov.b     #0x76, w0
    75a4:	80 4f 52    	sub.b     w4, w0, [w15]
    75a6:	f1 ff 3e    	bra       GTU, 0x758a <.L16>
    75a8:	69 ff 2f    	mov.w     #0xfff6, w9
    75aa:	4f f0 97    	mov.b     [w15-12], w0
    75ac:	00 04 e0    	cp0.b     w0
    75ae:	f2 ff 3a    	bra       NZ, 0x7594 <.L5>
    75b0:	81 80 fb    	ze        w1, w1
    75b2:	08 80 fb    	ze        w8, w0
    75b4:	85 e3 07    	rcall     0x3cc0 <_uwl_mac_perform_data_request>
    75b6:	10 00 20    	mov.w     #0x1, w0
    75b8:	4f 04 be    	mov.d     [--w15], w8
    75ba:	00 80 fa    	ulnk      
    75bc:	00 00 06    	return    
    75be:	ee ff 37    	bra       0x759c <.L19>

000075c0 <.L18>:
    75c0:	60 11 b8    	mul.uu    w2, #0x0, w2
    75c2:	51 0f 20    	mov.w     #0xf5, w1
    75c4:	06 40 78    	mov.b     w6, w0
    75c6:	09 f2 07    	rcall     0x59da <_uwl_MCPS_DATA_confirm>
    75c8:	10 00 20    	mov.w     #0x1, w0
    75ca:	4f 04 be    	mov.d     [--w15], w8
    75cc:	00 80 fa    	ulnk      
    75ce:	00 00 06    	return    
    75d0:	e5 ff 37    	bra       0x759c <.L19>

000075d2 <_EE_thread_end_instance>:
    75d2:	88 1f 78    	mov.w     w8, [w15++]

000075d4 <.bb>:
    75d4:	53 74 80    	mov.w     0xe8a, w3

000075d6 <.eb>:
    75d6:	03 81 41    	add.w     w3, w3, w2
    75d8:	a0 de 20    	mov.w     #0xdea, w0
    75da:	e2 00 78    	mov.w     [w2+w0], w1
    75dc:	81 00 e9    	dec.w     w1, w1
    75de:	01 31 78    	mov.w     w1, [w2+w0]
    75e0:	a8 11 2a    	mov.w     #0xa11a, w8
    75e2:	62 00 7c    	mov.w     [w2+w8], w0
    75e4:	00 80 ea    	com.w     w0, w0
    75e6:	86 2e b6    	and.w     0xe86

000075e8 <.bb>:
    75e8:	c0 e8 20    	mov.w     #0xe8c, w0
    75ea:	62 01 78    	mov.w     [w2+w0], w2
    75ec:	52 74 88    	mov.w     w2, 0xe8a

000075ee <.eb>:
    75ee:	01 00 e0    	cp0.w     w1
    75f0:	0c 00 3a    	bra       NZ, 0x760a <.L10>

000075f2 <.L2>:
    75f2:	40 74 80    	mov.w     0xe88, w0

000075f4 <.eb>:
    75f4:	e1 0f 40    	add.w     w0, #0x1, [w15]
    75f6:	06 00 32    	bra       Z, 0x7604 <.L4>
    75f8:	32 74 80    	mov.w     0xe86, w2
    75fa:	80 00 40    	add.w     w0, w0, w1
    75fc:	00 13 2a    	mov.w     #0xa130, w0
    75fe:	61 00 78    	mov.w     [w1+w0], w0
    7600:	82 0f 50    	sub.w     w0, w2, [w15]
    7602:	06 00 3e    	bra       GTU, 0x7610 <.L6>

00007604 <.L4>:
    7604:	38 af ef    	setm.w    0xf38

00007606 <.eb>:
    7606:	4f 04 78    	mov.w     [--w15], w8
    7608:	00 00 06    	return    

0000760a <.L10>:
    760a:	03 00 78    	mov.w     w3, w0
    760c:	09 00 07    	rcall     0x7620 <_EE_rq_insert>
    760e:	f1 ff 37    	bra       0x75f2 <.L2>

00007610 <.L6>:
    7610:	61 00 7c    	mov.w     [w1+w8], w0
    7612:	00 00 71    	ior.w     w2, w0, w0
    7614:	30 74 88    	mov.w     w0, 0xe86
    7616:	72 00 07    	rcall     0x76fc <_EE_rq2stk_exchange>
    7618:	c0 79 88    	mov.w     w0, 0xf38
    761a:	4f 04 78    	mov.w     [--w15], w8
    761c:	00 00 06    	return    
    761e:	f5 ff 37    	bra       0x760a <.L10>

00007620 <_EE_rq_insert>:
    7620:	88 9f be    	mov.d     w8, [w15++]
    7622:	00 02 78    	mov.w     w0, w4
    7624:	41 74 80    	mov.w     0xe88, w1
    7626:	80 03 40    	add.w     w0, w0, w7
    7628:	05 13 2a    	mov.w     #0xa130, w5
    762a:	67 83 7a    	mov.w     [w7+w5], w6
    762c:	e1 8f 40    	add.w     w1, #0x1, [w15]
    762e:	1b 00 32    	bra       Z, 0x7666 <.L15>
    7630:	01 81 40    	add.w     w1, w1, w2
    7632:	62 80 7a    	mov.w     [w2+w5], w0
    7634:	c8 e8 20    	mov.w     #0xe8c, w8
    7636:	80 0f 53    	sub.w     w6, w0, [w15]
    7638:	04 00 36    	bra       LEU, 0x7642 <.L16>

0000763a <.L2>:
    763a:	44 74 88    	mov.w     w4, 0xe88

0000763c <.L8>:
    763c:	81 33 7c    	mov.w     w1, [w7+w8]
    763e:	4f 04 be    	mov.d     [--w15], w8
    7640:	00 00 06    	return    

00007642 <.L16>:
    7642:	c8 e8 20    	mov.w     #0xe8c, w8
    7644:	88 04 78    	mov.w     w8, w9

00007646 <.L4>:
    7646:	81 01 78    	mov.w     w1, w3
    7648:	e2 00 7c    	mov.w     [w2+w8], w1
    764a:	e1 8f 40    	add.w     w1, #0x1, [w15]
    764c:	04 00 32    	bra       Z, 0x7656 <.L5>
    764e:	01 81 40    	add.w     w1, w1, w2
    7650:	62 80 7a    	mov.w     [w2+w5], w0
    7652:	80 0f 53    	sub.w     w6, w0, [w15]
    7654:	f8 ff 36    	bra       LEU, 0x7646 <.L4>

00007656 <.L5>:
    7656:	e1 8f 41    	add.w     w3, #0x1, [w15]
    7658:	f0 ff 32    	bra       Z, 0x763a <.L2>
    765a:	03 80 41    	add.w     w3, w3, w0
    765c:	04 b0 7c    	mov.w     w4, [w0+w9]
    765e:	81 33 7c    	mov.w     w1, [w7+w8]
    7660:	4f 04 be    	mov.d     [--w15], w8
    7662:	00 00 06    	return    
    7664:	ee ff 37    	bra       0x7642 <.L16>

00007666 <.L15>:
    7666:	c8 e8 20    	mov.w     #0xe8c, w8
    7668:	44 74 88    	mov.w     w4, 0xe88
    766a:	e8 ff 37    	bra       0x763c <.L8>

0000766c <__OscillatorFail>:
    766c:	ff ff 37    	bra       .

0000766e <__AddressError>:
    766e:	61 19 23    	mov.w     #0x3196, w1
    7670:	cf 10 78    	mov.w     [--w15], [w1--]
    7672:	cf 18 78    	mov.w     [--w15], [w1++]
    7674:	11 70 a1    	bclr.w    [w1], #0x7
    7676:	81 00 e8    	inc.w     w1, w1
    7678:	80 48 eb    	clr.b     [w1]
    767a:	41 19 23    	mov.w     #0x3194, w1
    767c:	22 00 20    	mov.w     #0x2, w2
    767e:	91 18 11    	subr.w    w2, [w1], [w1++]
    7680:	00 01 eb    	clr.w     w2
    7682:	91 08 19    	subbr.w   w2, [w1], [w1]
    7684:	80 60 a9    	bclr.b    0x80, #0x3

00007686 <StayTrappedAddrErr>:
    7686:	ff ff 37    	bra       .
    7688:	00 40 06    	retfie    

0000768a <__StackError>:
    768a:	ff ff 37    	bra       .

0000768c <__MathError>:
    768c:	ff ff 37    	bra       .

0000768e <__DMACError>:
    768e:	ff ff 37    	bra       .

00007690 <_EE_IRQ_end_instance>:
    7690:	40 74 80    	mov.w     0xe88, w0

00007692 <.eb>:
    7692:	e1 0f 40    	add.w     w0, #0x1, [w15]
    7694:	06 00 32    	bra       Z, 0x76a2 <.L2>
    7696:	32 74 80    	mov.w     0xe86, w2
    7698:	80 00 40    	add.w     w0, w0, w1
    769a:	00 13 2a    	mov.w     #0xa130, w0
    769c:	61 00 78    	mov.w     [w1+w0], w0
    769e:	82 0f 50    	sub.w     w0, w2, [w15]
    76a0:	02 00 3e    	bra       GTU, 0x76a6 <.L8>

000076a2 <.L2>:
    76a2:	38 af ef    	setm.w    0xf38
    76a4:	00 00 06    	return    

000076a6 <.L8>:
    76a6:	a0 11 2a    	mov.w     #0xa11a, w0
    76a8:	61 00 78    	mov.w     [w1+w0], w0
    76aa:	00 00 71    	ior.w     w2, w0, w0
    76ac:	30 74 88    	mov.w     w0, 0xe86
    76ae:	26 00 07    	rcall     0x76fc <_EE_rq2stk_exchange>
    76b0:	c0 79 88    	mov.w     w0, 0xf38
    76b2:	00 00 06    	return    

000076b4 <_EE_std_run_task_code>:
    76b4:	21 04 20    	mov.w     #0x42, w1
    76b6:	91 40 78    	mov.b     [w1], w1
    76b8:	ff c0 60    	and.b     w1, #0x1f, w1
    76ba:	80 00 fd    	exch      w0, w1
    76bc:	42 e0 b7    	mov.b     WREG, 0x42
    76be:	80 00 fd    	exch      w0, w1

000076c0 <.eb>:
    76c0:	00 00 40    	add.w     w0, w0, w0
    76c2:	61 14 2a    	mov.w     #0xa146, w1
    76c4:	60 80 78    	mov.w     [w0+w1], w0
    76c6:	00 00 01    	call      w0

000076c8 <.bb>:
    76c8:	42 c0 bf    	mov.b     0x42, WREG
    76ca:	7f 40 60    	and.b     w0, #0x1f, w0
    76cc:	01 cc b3    	mov.b     #0xc0, w1
    76ce:	01 40 70    	ior.b     w0, w1, w0
    76d0:	42 e0 b7    	mov.b     WREG, 0x42

000076d2 <.eb>:
    76d2:	7f ff 07    	rcall     0x75d2 <_EE_thread_end_instance>
    76d4:	c0 79 80    	mov.w     0xf38, w0
    76d6:	00 00 06    	return    

000076d8 <_EE_alarm_SetRelAlarm>:
    76d8:	88 1f 78    	mov.w     w8, [w15++]

000076da <.bb>:
    76da:	18 02 80    	mov.w     0x42, w8
    76dc:	21 04 20    	mov.w     #0x42, w1
    76de:	91 40 78    	mov.b     [w1], w1
    76e0:	ff c0 60    	and.b     w1, #0x1f, w1
    76e2:	06 cc b3    	mov.b     #0xc0, w6
    76e4:	86 c0 70    	ior.b     w1, w6, w1
    76e6:	80 00 fd    	exch      w0, w1
    76e8:	42 e0 b7    	mov.b     WREG, 0x42
    76ea:	80 00 fd    	exch      w0, w1

000076ec <.eb>:
    76ec:	6a 03 b9    	mul.su    w0, #0xa, w6
    76ee:	e1 d9 20    	mov.w     #0xd9e, w1
    76f0:	86 80 40    	add.w     w1, w6, w1
    76f2:	84 88 be    	mov.d     w4, [w1]
    76f4:	13 fc 07    	rcall     0x6f1c <_EE_alarm_insert>

000076f6 <.bb>:
    76f6:	18 02 88    	mov.w     w8, 0x42

000076f8 <.eb>:
    76f8:	4f 04 78    	mov.w     [--w15], w8
    76fa:	00 00 06    	return    

000076fc <_EE_rq2stk_exchange>:
    76fc:	40 74 80    	mov.w     0xe88, w0
    76fe:	00 01 40    	add.w     w0, w0, w2
    7700:	c1 e8 20    	mov.w     #0xe8c, w1
    7702:	e2 81 78    	mov.w     [w2+w1], w3
    7704:	43 74 88    	mov.w     w3, 0xe88
    7706:	53 74 80    	mov.w     0xe8a, w3
    7708:	03 b1 78    	mov.w     w3, [w2+w1]
    770a:	50 74 88    	mov.w     w0, 0xe8a
    770c:	00 00 06    	return    

0000770e <_uwl_kal_external_timer_action>:
    770e:	60 7a 80    	mov.w     0xf4c, w0
    7710:	71 7a 80    	mov.w     0xf4e, w1
    7712:	61 00 40    	add.w     w0, #0x1, w0
    7714:	e0 80 48    	addc.w    w1, #0x0, w1
    7716:	60 7a 88    	mov.w     w0, 0xf4c
    7718:	71 7a 88    	mov.w     w1, 0xf4e
    771a:	10 00 20    	mov.w     #0x1, w0
    771c:	59 fc 37    	bra       0x6fd0 <_EE_alarm_CounterTick>
